Microsoft (R) COFF/PE Dumper Version 14.41.34123.0
Copyright (C) Microsoft Corporation.  All rights reserved.


Dump of file libiqtree2.dll

File Type: DLL

  Section contains the following exports for libiqtree2.dll

    00000000 characteristics
    67B2B3FF time date stamp Mon Feb 17 14:58:55 2025
        0.00 version
           1 ordinal base
        7488 number of functions
        7488 number of names

    ordinal hint RVA      name

          1    0 00127710 AllocateMemory
          2    1 00787350 CKP_HEADER
          3    2 00787358 CKP_HEADER_OLD
          4    3 00127A00 ComputeNeighborJoiningTree
          5    4 001284C0 ComputeWeissLambda
          6    5 001286C0 ComputeWeissLambdaQ16
          7    6 00128860 Compute_Hij
          8    7 00128E40 Compute_Qij_tij
          9    8 00129780 Compute_SSbetween_Matrix
         10    9 00129B80 Compute_q_hat_pairwise
         11    A 0012A440 CountValidPairs
         12    B 0012A530 EvolveSequences
         13    C 0012B080 Finalize
         14    D 0012B0A0 FinishReport
         15    E 0012B190 FixDistance
         16    F 0012B6F0 FixDistance_old
         17   10 0012BA80 FreeMemory
         18   11 0012BC90 Generic_Exit
         19   12 0094EBE0 H
         20   13 0012BCD0 IncompleteGamma
         21   14 0012C000 LnGamma
         22   15 00787360 MAX_STREAMS
         23   16 0094EBE8 NGENS
         24   17 00787364 NNI_MAX_NR_STEP
         25   18 00787370 PARAMLIST
         26   19 0012C140 PointChi2
         27   1A 0012C9B0 PointNormal
         28   1B 0012CAB0 ReadData
         29   1C 0012CF60 ReadDataSize
         30   1D 0012D020 ReportResults
         31   1E 0012D130 Save_Distance
         32   1F 0012D240 Save_Tree
         33   20 0012D3D0 SetMLDistance
         34   21 0012D430 Simulate_Sequences_q_hat
         35   22 0012D590 StartReport
         36   23 0094EBF0 U_q_hat
         37   24 0094EC70 V_q_hat
         38   25 0012D680 WHT_allocateMemory
         39   26 0012D690 WHT_getResults
         40   27 0012D6F0 WHT_setAlignmentSize
         41   28 0012D700 WHT_setParams
         42   29 0012D810 WHT_setSequenceName
         43   2A 0012D840 WHT_setSequenceSite
         44   2B 0012D870 WHTest_run
         45   2C 0012E050 Write_Tree
         46   2D 00131330 _Z10WHTest_oldR6ParamsR9PhyloTree
         47   2E 00131420 _Z10_my_assertPKcS0_S0_i
         48   2F 001314D0 _Z10computeSucRPiS0_S0_ii
         49   30 00131570 _Z10conditionsRNSt7__cxx114listIdSaIdEEEP2PrPP4Node
         50   31 00131610 _Z10doTimeTreeP9PhyloTree
         51   32 001318D0 _Z10fileExistsNSt7__cxx1112basic_stringIcSt11char_traitsIcESaIcEEE
         52   33 001318F0 _Z10findSubStrRNSt7__cxx1112basic_stringIcSt11char_traitsIcESaIcEEES4_S4_
         53   34 001319C0 _Z10getASCNameB5cxx117ASCType
         54   35 00131A80 _Z10getNNIListP11pllInstance
         55   36 00131B50 _Z10getOptionsiPPc
         56   37 00131B60 _Z10getRateHetN3PML7SeqTypeENSt7__cxx1112basic_stringIcSt11char_traitsIcESaIcEEEdS6_RSt6vectorIS6_SaIS6_EE
         57   38 001327F0 _Z10isAncestorPP4Nodeii
         58   39 00132820 _Z10logDotProdPdS_i
         59   3A 00132CA0 _Z10mergePairsRSt6vectorI10SubsetPairSaIS0_EES3_
         60   3B 00133530 _Z10myErrorMsgNSt7__cxx1112basic_stringIcSt11char_traitsIcESaIcEEEz
         61   3C 00133590 _Z10new_matrixllll
         62   3D 00133730 _Z10new_vectorll
         63   3E 001337A0 _Z10outWarningNSt7__cxx1112basic_stringIcSt11char_traitsIcESaIcEEE
         64   3F 001337B0 _Z10outWarningPKc
         65   40 00133870 _Z10printTreesSt6vectorINSt7__cxx1112basic_stringIcSt11char_traitsIcESaIcEEESaIS5_EER6ParamsS5_
         66   41 00133B30 _Z10processSeqRNSt7__cxx1112basic_stringIcSt11char_traitsIcESaIcEEES5_i
         67   42 00134250 _Z10random_intiPi
         68   43 00134290 _Z10random_intii
         69   44 00134350 _Z10readDoubleNSt7__cxx1112basic_stringIcSt11char_traitsIcESaIcEEERi
         70   45 00134720 _Z10readdoubleRSiNSt7__cxx1112basic_stringIcSt11char_traitsIcESaIcEEE
         71   46 00134790 _Z10reportRateRSoR9PhyloTree
         72   47 00135180 _Z10reportTreeRSt14basic_ofstreamIcSt11char_traitsIcEER6ParamsR9PhyloTreeddd
         73   48 00138110 _Z10sort_indexIdEvPT_S1_Pi
         74   49 00138360 _Z10trimStringRNSt7__cxx1112basic_stringIcSt11char_traitsIcESaIcEEE
         75   4A 00138400 _Z11RunKMeans1DiiPdPiS_S0_
         76   4B 00138B90 _Z11_setupTopolP11pllInstance
         77   4C 00138BC0 _Z11activeLowerP4Node
         78   4D 00138BD0 _Z11activeUpperP4Node
         79   4E 00138BE0 _Z11changeModelNSt7__cxx1112basic_stringIcSt11char_traitsIcESaIcEEERS4_S4_i
         80   4F 001392D0 _Z11checkRootedRP2Pr
         81   50 00139D10 _Z11classKModelNSt7__cxx1112basic_stringIcSt11char_traitsIcESaIcEEEi
         82   51 00139F50 _Z11cloneLeavesP2PrPP4Nodei
         83   52 0013A0F0 _Z11convertDateNSt7__cxx1112basic_stringIcSt11char_traitsIcESaIcEEE
         84   53 0013A990 _Z11convert_intPKc
         85   54 0013ABA0 _Z11convert_intPKcRi
         86   55 0013ACA0 _Z11copyCStringPPKciRSt6vectorINSt7__cxx1112basic_stringIcSt11char_traitsIcESaIcEEESaIS8_EEb
         87   56 0013AE20 _Z11createModelNSt7__cxx1112basic_stringIcSt11char_traitsIcESaIcEEEP11ModelsBlock13StateFreqTypeS4_P9PhyloTree
         88   57 0013E840 _Z11desactiveTCP4Node
         89   58 0013E880 _Z11free_matrixPPdllll
         90   59 0013E8C0 _Z11free_vectorPdll
         91   5A 0013E8D0 _Z11getClassNumNSt7__cxx1112basic_stringIcSt11char_traitsIcESaIcEEE
         92   5B 0013E920 _Z11getOutgroupRSiNSt7__cxx1112basic_stringIcSt11char_traitsIcESaIcEEE
         93   5C 0013EC40 _Z11getPositionPP4NodeNSt7__cxx1112basic_stringIcSt11char_traitsIcESaIcEEEii
         94   5D 0013ED50 _Z11gsl_pow_intdi
         95   5E 0013EDB0 _Z11init_randomibPPi
         96   5F 0013EE80 _Z11isDirectoryPKc
         97   60 0013EEC0 _Z11median_rateP2PrPP4NodeSt6vectorIdSaIdEEPS4_IiSaIiEEbRd
         98   61 0013F4C0 _Z11median_rateP2PrPP4NodeSt6vectorIdSaIdEES6_PS4_IiSaIiEEbRdSA_
         99   62 00140300 _Z11monthToReali
        100   63 00140310 _Z11nFreqParams13StateFreqType
        101   64 00140330 _Z11newvarianceidPiPdii
        102   65 001403E0 _Z11nexusICDateB5cxx11iP2PrPP4NodePdS4_S4_S4_
        103   66 00144DD0 _Z11nodenamecmpPK4NodeS1_
        104   67 00144E30 _Z11pairIntegerii
        105   68 00144E60 _Z11posRateFreeRNSt7__cxx1112basic_stringIcSt11char_traitsIcESaIcEEE
        106   69 00144EE0 _Z11printSiteLhPKcP9PhyloTreePdbS0_
        107   6A 001453A0 _Z11readBracketRSiNSt7__cxx1112basic_stringIcSt11char_traitsIcESaIcEEE
        108   6B 001455E0 _Z11readSupportRSiNSt7__cxx1112basic_stringIcSt11char_traitsIcESaIcEEE
        109   6C 00145A10 _Z11reportModelRSoP9AlignmentP10ModelSubst
        110   6D 00146DE0 _Z11reportModelRSoR9PhyloTree
        111   6E 00147910 _Z11residus_lsdP2PrPP4NodeRdS4_
        112   6F 00147C20 _Z11restoreTaxaR6IQTreePdRSt6vectorIP4NodeSaIS4_EERS2_INSt7__cxx1112basic_stringIcSt11char_traitsIcESaIcEEESaISD_EE
        113   70 00147DC0 _Z11safeGetlineRSiRNSt7__cxx1112basic_stringIcSt11char_traitsIcESaIcEEE
        114   71 00147F20 _Z11separateStrNSt7__cxx1112basic_stringIcSt11char_traitsIcESaIcEEERSt6vectorIS4_SaIS4_EEc
        115   72 00148210 _Z12binomial_cdfiid
        116   73 00148420 _Z12collapseTreeP2PrPP4NodeS3_RPidRb
        117   74 00148D10 _Z12comparePairsRK10SubsetPairS1_
        118   75 00148D20 _Z12compareSplitP5SplitS0_
        119   76 00148D70 _Z12conditionsQPRNSt7__cxx114listIdSaIdEEEP2PrPP4Node
        120   77 00148E70 _Z12convert_timeB5cxx11d
        121   78 00149090 _Z12get2RandNumbiRiS_
        122   79 00149100 _Z12getActiveSetB5cxx11P2PrPP4Node
        123   7A 00149210 _Z12getBranchOutP2PrPP4NodeRNSt7__cxx114listINS4_12basic_stringIcSt11char_traitsIcESaIcEEESaISA_EEERb
        124   7B 00149A80 _Z12getInputDateNSt7__cxx1112basic_stringIcSt11char_traitsIcESaIcEEERi
        125   7C 00149C80 _Z12getInputRealNSt7__cxx1112basic_stringIcSt11char_traitsIcESaIcEEE
        126   7D 00149F60 _Z12getInterfacev
        127   7E 0014AF00 _Z12getSymTestIDRSt6vectorI13SymTestResultSaIS0_EERSt3setIiSt4lessIiESaIiEEb
        128   7F 0014B2E0 _Z12gsl_pow_uintdj
        129   80 0014B320 _Z12kMeansOneDimiiPdS_Pi
        130   81 0014BE80 _Z12newIQTreeMixR6ParamsP9Alignmenti
        131   82 0014C8F0 _Z12pos_polytomyB5cxx11iP2PrPP4Node
        132   83 0014CA70 _Z12pre_polytomyiP2PrPP4Node
        133   84 0014CCB0 _Z12readDateFileNSt7__cxx1112basic_stringIcSt11char_traitsIcESaIcEEERSt3setIS4_St4lessIS4_ESaIS4_EERSt13unordered_mapIS4_S4_St4hashIS4_ESt8equal_toIS4_ESaISt4pairIKS4_S4_EEE
        134   85 0014DE10 _Z12readTaxaSetsPcP10MSetsBlock
        135   86 0014E890 _Z12renameStringRNSt7__cxx1112basic_stringIcSt11char_traitsIcESaIcEEE
        136   87 0014E9E0 _Z12rescaleRatesPdi
        137   88 0014EB80 _Z12runRootstrapR6Params
        138   89 0014F420 _Z12suc_polytomyiiP2PrPP4NodeRPiRPdRNSt7__cxx114listIiSaIiEEE
        139   8A 0014F870 _Z12usage_alisimv
        140   8B 00150AB0 _Z12usage_iqtreePPcb
        141   8C 00157980 _Z13aligned_allocI6Vec4uiEPT_y
        142   8D 00157BD0 _Z13aligned_allocI6Vec8uiEPT_y
        143   8E 00157E20 _Z13aligned_allocISt7complexIdEEPT_y
        144   8F 00158070 _Z13aligned_allocIdEPT_y
        145   90 001582C0 _Z13aligned_allocIfEPT_y
        146   91 00158510 _Z13aligned_allocIiEPT_y
        147   92 00158760 _Z13aligned_allocIjEPT_y
        148   93 001589B0 _Z13aligned_allocItEPT_y
        149   94 00158C00 _Z13appendCStringPPKciRSt6vectorINSt7__cxx1112basic_stringIcSt11char_traitsIcESaIcEEESaIS8_EEb
        150   95 00158E00 _Z13binomial_distjjd
        151   96 00158E90 _Z13checkTopologyP2PrPP4NodeS3_
        152   97 00158F80 _Z13checkZeroDistP9AlignmentPd
        153   98 00159540 _Z13compareDoublePKvS0_
        154   99 00159560 _Z13computeBoundsI5Vec2dEviiyRSt6vectorIySaIyEE
        155   9A 001598D0 _Z13computeBoundsI5Vec4dEviiyRSt6vectorIySaIyEE
        156   9B 00159C40 _Z13computeLambdaNSt7__cxx114listIiSaIiEEEP2PrPP4Node
        157   9C 0015A060 _Z13computeMLDistR6ParamsR6IQTreedd
        158   9D 0015A3B0 _Z13convert_int64PKc
        159   9E 0015A4B0 _Z13convert_int64PKcRi
        160   9F 0015A5B0 _Z13convert_rangePKcRdS1_S1_
        161   A0 0015A960 _Z13convert_rangePKcRiS1_S1_
        162   A1 0015AC70 _Z13convert_rangePKcRiS1_S1_RPc
        163   A2 0015AFD0 _Z13criterionNameB5cxx1118ModelTestCriterion
        164   A3 0015B040 _Z13detectSeqTypePKcRN3PML7SeqTypeE
        165   A4 0015B870 _Z13dotProductExpI5Vec2ddLy4ELb0EEvPT_S2_S2_T0_RS1_
        166   A5 0015C0A0 _Z13dotProductExpI5Vec2ddLy4ELb0EEvPT_S2_T0_RS1_
        167   A6 0015C8D0 _Z13dotProductExpI5Vec4ddLy4ELb0EEvPT_S2_S2_T0_RS1_
        168   A7 0015D000 _Z13dotProductExpI5Vec4ddLy4ELb0EEvPT_S2_T0_RS1_
        169   A8 0015D700 _Z13dotProductExpI5Vec4ddLy4ELb1EEvPT_S2_S2_T0_RS1_
        170   A9 0015DE20 _Z13dotProductExpI5Vec4ddLy4ELb1EEvPT_S2_T0_RS1_
        171   AA 0015E510 _Z13down_polytomyB5cxx11iP2PrPP4Node
        172   AB 0015E790 _Z13evaluateTreesNSt7__cxx1112basic_stringIcSt11char_traitsIcESaIcEEER6ParamsP6IQTreeRSt6vectorI8TreeInfoSaISA_EERS9_IiSaIiEE
        173   AC 0015EA80 _Z13evaluateTreesRSiR6ParamsP6IQTreeRSt6vectorI8TreeInfoSaIS5_EERS4_IiSaIiEE
        174   AD 00162850 _Z13extractSiteIDP9AlignmentPKcRSt6vectorIiSaIiEEbib
        175   AE 00162E50 _Z13finish_randomPi
        176   AF 00162E70 _Z13fixPartitionsP14PhyloSuperTree
        177   B0 00162F30 _Z13getBranStringB5cxx11P7noderec
        178   B1 001630F0 _Z13getFilesInDirPKcRSt6vectorINSt7__cxx1112basic_stringIcSt11char_traitsIcESaIcEEESaIS7_EE
        179   B2 001634E0 _Z13getLineNumberRSi
        180   B3 001635F0 _Z13getModelSubstN3PML7SeqTypeEbNSt7__cxx1112basic_stringIcSt11char_traitsIcESaIcEEES6_PcRSt6vectorIS6_SaIS6_EE
        181   B4 00164FB0 _Z13getStateFreqsN3PML7SeqTypeEPcRSt6vectorINSt7__cxx1112basic_stringIcSt11char_traitsIcESaIcEEESaIS8_EE
        182   B5 00165420 _Z13getSubsetNameB5cxx11P14PhyloSuperTreeRSt3setIiSt4lessIiESaIiEE
        183   B6 00165550 _Z13getTreeMixNumR6Params
        184   B7 00165750 _Z13imposeMinBlenRSoP2PrPP4Nodedb
        185   B8 00166750 _Z13isTreeMixtureR6Params
        186   B9 00166780 _Z13lastCharacterNSt7__cxx1112basic_stringIcSt11char_traitsIcESaIcEEEi
        187   BA 0094ECF0 _Z13model_ECMrestB5cxx11
        188   BB 001667C0 _Z13overwriteFilePc
        189   BC 00166960 _Z13parseAreaNamePcRSt3setINSt7__cxx1112basic_stringIcSt11char_traitsIcESaIcEEESt4lessIS6_ESaIS6_EE
        190   BD 00166E20 _Z13parseIndelDisNSt7__cxx1112basic_stringIcSt11char_traitsIcESaIcEEES4_
        191   BE 00169EB0 _Z13performAUTestR6ParamsP9PhyloTreePdRSt6vectorI8TreeInfoSaIS5_EE
        192   BF 0016B4E0 _Z13printMiscInfoR6ParamsR6IQTreePd
        193   C0 0016E550 _Z13productVecMatI5Vec2dS0_Lb0EEvPT_PT0_S2_RS1_y
        194   C1 0016EBC0 _Z13productVecMatI5Vec2dS0_Lb0EEvPT_PT0_S2_y
        195   C2 0016F0D0 _Z13productVecMatI5Vec2ddLb0EEvPT_PT0_S2_RS1_y
        196   C3 0016F700 _Z13productVecMatI5Vec2ddLb0EEvPT_PT0_S2_y
        197   C4 0016FBE0 _Z13productVecMatI5Vec4dS0_Lb0EEvPT_PT0_S2_RS1_y
        198   C5 00170250 _Z13productVecMatI5Vec4dS0_Lb0EEvPT_PT0_S2_y
        199   C6 00170780 _Z13productVecMatI5Vec4dS0_Lb1EEvPT_PT0_S2_RS1_y
        200   C7 00170D90 _Z13productVecMatI5Vec4dS0_Lb1EEvPT_PT0_S2_y
        201   C8 00171280 _Z13productVecMatI5Vec4ddLb0EEvPT_PT0_S2_RS1_y
        202   C9 001718D0 _Z13productVecMatI5Vec4ddLb0EEvPT_PT0_S2_y
        203   CA 00171E10 _Z13productVecMatI5Vec4ddLb1EEvPT_PT0_S2_RS1_y
        204   CB 00172400 _Z13productVecMatI5Vec4ddLb1EEvPT_PT0_S2_y
        205   CC 001728D0 _Z13quicksort_nniP10pllNNIMoveii
        206   CD 00172A70 _Z13random_doublePi
        207   CE 00172A90 _Z13readInputDatePN3lsd17InputOutputStreamEP2PrRPP4NodeRb
        208   CF 00177DD0 _Z13readIntVectorPKciiRSt6vectorIiSaIiEE
        209   D0 001781E0 _Z13readWholeDateRSiP2PrRiRdS3_S3_S3_S3_S3_S2_
        210   D1 00178920 _Z13reportCreditsRSt14basic_ofstreamIcSt11char_traitsIcEE
        211   D2 00179080 _Z13shift_node_idRP2PrRPP4NodeRPi
        212   D3 00179FB0 _Z13writeOutgroupRSoPKc
        213   D4 0017A240 _Z14activeMarkLeafP4Node
        214   D5 0017A260 _Z14adjustDateToYMRP4Dateiiii
        215   D6 0017A480 _Z14computeAdapterP9AlignmentS0_Ri
        216   D7 0017AA20 _Z14convert_doublePKc
        217   D8 0017AB50 _Z14convert_doublePKcRi
        218   D9 0017AC80 _Z14desactiveLimitP4Node
        219   DA 0017ACE0 _Z14estBestLoglImpP10SearchInfo
        220   DB 0017AD60 _Z14evalNNIForBranP11pllInstanceP13partitionListP7noderecR10SearchInfo
        221   DC 0017C040 _Z14firstCharacterNSt7__cxx1112basic_stringIcSt11char_traitsIcESaIcEEEi
        222   DD 0017C080 _Z14freqTypeStringB5cxx1113StateFreqTypeN3PML7SeqTypeEb
        223   DE 0017C3A0 _Z14getCommandLineiPPc
        224   DF 0017F740 _Z14getInputStringNSt7__cxx1112basic_stringIcSt11char_traitsIcESaIcEEE
        225   E0 0017F800 _Z14getMorphStatesRSt6vectorINSt7__cxx1112basic_stringIcSt11char_traitsIcESaIcEEESaIS5_EE
        226   E1 0017F8B0 _Z14getNeiBranchesRSt6vectorIP8NeighborSaIS1_EERS_IP4NodeSaIS6_EES9_iS9_S9_
        227   E2 001801E0 _Z14getSeqTypeNameB5cxx11N3PML7SeqTypeE
        228   E3 00180330 _Z14initConstraintP2PrPP4Node
        229   E4 001806B0 _Z14isMixtureModelP11ModelsBlockRNSt7__cxx1112basic_stringIcSt11char_traitsIcESaIcEEE
        230   E5 0094ED10 _Z14model_ECMrest1B5cxx11
        231   E6 00180900 _Z14monthDayToRealii
        232   E7 00180AE0 _Z14pllDoNNISearchP11pllInstanceP13partitionListR10SearchInfo
        233   E8 00182050 _Z14pllEvalAllNNIsP11pllInstanceP13partitionListR10SearchInfo
        234   E9 00182100 _Z14pllPerturbTreeP11pllInstanceP13partitionListRSt6vectorI10pllNNIMoveSaIS4_EE
        235   EA 0094ED30 _Z14pllTreeCounterB5cxx11
        236   EB 00182310 _Z14plotlmpointepsP6_iobufdd
        237   EC 00182350 _Z14plotlmpointsvgP6_iobufdd
        238   ED 001823A0 _Z14printHMMResultPKcP9PhyloTreei
        239   EE 001823E0 _Z14printInterfaceRSoP2Pr
        240   EF 001831C0 _Z14printSiteRatesR6IQTreePKcb
        241   F0 00183AA0 _Z14random_int_lavdi
        242   F1 00183DC0 _Z14readStringFilePKciRSt6vectorINSt7__cxx1112basic_stringIcSt11char_traitsIcESaIcEEESaIS7_EE
        243   F2 00184110 _Z14readWeightFileR6ParamsiRdRSt6vectorINSt7__cxx1112basic_stringIcSt11char_traitsIcESaIcEEESaIS8_EERS2_IdSaIdEE
        244   F3 00184800 _Z14remove_one_tipP2PrPP4NodeiRPi
        245   F4 00184F80 _Z14runModelFinderR6ParamsR6IQTreeR15ModelCheckpointRNSt7__cxx1112basic_stringIcSt11char_traitsIcESaIcEEESB_
        246   F5 00186E00 _Z14sampleNoRepeatSt6vectorIiSaIiEEii
        247   F6 00187020 _Z14splitweightcmpPK5SplitS1_
        248   F7 00187030 _Z15adjustDateToYMDRP4Dateiiii
        249   F8 00187380 _Z15assignRecursiveiPP4Nodei
        250   F9 001874A0 _Z15checkCharInFilePcc
        251   FA 00187830 _Z15computeVarianceP2PrPP4Node
        252   FB 001879E0 _Z15convert_int_vecPKcRSt6vectorIiSaIiEE
        253   FC 00187C20 _Z15createAlignmentNSt7__cxx1112basic_stringIcSt11char_traitsIcESaIcEEEPKc9InputTypeS4_
        254   FD 001881D0 _Z15detectInputFilePKc
        255   FE 001885C0 _Z15exportAliSimCMDR6ParamsR6IQTreeRSo
        256   FF 00189120 _Z15freqsFromParamsPdS_13StateFreqType
        257  100 001895D0 _Z15generateSubsetsIjEvRSt6vectorIT_SaIS1_EERS0_IS3_SaIS3_EE
        258  101 001898C0 _Z15getDNAModelInfoNSt7__cxx1112basic_stringIcSt11char_traitsIcESaIcEEERS4_S5_R13StateFreqType
        259  102 0018A470 _Z15getInputIntegerNSt7__cxx1112basic_stringIcSt11char_traitsIcESaIcEEE
        260  103 0018A730 _Z15getNextModelPosRNSt7__cxx1112basic_stringIcSt11char_traitsIcESaIcEEEy
        261  104 0018A790 _Z15mergePartitionsP14PhyloSuperTreeRSt6vectorISt3setIiSt4lessIiESaIiEESaIS6_EERS1_INSt7__cxx1112basic_stringIcSt11char_traitsIcESaIcEEESaISF_EE
        262  105 0094ED68 _Z15model_ECMunrestB5cxx11
        263  106 0018B400 _Z15optimizeConTreeR6ParamsP6IQTree
        264  107 0018B900 _Z15outliers_rootedP2PrPP4NodePSt6vectorIiSaIiEES4_IdSaIdEES9_bbRdRb
        265  108 0018C550 _Z15paramsFromFreqsPdS_13StateFreqType
        266  109 0018C6B0 _Z15pllDoRandomNNIsP11pllInstanceP13partitionListi
        267  10A 0018D520 _Z15pllGetAllInBranP11pllInstanceRSt6vectorIP7noderecSaIS3_EE
        268  10B 0018D580 _Z15quickStartGuidev
        269  10C 0018D830 _Z15quicksort_indexIdEvPT_Piii
        270  10D 0018D920 _Z15random_int_zipfdi
        271  10E 0018E040 _Z15readDateTaxNameRSt3setINSt7__cxx1112basic_stringIcSt11char_traitsIcESaIcEEESt4lessIS5_ESaIS5_EERSt13unordered_mapIS5_S5_St4hashIS5_ESt8equal_toIS5_ESaISt4pairIKS5_S5_EEE
        272  10F 0018E2F0 _Z15readGroupNewickPcP10MSetsBlock
        273  110 0018EF50 _Z15realToYearMonthB5cxx11d
        274  111 0018F1F0 _Z15reportAlignmentRSt14basic_ofstreamIcSt11char_traitsIcEER9Alignmenti
        275  112 0018F7B0 _Z15reportNexusFileRSoP10ModelSubst
        276  113 0018FDA0 _Z15residus_lsd_rttP2PrPP4NodeRdS4_
        277  114 0018FFB0 _Z15rooted2unrootedRP2PrPP4Node
        278  115 001900F0 _Z15splitnumtaxacmpPK5SplitS1_
        279  116 00190120 _Z15unrooted2rootedRP2PrPP4Node
        280  117 001903B0 _Z15with_constraintP2PrRPP4NodeNSt7__cxx114listIiSaIiEEERNS6_IdSaIdEEE
        281  118 00191E10 _Z16comparePartitionRKSt4pairIidES2_
        282  119 00191E20 _Z16computeObjectiveP2PrPP4Node
        283  11A 00191EB0 _Z16convertAlignmentR6ParamsP6IQTree
        284  11B 001927A0 _Z16doParsMultiStateR6Params
        285  11C 00192AC0 _Z16extractModelInfoRNSt7__cxx1112basic_stringIcSt11char_traitsIcESaIcEEER15ModelCheckpointS7_
        286  11D 00192F30 _Z16extrait_outgroupPN3lsd17InputOutputStreamEP2Prb
        287  11E 00193A20 _Z16findCloseBracketRNSt7__cxx1112basic_stringIcSt11char_traitsIcESaIcEEEy
        288  11F 00193A80 _Z16findClosestPairsP14SuperAlignmentRSt6vectorIdSaIdEERS1_ISt3setIiSt4lessIiESaIiEESaIS9_EEdRS1_I10SubsetPairSaISD_EE
        289  120 001941E0 _Z16findFirstFarLeafP4NodeS0_
        290  121 00194240 _Z16getAffectedNodesP11pllInstanceP7noderec
        291  122 00194A10 _Z16getInputFileNameNSt7__cxx1112basic_stringIcSt11char_traitsIcESaIcEEE
        292  123 00194E50 _Z16gsl_ran_binomialdjPi
        293  124 001958A0 _Z16initializeParamsR6ParamsR6IQTree
        294  125 00195AA0 _Z16isAffectedBranchP7noderecR10SearchInfo
        295  126 00195B10 _Z16isOptionActivateP2Prc
        296  127 00195B30 _Z16mirroredHeapsortIdiEvPT_yyPT0_
        297  128 00195CA0 _Z16mirroredHeapsortIfiEvPT_yyPT0_
        298  129 0094ED88 _Z16model_ECMunrest1B5cxx11
        299  12A 00195E10 _Z16printPartitionLhPKcP9PhyloTreePdbS0_
        300  12B 00196660 _Z16printString2FileNSt7__cxx1112basic_stringIcSt11char_traitsIcESaIcEEES4_
        301  12C 001967A0 _Z16print_stacktraceRSoj
        302  12D 001967B0 _Z16random_int_nebinid
        303  12E 00196860 _Z16readCommaBracketRSiNSt7__cxx1112basic_stringIcSt11char_traitsIcESaIcEEERS5_
        304  12F 00196D90 _Z16readInitAreaFileR6ParamsiRSt6vectorINSt7__cxx1112basic_stringIcSt11char_traitsIcESaIcEEESaIS7_EE
        305  130 00196E80 _Z16readInitTaxaFileR6ParamsiRSt6vectorINSt7__cxx1112basic_stringIcSt11char_traitsIcESaIcEEESaIS7_EE
        306  131 00196F70 _Z16remove_ne_lambdaRNSt7__cxx114listIdSaIdEEERNS0_IiSaIiEEERi
        307  132 00196FC0 _Z16replaceModelInfoRNSt7__cxx1112basic_stringIcSt11char_traitsIcESaIcEEER15ModelCheckpointS7_
        308  133 001972A0 _Z16reportReferencesR6ParamsRSt14basic_ofstreamIcSt11char_traitsIcEE
        309  134 001988C0 _Z16runPhyloAnalysisR6ParamsP10Checkpoint
        310  135 00198940 _Z16runPhyloAnalysisR6ParamsP10CheckpointRP6IQTreeRP9AlignmentbP15ModelCheckpoint
        311  136 0019A490 _Z16starting_pointQPP2PrPP4NodeRNSt7__cxx114listIiSaIiEEEi
        312  137 0019AD50 _Z16unrooted2rootedSRP2PrPP4Nodei
        313  138 0019AFB0 _Z17calculateOutliersRP2PrRPP4NodeRdb
        314  139 0019E5F0 _Z17comparePLLNNIMoveRK10pllNNIMoveS1_
        315  13A 0019E610 _Z17computeFastMLTreeR6ParamsP9AlignmentR15ModelCheckpointP11ModelsBlockRiiNSt7__cxx1112basic_stringIcSt11char_traitsIcESaIcEEE
        316  13B 0019FF60 _Z17computePValueSMaxRSt6vectorI13SymTestResultSaIS0_EEii
        317  13C 001A0020 _Z17desactiveMarkLeafP4Node
        318  13D 001A0040 _Z17detectSeqTypeNameNSt7__cxx1112basic_stringIcSt11char_traitsIcESaIcEEE
        319  13E 001A0130 _Z17dotProductDualVecI5Vec2dS0_Lb0EEvPT0_PT_S2_S4_RS3_y
        320  13F 001A0720 _Z17dotProductDualVecI5Vec2ddLb0EEvPT0_PT_S2_S4_RS3_y
        321  140 001A0CA0 _Z17dotProductDualVecI5Vec4dS0_Lb0EEvPT0_PT_S2_S4_RS3_y
        322  141 001A1250 _Z17dotProductDualVecI5Vec4dS0_Lb1EEvPT0_PT_S2_S4_RS3_y
        323  142 001A1780 _Z17dotProductDualVecI5Vec4ddLb0EEvPT0_PT_S2_S4_RS3_y
        324  143 001A1D00 _Z17dotProductDualVecI5Vec4ddLb1EEvPT0_PT_S2_S4_RS3_y
        325  144 001A2200 _Z17evalNNIForSubtreeP11pllInstanceP13partitionListP7noderecR10SearchInfo
        326  145 001A2320 _Z17forceFreqsConformPd13StateFreqType
        327  146 001A2740 _Z17getInternalNodeIdP2PrPP4NodeNSt7__cxx1112basic_stringIcSt11char_traitsIcESaIcEEE
        328  147 001A2DE0 _Z17initialize_statusRP2PrRPP4Node
        329  148 001A2EA0 _Z17optimiseQMixModelR6ParamsRP6IQTreeR15ModelCheckpoint
        330  149 001A39D0 _Z17outliers_unrootedRP2PrRPP4NodeRd
        331  14A 001A57F0 _Z17pllTree2StringRECPcP11pllInstanceP13partitionListP7nodereciiiiiiii
        332  14B 001A5CD0 _Z17preorder_polytomyP2PrPP4Node
        333  14C 001A5D20 _Z17printAnalysisInfoiR6IQTreeR6Params
        334  14D 001A6A30 _Z17printMarginalProbPKcP9PhyloTree
        335  14E 001A6B10 _Z17printOutfilesInfoR6ParamsR6IQTree
        336  14F 001A89D0 _Z17random_resamplingiRSt6vectorIiSaIiEEPi
        337  150 001A8D30 _Z17readAreasBoundaryPcP10MSetsBlockPd
        338  151 001A9510 _Z17readPartitionFileRSiP2Pr
        339  152 001AA5F0 _Z17reroot_rootedtreeRdiP2PrPP4Node
        340  153 001AB1B0 _Z17reroot_rootedtreeRdiiiP2PrPP4NodeRS4_
        341  154 001ABCD0 _Z17reroot_rootedtreeRdiiiP2PrPP4NodeRS4_RPiS7_
        342  155 001AC8C0 _Z17reroot_rootedtreeiP2PrPP4NodeRS3_
        343  156 001ACB10 _Z17runModelSelectionR6ParamsR6IQTreeR15ModelCheckpointibNSt7__cxx1112basic_stringIcSt11char_traitsIcESaIcEEERSA_SB_i
        344  157 001B2D20 _Z17splitLongBranchesP2PrPP4Noded
        345  158 001B3D20 _Z18adjustNodeDateToYMRP4Nodeiiii
        346  159 001B3F40 _Z18cloneInternalNodesP2PrPP4NodeRS3_i
        347  15A 001B41F0 _Z18computeCorrelationRSt6vectorIiSaIiEES2_
        348  15B 001B46F0 _Z18computeInitialDistR6ParamsR6IQTree
        349  15C 001B48E0 _Z18computeNewVarianceP2PrPP4Node
        350  15D 001B4A40 _Z18convertIntToStringB5cxx11i
        351  15E 001B4B90 _Z18convert_double_vecPKcRSt6vectorIdSaIdEEc
        352  15F 001B4E50 _Z18convert_string_vecPKcRSt6vectorINSt7__cxx1112basic_stringIcSt11char_traitsIcESaIcEEESaIS7_EEc
        353  160 001B50B0 _Z18countDistinctTreesP11pllInstanceP13partitionList
        354  161 001B5420 _Z18countDistinctTreesPKcbP6IQTreeRSt6vectorIiSaIiEEb
        355  162 001B5610 _Z18countDistinctTreesRSibP6IQTreeRSt6vectorIiSaIiEEb
        356  163 001B5DF0 _Z18doKmeansClusteringR6ParamsP14PhyloSuperTreeiRSt6vectorIdSaIdEER15ModelCheckpointP11ModelsBlockiRS3_ISt3setIiSt4lessIiESaIiEESaISF_EERS3_INSt7__cxx1112basic_stringIcSt11char_traitsIcESaIcEEESaISO_EE
        357  164 001B70C0 _Z18getSubsetAlnLengthP14PhyloSuperTreeRSt3setIiSt4lessIiESaIiEE
        358  165 001B71B0 _Z18getUsualModelSubstB5cxx11N3PML7SeqTypeE
        359  166 001B7580 _Z18gsl_cdf_gaussian_Pdd
        360  167 001B7590 _Z18gsl_cdf_gaussian_Qdd
        361  168 001B75A0 _Z18pllSaveCurrentTreeP11pllInstanceP13partitionListP7noderec
        362  169 001B7C50 _Z18posRateHeterotachyNSt7__cxx1112basic_stringIcSt11char_traitsIcESaIcEEE
        363  16A 001B7CD0 _Z18postorder_polytomyB5cxx11P2PrPP4Node
        364  16B 001B7D20 _Z18printSiteStateFreqPKcP9Alignment
        365  16C 001B8230 _Z18printSiteStateFreqPKcP9PhyloTreePd
        366  16D 001B8780 _Z18readDateFromStringPKcRd
        367  16E 001B8E60 _Z18read_distributionsPc
        368  16F 001B9B40 _Z18realToYearMonthDayB5cxx11d
        369  170 001B9E90 _Z18reportRate_TreeMixRSoR9PhyloTree
        370  171 001B9FC0 _Z18testPartitionModelR6ParamsP14PhyloSuperTreeR15ModelCheckpointP11ModelsBlocki
        371  172 001BF8E0 _Z18without_constraintP2PrPP4Node
        372  173 001C0100 _Z19adjustNodeDateToYMDRP4Nodeiiii
        373  174 001C0450 _Z19calculateMultiplierP2PrPP4Node
        374  175 001C0680 _Z19collapseTreeReOrderP2PrPP4NodeS0_S3_RPi
        375  176 001C08E0 _Z19computeSuc_polytomyP2PrPP4Node
        376  177 001C0C20 _Z19getAffectedBranchesB5cxx11P11pllInstanceP7noderec
        377  178 001C11A0 _Z19getOutgroupFileNameNSt7__cxx1112basic_stringIcSt11char_traitsIcESaIcEEE
        378  179 001C1500 _Z19gsl_cdf_ugaussian_Pd
        379  17A 001C1880 _Z19gsl_cdf_ugaussian_Qd
        380  17B 001C1C20 _Z19gsl_ran_multinomialyjPKdPjPi
        381  17C 001C1D60 _Z19hypergeometric_distjjjj
        382  17D 001C1E10 _Z19myPartitionsDestroyP13partitionList
        383  17E 001C1E70 _Z19pllResizeUFBootDatav
        384  17F 001C1F40 _Z19printSiteLhCategoryPKcP9PhyloTree12SiteLoglType
        385  180 001C2880 _Z19reduceTree_polytomyP2PrPP4NodeRPiRPNSt7__cxx114listIiSaIiEEERPdSB_
        386  181 001C2BA0 _Z19reportPhyloAnalysisR6ParamsR6IQTreeR15ModelCheckpoint
        387  182 001C85E0 _Z19starting_pointLowerP2PrPP4NodeRNSt7__cxx114listIiSaIiEEE
        388  183 001C8680 _Z19starting_pointUpperP2PrPP4NodeRNSt7__cxx114listIiSaIiEEE
        389  184 001C8720 _Z20computeConsensusTreePKciiddS0_S0_S0_P6Params
        390  185 001C90C0 _Z20computeIC_bootstrapsPN3lsd17InputOutputStreamEP2PrPP4NodeRPdS8_S8_S8_S8_S8_RdS9_S8_S8_ib
        391  186 001CB520 _Z20convertInt64ToStringB5cxx11x
        392  187 001CB670 _Z20divideModelNSiteRateNSt7__cxx1112basic_stringIcSt11char_traitsIcESaIcEEERS4_S5_
        393  188 001CBE10 _Z20getInputPositiveRealNSt7__cxx1112basic_stringIcSt11char_traitsIcESaIcEEE
        394  189 001CC1C0 _Z20getOutputNameWithExtRK9InputTypeRKNSt7__cxx1112basic_stringIcSt11char_traitsIcESaIcEEE
        395  18A 001CC470 _Z20gsl_ran_gaussian_pdfdd
        396  18B 001CC4C0 _Z20parseStateFreqDigitsNSt7__cxx1112basic_stringIcSt11char_traitsIcESaIcEEE
        397  18C 001CCAD0 _Z20pllOptimizeOneBranchP11pllInstanceP13partitionListP7noderec
        398  18D 001CCDD0 _Z20printFinalSearchInfoR6ParamsR6IQTreedd
        399  18E 001CD820 _Z20printTreeTestResultsRSt6vectorI8TreeInfoSaIS0_EERS_IiSaIiEES6_NSt7__cxx1112basic_stringIcSt11char_traitsIcESaIcEEE
        400  18F 001CDA90 _Z20printTreeTestResultsRSt6vectorI8TreeInfoSaIS0_EERS_IiSaIiEES6_RSoNSt7__cxx1112basic_stringIcSt11char_traitsIcESaIcEEE
        401  190 001CE4E0 _Z20random_int_geometricd
        402  191 001CE560 _Z20readModelsDefinitionR6Params
        403  192 001CF5B0 _Z20remove_outlier_nodesRP2PrRPP4Node
        404  193 001CF690 _Z20reportModelSelectionRSt14basic_ofstreamIcSt11char_traitsIcEER6ParamsP15ModelCheckpointP9PhyloTree
        405  194 001D02B0 _Z20runStandardBootstrapR6ParamsP9AlignmentP6IQTree
        406  195 001D4470 _Z20setBoundsForFreqTypePdS_Pbd13StateFreqType
        407  196 001D45F0 _Z20setOptionsWithLetterP2Prc
        408  197 001D68A0 _Z20tryGeneratingBlengthR6Params
        409  198 001D6A60 _Z21assignRateGroupToTreeP2PrPP4Node
        410  199 001D73C0 _Z21calculate_tree_heightP2PrRPP4Node
        411  19A 001D7720 _Z21computeDistanceMatrixIciEd16LEAST_SQUARE_VART_PKS1_iidPKT0_bdPdS7_
        412  19B 001D79D0 _Z21convertDoubleToStringB5cxx11d
        413  19C 001D7B30 _Z21convertQuartet2StringB5cxx11P7noderec
        414  19D 001D8260 _Z21countPhysicalCPUCoresv
        415  19E 001D8270 _Z21doWeightedLeastSquareiPdS_S_S_RdS0_S0_
        416  19F 001D8480 _Z21getNonConflictNNIListP11pllInstance
        417  1A0 001D8550 _Z21gsl_cdf_gaussian_Pinvdd
        418  1A1 001D8570 _Z21gsl_cdf_gaussian_Qinvdd
        419  1A2 001D8590 _Z21gsl_ran_ugaussian_pdfd
        420  1A3 001D85C0 _Z21median_branch_lengthsP2PrPP4Node
        421  1A4 0094EDA8 _Z21model_ECM_Schneider05B5cxx11
        422  1A5 001D8890 _Z21normalize_frequenciesPdidb
        423  1A6 001D8B30 _Z21pre_polytomy_withTipsiP2PrPP4Node
        424  1A7 001D8D70 _Z21printSiteProbCategoryPKcP9PhyloTree12SiteLoglType
        425  1A8 001D96B0 _Z21read_double_from_lineNSt7__cxx1112basic_stringIcSt11char_traitsIcESaIcEEE
        426  1A9 001D98F0 _Z21reportLinkSubstMatrixRSoP9AlignmentP10ModelSubst
        427  1AA 001DA480 _Z21runTreeReconstructionR6ParamsRP6IQTree
        428  1AB 001DF7A0 _Z21splitExternalBranchesP2PrPP4Node
        429  1AC 001DFD70 _Z22BreakPipeSeparatedListRK9NxsString
        430  1AD 001DFEA0 _Z22assignBootstrapSupportPKciiS0_bS0_S0_R8MExtTreeS0_P6Params
        431  1AE 001E0D90 _Z22assignBranchSupportNewR6Params
        432  1AF 001E7CE0 _Z22computePValueChiSquaredi
        433  1B0 001E8180 _Z22gsl_cdf_ugaussian_Pinvd
        434  1B1 001E8410 _Z22gsl_cdf_ugaussian_Qinvd
        435  1B2 001E86F0 _Z22initConstraintReRootedP2PrPP4Nodeii
        436  1B3 001E8A70 _Z22random_int_multinomialiPdPi
        437  1B4 001E8AF0 _Z22random_int_multinomialiPdiPi
        438  1B5 001E8B50 _Z22showDoubleArrayContentNSt7__cxx1112basic_stringIcSt11char_traitsIcESaIcEEEiPd
        439  1B6 001E8C40 _Z22with_constraint_lambdadRP2PrRPP4NodeNSt7__cxx114listIiSaIiEEERNS7_IdSaIdEEE
        440  1B7 001EBB80 _Z23calculateRoot2DatedNodeP2PrPP4NodeRSt6vectorIdSaIdEE
        441  1B8 001EBE10 _Z23calculateRoot2DatedNodeP2PrPP4NodeRSt6vectorIdSaIdEES7_
        442  1B9 001EC410 _Z23calculateRoot2DatedNodeP2PrPP4NodeRSt6vectorIdSaIdEES7_S7_
        443  1BA 001ECCD0 _Z23computeConsensusNetworkPKciididS0_S0_S0_
        444  1BB 001ED090 _Z23computeInformationScoredii18ModelTestCriterion
        445  1BC 001ED140 _Z23getDataBlockMorphStatesP18NxsCharactersBlock
        446  1BD 001ED7A0 _Z23getInputNonNegativeRealNSt7__cxx1112basic_stringIcSt11char_traitsIcESaIcEEE
        447  1BE 001EDB50 _Z23getPositiveInputIntegerNSt7__cxx1112basic_stringIcSt11char_traitsIcESaIcEEE
        448  1BF 001EDCD0 _Z23parseStateFreqFromPlusFNSt7__cxx1112basic_stringIcSt11char_traitsIcESaIcEEE
        449  1C0 001EDF10 _Z23printAncestralSequencesPKcP9PhyloTree16AncestralSeqType
        450  1C1 001EEDF0 _Z23startTreeReconstructionR6ParamsRP6IQTreeR15ModelCheckpoint
        451  1C2 001EF200 _Z23transferModelParametersP14PhyloSuperTreeR15ModelCheckpointS2_RSt3setIiSt4lessIiESaIiEES8_
        452  1C3 001F17D0 _Z24assignRateGroupToSubTreeP7SubtreeP2PrPP4Nodei
        453  1C4 001F1E00 _Z24binomial_coefficient_logjj
        454  1C5 001F2170 _Z24computeFeuilles_polytomyNSt7__cxx114listIiSaIiEEEP2PrPP4Node
        455  1C6 001F2A60 _Z24computeInformationScoresdiiRdS_S_
        456  1C7 001F2B00 _Z24optimiseQMixModel_methodR6ParamsRP6IQTreeR15ModelCheckpointRNSt7__cxx1112basic_stringIcSt11char_traitsIcESaIcEEE
        457  1C8 001F4B30 _Z24runUnlinkedPhyloAnalysisR6ParamsP10Checkpoint
        458  1C9 001F5220 _Z24updateBranchLengthForNNIP11pllInstanceP13partitionListR10pllNNIMove
        459  1CA 001F5350 _Z25SetToShortestAbbreviationRSt6vectorI9NxsStringSaIS0_EEb
        460  1CB 001F5A10 _Z25computeSiteFrequencyModelR6ParamsP9Alignment
        461  1CC 001F61E0 _Z25isStandardOutputATerminalv
        462  1CD 001F6210 _Z25pllGetAllInBranForSubtreeP11pllInstanceP7noderecRSt6vectorIS2_SaIS2_EE
        463  1CE 001F6360 _Z25reportSubstitutionProcessRSoR6ParamsR6IQTree
        464  1CF 001F6CA0 _Z25without_constraint_lambdadRP2PrRPP4NodeNSt7__cxx114listIiSaIiEEERNS7_IdSaIdEEE
        465  1D0 001F8390 _Z26calculateMultiplier_lambdaiidRP2PrRPP4NodePb
        466  1D1 001F8630 _Z26computeObjectiveMultiRatesP2PrPP4Node
        467  1D2 001F86D0 _Z26computeObjectiveMultiRatesP2PrPP4NodePdS4_
        468  1D3 001F8770 _Z26exhaustiveSearchGAMMAInvarR6ParamsR6IQTree
        469  1D4 001F8FD0 _Z26getInputNonNegativeRealOrENSt7__cxx1112basic_stringIcSt11char_traitsIcESaIcEEE
        470  1D5 001F9330 _Z26preorder_polytomy_withTipsP2PrPP4Node
        471  1D6 001F9380 _Z26random_int_geometric_from0d
        472  1D7 001F9400 _Z26with_constraint_active_setP2PrRPP4Nodei
        473  1D8 001FA010 _Z26with_constraint_active_setbP2PrPP4Node
        474  1D9 001FA0E0 _Z26with_constraint_multiratesP2PrPP4Nodeb
        475  1DA 001FAD60 _Z27Statistics_To_Probabilitiesd
        476  1DB 001FB260 _Z27computeStateFreqFromQMatrixPdS_i
        477  1DC 001FBAF0 _Z27computeVarianceEstimateRootP2PrPP4Noded
        478  1DD 001FBCA0 _Z27convertSeqTypeToSeqTypeNameB5cxx11N3PML7SeqTypeE
        479  1DE 001FBD70 _Z27pllComputePatternLikelihoodP11pllInstancePdS1_
        480  1DF 001FBE20 _Z27runApproximateBranchLengthsR6ParamsR6IQTree
        481  1E0 001FCE70 _Z28checkAllConstraintConsistentP2PrPP4Node
        482  1E1 001FD180 _Z28computeObjectiveEstimateRootiidP2PrPP4Node
        483  1E2 001FD270 _Z28searchGAMMAInvarByRestartingR6IQTree
        484  1E3 001FDC40 _Z29GetVecOfPossibleAbbrevMatchesRK9NxsStringRKSt6vectorIS_SaIS_EE
        485  1E4 001FDDA0 _Z29collapseUnInformativeBranchesRP2PrRPP4Nodeb
        486  1E5 001FE500 _Z29runMultipleTreeReconstructionR6ParamsP9AlignmentP6IQTree
        487  1E6 00201060 _Z29transferModelFinderParametersP6IQTreeP10Checkpoint
        488  1E7 00202130 _Z29without_constraint_active_setP2PrPP4Nodei
        489  1E8 00202CF0 _Z29without_constraint_active_setbP2PrPP4Node
        490  1E9 00202DB0 _Z29without_constraint_multiratesP2PrPP4Nodeb
        491  1EA 00203880 _Z2tcP4Node
        492  1EB 002038B0 _Z30computeNewVarianceEstimateRootP2PrPP4Node
        493  1EC 00203A60 _Z31optimiseQMixModel_method_updateR6ParamsRP6IQTreeR15ModelCheckpointRNSt7__cxx1112basic_stringIcSt11char_traitsIcESaIcEEE
        494  1ED 00205120 _Z31random_number_from_distributionNSt7__cxx1112basic_stringIcSt11char_traitsIcESaIcEEEb
        495  1EE 00205A30 _Z32convert_double_with_distributionPKcRibc
        496  1EF 00205C60 _Z32convert_double_with_distributionPKcb
        497  1F0 00205E60 _Z32normalize_frequencies_from_indexPdii
        498  1F1 00206060 _Z33with_constraint_active_set_lambdabdRP2PrRPP4Node
        499  1F2 00206140 _Z33with_constraint_active_set_lambdadRP2PrRPP4Nodei
        500  1F3 00206C00 _Z34computeLoglFromUserInputGAMMAInvarR6ParamsR6IQTree
        501  1F4 00207C40 _Z36estimate_root_with_constraint_rootedRP2PrRPP4Node
        502  1F5 00208C20 _Z36without_constraint_active_set_lambdabdRP2PrRPP4Node
        503  1F6 00208D00 _Z36without_constraint_active_set_lambdadRP2PrRPP4Nodei
        504  1F7 00209790 _Z37convert_double_vec_with_distributionsPKcRSt6vectorIdSaIdEEbc
        505  1F8 00209B20 _Z37random_frequencies_from_distributionsPdiNSt7__cxx1112basic_stringIcSt11char_traitsIcESaIcEEE
        506  1F9 0020A7C0 _Z38random_double_exponential_distributiondPi
        507  1FA 0020A840 _Z39convert_double_array_with_distributionsNSt7__cxx1112basic_stringIcSt11char_traitsIcESaIcEEEPdibc
        508  1FB 0020B340 _Z39estimate_root_without_constraint_rootedRP2PrRPP4Node
        509  1FC 0020C370 _Z3bmviPdS_PiS_S_S0_
        510  1FD 0020C860 _Z3rttP2PrPP4Node
        511  1FE 0020C8F0 _Z41estimate_root_with_constraint_fast_rootedRP2PrRPP4Node
        512  1FF 0020DED0 _Z42estimate_root_with_constraint_local_rootedRP2PrRPP4Node
        513  200 0020F260 _Z44with_constraint_active_set_lambda_multiratesbdRP2PrRPP4Nodeb
        514  201 0020FC40 _Z45estimate_root_without_constraint_local_rootedRP2PrRPP4Node
        515  202 00211070 _Z47convert_double_with_distribution_and_upperboundNSt7__cxx1112basic_stringIcSt11char_traitsIcESaIcEEEdb
        516  203 00211610 _Z47random_number_from_distribution_with_upperboundNSt7__cxx1112basic_stringIcSt11char_traitsIcESaIcEEEdb
        517  204 00211B40 _Z47without_constraint_active_set_lambda_multiratesbdRP2PrRPP4Nodeb
        518  205 00212440 _Z4ddotPiPdS_S0_S_
        519  206 002126D0 _Z4isIniSt6vectorIiSaIiEE
        520  207 00212720 _Z4leafP4Node
        521  208 00212750 _Z4log3d
        522  209 00212800 _Z4mrcaPP4NodeNSt7__cxx114listIiSaIiEEE
        523  20A 002128B0 _Z4mrcaPP4NodeSt6vectorIiSaIiEE
        524  20B 00212940 _Z4mrcaPP4Nodeii
        525  20C 00212990 _Z4pathB5cxx11P2PrPP4Nodeii
        526  20D 00212BF0 _Z4sortRPdi
        527  20E 00212C60 _Z4sortRPii
        528  20F 00212CC0 _Z5daxpyPiPdS0_S_S0_S_
        529  210 00213310 _Z5dcopyPiPdS_S0_S_
        530  211 002137E0 _Z5dpofaPdPiS0_S0_
        531  212 00213CC0 _Z5dscalPiPdS0_S_
        532  213 00213F10 _Z5dtrslPdPiS0_S_S0_S0_
        533  214 002143A0 _Z5formkiPiS_S_S_S_S_S_PdS0_iS0_S0_S0_S0_S_S_S_
        534  215 00215C90 _Z5formtiPdS_S_PiS_S0_
        535  216 00215EB0 _Z5freeviPiS_S_S_S_S_S_S_S_iS_
        536  217 00216320 _Z5indexNSt7__cxx1112basic_stringIcSt11char_traitsIcESaIcEEERPS4_i
        537  218 002163D0 _Z5indexRNSt7__cxx114listIiSaIiEEEi
        538  219 00216400 _Z5indexRPiii
        539  21A 00216440 _Z5isRHSNSt7__cxx1112basic_stringIcSt11char_traitsIcESaIcEEE
        540  21B 00216490 _Z5limitP4Node
        541  21C 002164A0 _Z5lowerP4Node
        542  21D 002164C0 _Z5nexusB5cxx11iP2PrPP4Node
        543  21E 00217B70 _Z5subsmiiPiS_PdS0_S_S0_S0_S0_S0_S0_S_S_S_S0_S0_iS_
        544  21F 002182D0 _Z5timerPd
        545  220 002182E0 _Z5upperP4Node
        546  221 00218310 _Z5usagePPc
        547  222 002187A0 _Z6WHTestR6ParamsR6IQTree
        548  223 002189B0 _Z6activeiPdS_PiS_S0_iS0_S0_S0_
        549  224 00218C80 _Z6addArgRiPPcS0_
        550  225 00218CD0 _Z6cauchyiPdS_S_PiS_S0_S0_S_S_S_iS_S_S_S_S_S0_S0_S_S_S_S_S0_iS_S0_S_
        551  226 00219F80 _Z6cmprlbiiPdS_S_S_S_S_S_S_S_PiS_S0_S0_S0_S0_S0_
        552  227 0021A450 _Z6concatRNSt7__cxx114listIiSaIiEEES2_
        553  228 0021A4A0 _Z6concatRNSt7__cxx114listIiSaIiEEESt5stackIiSt5dequeIiS1_EE
        554  229 0021A540 _Z6concatRSt5stackIiSt5dequeIiSaIiEEENSt7__cxx114listIiS1_EE
        555  22A 0021A5B0 _Z6dcsrchPdS_S_dddddPcPiS_
        556  22B 0021AFC0 _Z6dcstepPdS_S_S_S_S_S_S_S_PiS_S_
        557  22C 0021B7E0 _Z6errclbiidPdS_PiPcS0_S0_
        558  22D 0021B8E0 _Z6hpsolbiPdPii
        559  22E 0021BA00 _Z6isFilePKc
        560  22F 0021BA40 _Z6isRealPKc
        561  230 0021BB30 _Z6lbfgsbiiPdS_S_PiS_PFdiS_PvEPFviS_S_S1_ES0_S1_ddS0_S0_iPcii
        562  231 0021C330 _Z6lnsrlbiPdS_PiS_S_S_S_S_S_S_S_S_S_S_S_S_S_S_S0_S0_S0_S0_S0_PcS0_S0_S1_S0_S_
        563  232 0021C980 _Z6logFaci
        564  233 0021C9F0 _Z6mainlbiiPdS_S_PiS_S_dS_S_S_S_S_S_S_S_S_S_S_S_S_S0_S0_S0_PciS1_S0_S0_S_
        565  234 0021F300 _Z6matinvPdiiS_
        566  235 0021FE80 _Z6matupdiiPdS_S_S_S_S_PiS0_S0_S0_S_S_S_S_S_
        567  236 00220260 _Z6medianSt6vectorIdSaIdEE
        568  237 00220300 _Z6myExitNSt7__cxx1112basic_stringIcSt11char_traitsIcESaIcEEEz
        569  238 00220370 _Z6newickB5cxx11iiP2PrPP4NodeRi
        570  239 00220F60 _Z6outputdiPN3lsd17InputOutputStreamEP2PrPP4NodeRSoS7_S7_ib
        571  23A 00226CB0 _Z6prn1lbiiPdS_S_id
        572  23B 00226E10 _Z6prn2lbiPdS_S_iiiidiPciidd
        573  23C 00226FB0 _Z6prn3lbiPdS_PciiiiiiidiS0_iddi
        574  23D 002277B0 _Z6projgriPdS_PiS_S_S_
        575  23E 00227870 _Z6pythagdd
        576  23F 00227910 _Z6read2PSiNSt7__cxx1112basic_stringIcSt11char_traitsIcESaIcEEE
        577  240 00227B70 _Z6setulbiiPdS_S_PiS_S_dS_S_S0_PciS0_S0_S_
        578  241 00227EC0 _Z7Normalzd
        579  242 00228070 _Z7containNSt7__cxx1112basic_stringIcSt11char_traitsIcESaIcEEENS_4listIS4_SaIS4_EEE
        580  243 00228100 _Z7containiNSt7__cxx114listIiSaIiEEE
        581  244 00228130 _Z7containiSt6vectorIiSaIiEE
        582  245 00228180 _Z7iEqualsNSt7__cxx1112basic_stringIcSt11char_traitsIcESaIcEEES4_
        583  246 00228210 _Z7initepsP6_iobufR13QuartetGroups
        584  247 00228760 _Z7initsvgP6_iobufR13QuartetGroups
        585  248 00228C90 _Z7maxDatei
        586  249 00228CF0 _Z7mlecoefPdS_diS_S_PiS_
        587  24A 00229430 _Z7nexusICB5cxx11iP2PrPP4NodePdS4_S4_S4_
        588  24B 0022DE10 _Z7nrerrorPKc
        589  24C 0022DE50 _Z7posPOMORNSt7__cxx1112basic_stringIcSt11char_traitsIcESaIcEEE
        590  24D 0022DED0 _Z7pvectorPcPdi
        591  24E 0022DFD0 _Z7readIntRSiNSt7__cxx1112basic_stringIcSt11char_traitsIcESaIcEEE
        592  24F 0022E020 _Z7rmSpaceRNSt7__cxx1112basic_stringIcSt11char_traitsIcESaIcEEE
        593  250 0022E1C0 _Z7runLSD2P9PhyloTree
        594  251 00232940 _Z7sortTabPdi
        595  252 00232A00 _Z8activeTCP4Node
        596  253 00232A10 _Z8addModelNSt7__cxx1112basic_stringIcSt11char_traitsIcESaIcEEERS4_S4_
        597  254 00233400 _Z8chi2probid
        598  255 00233460 _Z8cntdist2Pdid
        599  256 002334D0 _Z8cntdist3Pdid
        600  257 00233620 _Z8collapseiiP2PrPP4NodeS3_RiRPidbPd
        601  258 00233870 _Z8copyFilePKcS0_
        602  259 00233A70 _Z8doOneNNIP11pllInstanceP13partitionListP7nodereci8NNI_TypeP10SearchInfo
        603  25A 00234030 _Z8fixBoundPdS_S_i
        604  25B 002340E0 _Z8harmonici
        605  25C 00234170 _Z8markLeafP4Node
        606  25D 00234180 _Z8mean_sumiiPdS_Pi
        607  25E 002341C0 _Z8outErrorNSt7__cxx1112basic_stringIcSt11char_traitsIcESaIcEEEb
        608  25F 002341D0 _Z8outErrorPKcNSt7__cxx1112basic_stringIcSt11char_traitsIcESaIcEEEb
        609  260 002343A0 _Z8outErrorPKcS0_b
        610  261 00234580 _Z8outErrorPKcb
        611  262 00234690 _Z8parseArgiPPcR6Params
        612  263 00245A90 _Z8readCharRSiNSt7__cxx1112basic_stringIcSt11char_traitsIcESaIcEEE
        613  264 00245AF0 _Z8readDateRSiNSt7__cxx1112basic_stringIcSt11char_traitsIcESaIcEEEP2PrRdS8_
        614  265 00245F80 _Z8readWordNSt7__cxx1112basic_stringIcSt11char_traitsIcESaIcEEERi
        615  266 00246200 _Z8readWordRSiNSt7__cxx1112basic_stringIcSt11char_traitsIcESaIcEEE
        616  267 00246680 _Z8varianceP2Prd
        617  268 002466C0 _Z8varianceiiPdii
        618  269 002468F0 _Z9computeICPN3lsd17InputOutputStreamEdP2PrPP4NodeRPdS8_S8_S8_S8_S8_RdS9_S8_S8_
        619  26A 00248F00 _Z9concatPosNSt7__cxx114listIiSaIiEEERS2_
        620  26B 00248F50 _Z9desactiveP4Node
        621  26C 00248F70 _Z9doSymTestP9AlignmentR6Params
        622  26D 0024C0B0 _Z9finishepsP6_iobufSt6vectorI14SeqQuartetInfoSaIS2_EEix
        623  26E 0024C710 _Z9finishsvgP6_iobufSt6vectorI14SeqQuartetInfoSaIS2_EEix
        624  26F 0024CE80 _Z9frob_normPdid
        625  270 0024CF60 _Z9getOSNameB5cxx11v
        626  271 0024D0F0 _Z9intersectNSt7__cxx114listIiSaIiEEES2_
        627  272 0024D1B0 _Z9intersectSt6vectorIiSaIiEES1_
        628  273 0024D430 _Z9isIntegerPKc
        629  274 0024D460 _Z9is_numberRKNSt7__cxx1112basic_stringIcSt11char_traitsIcESaIcEEE
        630  275 0024D4C0 _Z9memcmpcpyPvPKvy
        631  276 0024D500 _Z9newIQTreeR6ParamsP9Alignment
        632  277 0024D760 _Z9nexusDateB5cxx11iP2PrPP4Node
        633  278 0024EE20 _Z9printHelpv
        634  279 00251AC0 _Z9pruneTaxaR6ParamsR6IQTreePdRSt6vectorIP4NodeSaIS6_EERS4_INSt7__cxx1112basic_stringIcSt11char_traitsIcESaIcEEESaISF_EE
        635  27A 002521D0 _Z9quicksortIddEvPT_iiPT0_
        636  27B 00252380 _Z9quicksortIdiEvPT_iiPT0_
        637  27C 00252520 _Z9quicksortIiiEvPT_iiPT0_
        638  27D 00252700 _Z9quicksortIyiEvPT_iiPT0_
        639  27E 002528E0 _Z9quicksortPdPiS0_ii
        640  27F 00252A60 _Z9randomLenR6Params
        641  280 00252FB0 _Z9readDate1RSiNSt7__cxx1112basic_stringIcSt11char_traitsIcESaIcEEEcP2PrRdS8_
        642  281 00253500 _Z9readLabelB5cxx11cRSiRi
        643  282 002539F0 _Z9runCMapleR6Params
        644  283 00253A10 _Z9tree2dataRSiP2PrRi
        645  284 00254B60 _Z9writeDateNSt7__cxx1112basic_stringIcSt11char_traitsIcESaIcEEERSoRSt3setIS4_St4lessIS4_ESaIS4_EE
        646  285 0094EDC8 _ZGVN5boost4math6detail15erf_initializerIeNS0_8policies6policyINS3_13promote_floatILb0EEENS3_14promote_doubleILb0EEENS3_14default_policyES9_S9_S9_S9_S9_S9_S9_S9_S9_S9_EESt17integral_constantIiLi64EEE11initializerE
        647  286 0094EDD0 _ZGVN5boost4math6detail17expm1_initializerIeNS0_8policies6policyINS3_13promote_floatILb0EEENS3_14promote_doubleILb0EEENS3_14default_policyES9_S9_S9_S9_S9_S9_S9_S9_S9_S9_EESt17integral_constantIiLi64EEE11initializerE
        648  287 0094EDD8 _ZGVN5boost4math6detail17log1p_initializerIdNS0_8policies6policyINS3_13promote_floatILb0EEENS3_14promote_doubleILb0EEENS3_14default_policyES9_S9_S9_S9_S9_S9_S9_S9_S9_S9_EESt17integral_constantIiLi53EEE11initializerE
        649  288 0094EDE0 _ZGVN5boost4math6detail17log1p_initializerIeNS0_8policies6policyINS3_13promote_floatILb0EEENS3_14promote_doubleILb0EEENS3_14default_policyES9_S9_S9_S9_S9_S9_S9_S9_S9_S9_EESt17integral_constantIiLi64EEE11initializerE
        650  289 0094EDE8 _ZGVN5boost4math6detail18igamma_initializerIeNS0_8policies6policyINS3_13promote_floatILb0EEENS3_14promote_doubleILb0EEENS3_14default_policyES9_S9_S9_S9_S9_S9_S9_S9_S9_S9_EEE11initializerE
        651  28A 0094EDF0 _ZGVN5boost4math6detail18lgamma_initializerIeNS0_8policies6policyINS3_13promote_floatILb0EEENS3_14promote_doubleILb0EEENS3_14default_policyES9_S9_S9_S9_S9_S9_S9_S9_S9_S9_EEE11initializerE
        652  28B 0094EDF8 _ZGVN5boost4math7lanczos19lanczos_initializerINS1_12lanczos17m64EeE11initializerE
        653  28C 0094EE08 _ZGVZN4YAML3Exp10BlockEntryEvE1e
        654  28D 0094EE10 _ZGVZN4YAML3Exp11PlainScalarEvE1e
        655  28E 0094EE18 _ZGVZN4YAML3Exp11ValueInFlowEvE1e
        656  28F 0094EE20 _ZGVZN4YAML3Exp12AlphaNumericEvE1e
        657  290 0094EE28 _ZGVZN4YAML3Exp12BlankOrBreakEvE1e
        658  291 0094EE30 _ZGVZN4YAML3Exp12DocIndicatorEvE1e
        659  292 0094EE38 _ZGVZN4YAML3Exp13ScanScalarEndEvE1e
        660  293 0094EE40 _ZGVZN4YAML3Exp14ChompIndicatorEvE1e
        661  294 0094EE48 _ZGVZN4YAML3Exp14EscSingleQuoteEvE1e
        662  295 0094EE50 _ZGVZN4YAML3Exp15EndScalarInFlowEvE1e
        663  296 0094EE58 _ZGVZN4YAML3Exp15ValueInJSONFlowEvE1e
        664  297 0094EE60 _ZGVZN4YAML3Exp17PlainScalarInFlowEvE1e
        665  298 0094EE68 _ZGVZN4YAML3Exp19ScanScalarEndInFlowEvE1e
        666  299 0094EE70 _ZGVZN4YAML3Exp3HexEvE1e
        667  29A 0094EE78 _ZGVZN4YAML3Exp3KeyEvE1e
        668  29B 0094EE80 _ZGVZN4YAML3Exp3TabEvE1e
        669  29C 0094EE88 _ZGVZN4YAML3Exp3TagEvE1e
        670  29D 0094EE90 _ZGVZN4YAML3Exp3URIEvE1e
        671  29E 0094EE98 _ZGVZN4YAML3Exp4WordEvE1e
        672  29F 0094EEA0 _ZGVZN4YAML3Exp5AlphaEvE1e
        673  2A0 0094EEA8 _ZGVZN4YAML3Exp5BlankEvE1e
        674  2A1 0094EEB0 _ZGVZN4YAML3Exp5BreakEvE1e
        675  2A2 0094EEB8 _ZGVZN4YAML3Exp5ChompEvE1e
        676  2A3 0094EEC0 _ZGVZN4YAML3Exp5DigitEvE1e
        677  2A4 0094EEC8 _ZGVZN4YAML3Exp5EmptyEvE1e
        678  2A5 0094EED0 _ZGVZN4YAML3Exp5SpaceEvE1e
        679  2A6 0094EED8 _ZGVZN4YAML3Exp5ValueEvE1e
        680  2A7 0094EEE0 _ZGVZN4YAML3Exp6AnchorEvE1e
        681  2A8 0094EEE8 _ZGVZN4YAML3Exp6DocEndEvE1e
        682  2A9 0094EEF0 _ZGVZN4YAML3Exp7CommentEvE1e
        683  2AA 0094EEF8 _ZGVZN4YAML3Exp8DocStartEvE1e
        684  2AB 0094EF00 _ZGVZN4YAML3Exp8EscBreakEvE1e
        685  2AC 0094EF08 _ZGVZN4YAML3Exp9AnchorEndEvE1e
        686  2AD 0094EF10 _ZGVZN4YAML3Exp9EndScalarEvE1e
        687  2AE 0094EF18 _ZGVZN4YAML3Exp9KeyInFlowEvE1e
        688  2AF 0094EF28 _ZGVZN5Eigen8internal20manage_caching_sizesENS_6ActionEPxS2_S2_E12m_cacheSizes
        689  2B0 00255D10 _ZN10Checkpoint11setFileNameENSt7__cxx1112basic_stringIcSt11char_traitsIcESaIcEEE
        690  2B1 00255D20 _ZN10Checkpoint11startStructENSt7__cxx1112basic_stringIcSt11char_traitsIcESaIcEEE
        691  2B2 00255F60 _ZN10Checkpoint12hasKeyPrefixENSt7__cxx1112basic_stringIcSt11char_traitsIcESaIcEEE
        692  2B3 00256290 _ZN10Checkpoint13keepKeyPrefixENSt7__cxx1112basic_stringIcSt11char_traitsIcESaIcEEE
        693  2B4 00256450 _ZN10Checkpoint14addListElementEv
        694  2B5 00256850 _ZN10Checkpoint14eraseKeyPrefixENSt7__cxx1112basic_stringIcSt11char_traitsIcESaIcEEE
        695  2B6 002569B0 _ZN10Checkpoint14setCompressionEb
        696  2B7 002569C0 _ZN10Checkpoint14setListElementEi
        697  2B8 00256CD0 _ZN10Checkpoint15setDumpIntervalEd
        698  2B9 00256CE0 _ZN10Checkpoint16getSubCheckpointEPS_NSt7__cxx1112basic_stringIcSt11char_traitsIcESaIcEEE
        699  2BA 002570B0 _ZN10Checkpoint16putSubCheckpointEPS_NSt7__cxx1112basic_stringIcSt11char_traitsIcESaIcEEEb
        700  2BB 002574E0 _ZN10Checkpoint21transferSubCheckpointEPS_NSt7__cxx1112basic_stringIcSt11char_traitsIcESaIcEEEb
        701  2BC 00257900 _ZN10Checkpoint3getINSt7__cxx1112basic_stringIcSt11char_traitsIcESaIcEEEEEbS6_RT_
        702  2BD 00257DB0 _ZN10Checkpoint3getIdEEbNSt7__cxx1112basic_stringIcSt11char_traitsIcESaIcEEERT_
        703  2BE 00258260 _ZN10Checkpoint3getIiEEbNSt7__cxx1112basic_stringIcSt11char_traitsIcESaIcEEERT_
        704  2BF 00258710 _ZN10Checkpoint3putINSt7__cxx1112basic_stringIcSt11char_traitsIcESaIcEEEEEvS6_T_
        705  2C0 00258D00 _ZN10Checkpoint3putIPKcEEvNSt7__cxx1112basic_stringIcSt11char_traitsIcESaIcEEET_
        706  2C1 00259310 _ZN10Checkpoint3putIdEEvNSt7__cxx1112basic_stringIcSt11char_traitsIcESaIcEEET_
        707  2C2 00259840 _ZN10Checkpoint3putIiEEvNSt7__cxx1112basic_stringIcSt11char_traitsIcESaIcEEET_
        708  2C3 00259E30 _ZN10Checkpoint4dumpERSo
        709  2C4 0025A430 _ZN10Checkpoint4dumpEb
        710  2C5 0025B4B0 _ZN10Checkpoint4loadERSi
        711  2C6 0025BE10 _ZN10Checkpoint4loadEv
        712  2C7 0025C2F0 _ZN10Checkpoint6hasKeyENSt7__cxx1112basic_stringIcSt11char_traitsIcESaIcEEE
        713  2C8 0025C4E0 _ZN10Checkpoint7endListEv
        714  2C9 0025C670 _ZN10Checkpoint7getBoolENSt7__cxx1112basic_stringIcSt11char_traitsIcESaIcEEE
        715  2CA 0025C750 _ZN10Checkpoint7getBoolENSt7__cxx1112basic_stringIcSt11char_traitsIcESaIcEEERb
        716  2CB 0025CB60 _ZN10Checkpoint7putBoolENSt7__cxx1112basic_stringIcSt11char_traitsIcESaIcEEEb
        717  2CC 0025CCE0 _ZN10Checkpoint8getArrayIdEEbNSt7__cxx1112basic_stringIcSt11char_traitsIcESaIcEEEiPT_
        718  2CD 0025D540 _ZN10Checkpoint8putArrayIdEEvNSt7__cxx1112basic_stringIcSt11char_traitsIcESaIcEEEiPT_
        719  2CE 0025DB80 _ZN10Checkpoint9endStructEv
        720  2CF 0025DC10 _ZN10Checkpoint9getStringENSt7__cxx1112basic_stringIcSt11char_traitsIcESaIcEEERS5_
        721  2D0 0025DF50 _ZN10Checkpoint9getVectorIdEEbNSt7__cxx1112basic_stringIcSt11char_traitsIcESaIcEEERSt6vectorIT_SaIS8_EE
        722  2D1 0025E730 _ZN10Checkpoint9putVectorIdEEvNSt7__cxx1112basic_stringIcSt11char_traitsIcESaIcEEERSt6vectorIT_SaIS8_EE
        723  2D2 0025ED70 _ZN10Checkpoint9setHeaderENSt7__cxx1112basic_stringIcSt11char_traitsIcESaIcEEE
        724  2D3 0025EF00 _ZN10Checkpoint9startListEi
        725  2D4 0025F1A0 _ZN10CheckpointC1Ev
        726  2D5 0025F1A0 _ZN10CheckpointC2Ev
        727  2D6 0025F3B0 _ZN10CheckpointD0Ev
        728  2D7 0025F3D0 _ZN10CheckpointD1Ev
        729  2D8 0025F3D0 _ZN10CheckpointD2Ev
        730  2D9 0025F470 _ZN10MSetsBlock11findCharSetENSt7__cxx1112basic_stringIcSt11char_traitsIcESaIcEEE
        731  2DA 0025F4E0 _ZN10MSetsBlock15SkippingCommandE9NxsString
        732  2DB 0025F5A0 _ZN10MSetsBlock4ReadER8NxsToken
        733  2DC 002623B0 _ZN10MSetsBlock5ResetEv
        734  2DD 00262480 _ZN10MSetsBlock6ReportERSo
        735  2DE 00262630 _ZN10MSetsBlock8findAreaERNSt7__cxx1112basic_stringIcSt11char_traitsIcESaIcEEE
        736  2DF 002626B0 _ZN10MSetsBlockC1Ev
        737  2E0 002626B0 _ZN10MSetsBlockC2Ev
        738  2E1 00262750 _ZN10MSetsBlockD0Ev
        739  2E2 00262770 _ZN10MSetsBlockD1Ev
        740  2E3 00262770 _ZN10MSetsBlockD2Ev
        741  2E4 00262920 _ZN10ModelCodon12getVariablesEPd
        742  2E5 00262AE0 _ZN10ModelCodon12setVariablesEPd
        743  2E6 00262C40 _ZN10ModelCodon13getNameParamsB5cxx11Eb
        744  2E7 00262CC0 _ZN10ModelCodon14readCodonModelERNSt7__cxx1112basic_stringIcSt11char_traitsIcESaIcEEEb
        745  2E8 00262DD0 _ZN10ModelCodon14readCodonModelERSib
        746  2E9 00263970 _ZN10ModelCodon14saveCheckpointEv
        747  2EA 00263AC0 _ZN10ModelCodon15startCheckpointEv
        748  2EB 00263B40 _ZN10ModelCodon17combineRateNTFreqEv
        749  2EC 00263CF0 _ZN10ModelCodon17getNumRateEntriesEv
        750  2ED 00263D00 _ZN10ModelCodon17restoreCheckpointEv
        751  2EE 00263E70 _ZN10ModelCodon18optimizeParametersEd
        752  2EF 002641B0 _ZN10ModelCodon18readCodonModelFileEPKcb
        753  2F0 00264390 _ZN10ModelCodon19decomposeRateMatrixEv
        754  2F1 00264400 _ZN10ModelCodon21computeEmpiricalOmegaEv
        755  2F2 00264630 _ZN10ModelCodon21computeRateAttributesEv
        756  2F3 002652E0 _ZN10ModelCodon22computeCodonRateMatrixEv
        757  2F4 00265330 _ZN10ModelCodon29computeCodonRateMatrix_1KAPPAEv
        758  2F5 00265470 _ZN10ModelCodon29computeCodonRateMatrix_2KAPPAEv
        759  2F6 00265670 _ZN10ModelCodon31computeCodonRateMatrix_1KAPPATSEv
        760  2F7 00265810 _ZN10ModelCodon31computeCodonRateMatrix_1KAPPATVEv
        761  2F8 002659B0 _ZN10ModelCodon4initEPKcNSt7__cxx1112basic_stringIcSt11char_traitsIcESaIcEEE13StateFreqTypeS7_
        762  2F9 00267500 _ZN10ModelCodon8initGY94Eb15CodonKappaStyle
        763  2FA 00267550 _ZN10ModelCodon8initMG94Eb13StateFreqType15CodonKappaStyleNSt7__cxx1112basic_stringIcSt11char_traitsIcESaIcEEE
        764  2FB 002676E0 _ZN10ModelCodon9initCodonEPKc13StateFreqTypebNSt7__cxx1112basic_stringIcSt11char_traitsIcESaIcEEE
        765  2FC 00267FD0 _ZN10ModelCodon9setBoundsEPdS0_Pb
        766  2FD 00268200 _ZN10ModelCodon9writeInfoERSo
        767  2FE 002683E0 _ZN10ModelCodonC1EPKcNSt7__cxx1112basic_stringIcSt11char_traitsIcESaIcEEE13StateFreqTypeS7_P9PhyloTree
        768  2FF 002683E0 _ZN10ModelCodonC2EPKcNSt7__cxx1112basic_stringIcSt11char_traitsIcESaIcEEE13StateFreqTypeS7_P9PhyloTree
        769  300 00268C50 _ZN10ModelCodonD0Ev
        770  301 00268CF0 _ZN10ModelCodonD1Ev
        771  302 00268CF0 _ZN10ModelCodonD2Ev
        772  303 00268D80 _ZN10ModelHmmGm11getFullNameB5cxx11Ev
        773  304 00268DE0 _ZN10ModelHmmGm12getVariablesEPd
        774  305 00268E70 _ZN10ModelHmmGm12setVariablesEPd
        775  306 00268EE0 _ZN10ModelHmmGm14getNParametersEv
        776  307 00268EF0 _ZN10ModelHmmGm14showParametersERSo
        777  308 002690A0 _ZN10ModelHmmGm18computeLogTransitsEv
        778  309 002690F0 _ZN10ModelHmmGm18optimizeParametersEd
        779  30A 00269100 _ZN10ModelHmmGm21initialize_transitLogEv
        780  30B 00269490 _ZN10ModelHmmGm22optimizeParametersByEMEv
        781  30C 00269840 _ZN10ModelHmmGm25computeNormalizedTransitsEv
        782  30D 00269A90 _ZN10ModelHmmGm7getNDimEv
        783  30E 00269AA0 _ZN10ModelHmmGm7getNameB5cxx11Ev
        784  30F 00269AC0 _ZN10ModelHmmGm9setBoundsEPdS0_Pb
        785  310 00269C70 _ZN10ModelHmmGmC1Ei
        786  311 00269C70 _ZN10ModelHmmGmC2Ei
        787  312 00269D10 _ZN10ModelHmmGmD1Ev
        788  313 00269D10 _ZN10ModelHmmGmD2Ev
        789  314 00269D80 _ZN10ModelHmmTm11getFullNameB5cxx11Ev
        790  315 00269DE0 _ZN10ModelHmmTm12getVariablesEPd
        791  316 0026A1A0 _ZN10ModelHmmTm12setVariablesEPd
        792  317 0026A1C0 _ZN10ModelHmmTm13getTransitLogEi
        793  318 0026A1F0 _ZN10ModelHmmTm14getNParametersEv
        794  319 0026A200 _ZN10ModelHmmTm14showParametersERSo
        795  31A 0026A460 _ZN10ModelHmmTm14updateTransitsEv
        796  31B 0026A810 _ZN10ModelHmmTm18computeLogTransitsEv
        797  31C 0026A8B0 _ZN10ModelHmmTm18optimizeParametersEd
        798  31D 0026A8C0 _ZN10ModelHmmTm21initialize_transitLogEv
        799  31E 0026AE30 _ZN10ModelHmmTm21initialize_transit_idEPiiPNSt7__cxx1112basic_stringIcSt11char_traitsIcESaIcEEE
        800  31F 0026B6C0 _ZN10ModelHmmTm22optimizeParametersByEMEv
        801  320 0026BD20 _ZN10ModelHmmTm25computeNormalizedTransitsEv
        802  321 0026C060 _ZN10ModelHmmTm7getNDimEv
        803  322 0026C070 _ZN10ModelHmmTm7getNameB5cxx11Ev
        804  323 0026C090 _ZN10ModelHmmTm9setBoundsEPdS0_Pb
        805  324 0026C240 _ZN10ModelHmmTmC1EiiPiiPNSt7__cxx1112basic_stringIcSt11char_traitsIcESaIcEEE
        806  325 0026C240 _ZN10ModelHmmTmC2EiiPiiPNSt7__cxx1112basic_stringIcSt11char_traitsIcESaIcEEE
        807  326 0026C3A0 _ZN10ModelHmmTmD1Ev
        808  327 0026C3A0 _ZN10ModelHmmTmD2Ev
        809  328 0026C490 _ZN10ModelSubst10getNParamsEv
        810  329 0026C4A0 _ZN10ModelSubst10getQMatrixEPdi
        811  32A 0026C750 _ZN10ModelSubst10setNParamsEi
        812  32B 0026C760 _ZN10ModelSubst11getFreqTypeEv
        813  32C 0026C770 _ZN10ModelSubst11getNDimFreqEv
        814  32D 0026C780 _ZN10ModelSubst11isLieMarkovEv
        815  32E 0026C790 _ZN10ModelSubst12computeTransEdii
        816  32F 0026C810 _ZN10ModelSubst12computeTransEdiiRdS0_
        817  330 0026C8F0 _ZN10ModelSubst12computeTransEdiii
        818  331 0026C910 _ZN10ModelSubst12computeTransEdiiiRdS0_
        819  332 0026C940 _ZN10ModelSubst12getNMixturesEv
        820  333 0026C950 _ZN10ModelSubst12getVariablesEPd
        821  334 0026C960 _ZN10ModelSubst12isReversibleEv
        822  335 0026C970 _ZN10ModelSubst12setVariablesEPd
        823  336 0026C980 _ZN10ModelSubst13fixParametersEb
        824  337 0026C990 _ZN10ModelSubst13getDNAErrProbEi
        825  338 0026C9A0 _ZN10ModelSubst13getNameParamsB5cxx11Eb
        826  339 0026CA20 _ZN10ModelSubst13getPtnModelIDEi
        827  33A 0026CA30 _ZN10ModelSubst13getRateMatrixEPd
        828  33B 0026CB70 _ZN10ModelSubst14isMixtureSameQEv
        829  33C 0026CB80 _ZN10ModelSubst14newTransMatrixEv
        830  33D 0026CB90 _ZN10ModelSubst14saveCheckpointEv
        831  33E 0026CC30 _ZN10ModelSubst15containDNAerrorEv
        832  33F 0026CC40 _ZN10ModelSubst15getMixtureClassEi
        833  340 0026CC50 _ZN10ModelSubst15setMixtureClassEiPS_
        834  341 0026CC60 _ZN10ModelSubst15startCheckpointEv
        835  342 0026CCE0 _ZN10ModelSubst16computeTransDervEdPdS0_S0_i
        836  343 0026CE20 _ZN10ModelSubst16getMixtureWeightEi
        837  344 0026CE30 _ZN10ModelSubst16getMutationModelEv
        838  345 0026CE40 _ZN10ModelSubst16setMixtureWeightEid
        839  346 0026CE50 _ZN10ModelSubst16setOptimizeStepsEi
        840  347 0026CE60 _ZN10ModelSubst17getMemoryRequiredEv
        841  348 0026CE70 _ZN10ModelSubst17getNumRateEntriesEv
        842  349 0026CE90 _ZN10ModelSubst17getStateFrequencyEPdi
        843  34A 0026CFC0 _ZN10ModelSubst17restoreCheckpointEv
        844  34B 0026D080 _ZN10ModelSubst17setStateFrequencyEPd
        845  34C 0026D0A0 _ZN10ModelSubst18computeTransMatrixEdPdii
        846  34D 0026D190 _ZN10ModelSubst18getTransMatrixSizeEv
        847  34E 0026D1A0 _ZN10ModelSubst18optimizeParametersEd
        848  34F 0026D1B0 _ZN10ModelSubst19decomposeRateMatrixEv
        849  350 0026D1C0 _ZN10ModelSubst19isPolymorphismAwareEv
        850  351 0026D1D0 _ZN10ModelSubst19isSiteSpecificModelEv
        851  352 0026D1E0 _ZN10ModelSubst19setFixMixtureWeightEb
        852  353 0026D1F0 _ZN10ModelSubst20computeTipLikelihoodEjPd
        853  354 0026D360 _ZN10ModelSubst20isUnstableParametersEv
        854  355 0026D370 _ZN10ModelSubst26multiplyWithInvEigenvectorEPd
        855  356 0026D4F0 _ZN10ModelSubst6reportERSo
        856  357 0026D500 _ZN10ModelSubst7getNDimEv
        857  358 0026D510 _ZN10ModelSubst7getNameB5cxx11Ev
        858  359 0026D590 _ZN10ModelSubst7isFusedEv
        859  35A 0026D5A0 _ZN10ModelSubst7setTreeEP9PhyloTree
        860  35B 0026D5B0 _ZN10ModelSubst9isMixtureEv
        861  35C 0026D5C0 _ZN10ModelSubst9writeInfoERSo
        862  35D 0026D5D0 _ZN10ModelSubstC1Ei
        863  35E 0026D5D0 _ZN10ModelSubstC2Ei
        864  35F 0026D840 _ZN10ModelSubstD0Ev
        865  360 0026D8B0 _ZN10ModelSubstD1Ev
        866  361 0026D8B0 _ZN10ModelSubstD2Ev
        867  362 0026D910 _ZN10SearchInfoD2Ev
        868  363 0026D9C0 _ZN10SplitGraph10calcWeightER5Split
        869  364 0026DA30 _ZN10SplitGraph10calcWeightEv
        870  365 0026DA70 _ZN10SplitGraph10compatibleEP5Split
        871  366 0026DAC0 _ZN10SplitGraph11countSplitsER5Split
        872  367 0026DB10 _ZN10SplitGraph11getTaxaNameERSt6vectorINSt7__cxx1112basic_stringIcSt11char_traitsIcESaIcEEESaIS6_EE
        873  368 0026DC50 _ZN10SplitGraph11scaleWeightEdbi
        874  369 0026DD60 _ZN10SplitGraph12calcDistanceEPc
        875  36A 0026E090 _ZN10SplitGraph12calcDistanceERSt6vectorIS0_IdSaIdEESaIS2_EE
        876  36B 0026E310 _ZN10SplitGraph12calcDistanceERSt6vectorIS0_IdSaIdEESaIS2_EERS0_IiSaIiEE
        877  36C 0026E580 _ZN10SplitGraph12containSplitER5Split
        878  36D 0026E620 _ZN10SplitGraph12createBlocksEv
        879  36E 0026E6E0 _ZN10SplitGraph12findLeafNameERNSt7__cxx1112basic_stringIcSt11char_traitsIcESaIcEEE
        880  36F 0026E7B0 _ZN10SplitGraph13checkCircularERSt6vectorIS0_IdSaIdEESaIS2_EE
        881  370 0026E7C0 _ZN10SplitGraph13saveFileNexusERSob
        882  371 0026F140 _ZN10SplitGraph14createStarTreeEv
        883  372 0026F380 _ZN10SplitGraph14reportConflictERSo
        884  373 0026F540 _ZN10SplitGraph14saveCheckpointEv
        885  374 0026F990 _ZN10SplitGraph15AddTaxaFromSetsEv
        886  375 0026FB90 _ZN10SplitGraph15computeBoundaryER5Split
        887  376 0026FCB0 _ZN10SplitGraph15generateTaxaSetEPciii
        888  377 00270540 _ZN10SplitGraph15saveFileStarDotERSob
        889  378 00270720 _ZN10SplitGraph16generateCircularER6Params
        890  379 00270FA0 _ZN10SplitGraph17calcTrivialWeightEv
        891  37A 00271000 _ZN10SplitGraph17getNTrivialSplitsEv
        892  37B 00271050 _ZN10SplitGraph17restoreCheckpointEv
        893  37C 002715F0 _ZN10SplitGraph18isWeaklyCompatibleEv
        894  37D 00271880 _ZN10SplitGraph19countInternalSplitsER5Split
        895  37E 002718E0 _ZN10SplitGraph19removeTrivialSplitsEv
        896  37F 00271960 _ZN10SplitGraph21convertFromTreesBlockEiididPKc
        897  380 00271F60 _ZN10SplitGraph23findMaxCompatibleSplitsERS_
        898  381 00272480 _ZN10SplitGraph4initER6Params
        899  382 00272C30 _ZN10SplitGraph6reportERSo
        900  383 002732F0 _ZN10SplitGraph7freeMemEv
        901  384 002733C0 _ZN10SplitGraph8getNTaxaEv
        902  385 00273470 _ZN10SplitGraph8saveFileEPKc9InputTypeb
        903  386 00273620 _ZN10SplitGraph9maxWeightEv
        904  387 00273670 _ZN10SplitGraphC1ER6Params
        905  388 002736D0 _ZN10SplitGraphC1Ev
        906  389 00273670 _ZN10SplitGraphC2ER6Params
        907  38A 002736D0 _ZN10SplitGraphC2Ev
        908  38B 00273740 _ZN10SplitGraphD0Ev
        909  38C 00273790 _ZN10SplitGraphD1Ev
        910  38D 00273790 _ZN10SplitGraphD2Ev
        911  38E 002737E0 _ZN11ModelMarkov10dotProductEPKdS1_i
        912  38F 00273990 _ZN11ModelMarkov10getNParamsEv
        913  390 002739A0 _ZN11ModelMarkov10getQMatrixEPdi
        914  391 00273BD0 _ZN11ModelMarkov10setNParamsEi
        915  392 00273BE0 _ZN11ModelMarkov10targetFunkEPd
        916  393 00273D50 _ZN11ModelMarkov11getFreqTypeEv
        917  394 00273D60 _ZN11ModelMarkov11getNDimFreqEv
        918  395 00273DA0 _ZN11ModelMarkov12computeTransEdii
        919  396 00273EC0 _ZN11ModelMarkov12computeTransEdiiRdS0_
        920  397 00273FF0 _ZN11ModelMarkov12getVariablesEPd
        921  398 00274430 _ZN11ModelMarkov12isReversibleEv
        922  399 00274440 _ZN11ModelMarkov12report_ratesERSoNSt7__cxx1112basic_stringIcSt11char_traitsIcESaIcEEEPd
        923  39A 00274AF0 _ZN11ModelMarkov12setVariablesEPd
        924  39B 00274B90 _ZN11ModelMarkov13getNameParamsB5cxx11Eb
        925  39C 00274DE0 _ZN11ModelMarkov13getRateMatrixEPd
        926  39D 00274E20 _ZN11ModelMarkov13readStateFreqENSt7__cxx1112basic_stringIcSt11char_traitsIcESaIcEEE
        927  39E 002759E0 _ZN11ModelMarkov13readStateFreqERSi
        928  39F 00275CC0 _ZN11ModelMarkov13setRateMatrixEPd
        929  3A0 00275D00 _ZN11ModelMarkov13setReversibleEbb
        930  3A1 002764A0 _ZN11ModelMarkov14getModelByNameENSt7__cxx1112basic_stringIcSt11char_traitsIcESaIcEEEP9PhyloTreeS5_13StateFreqTypeS5_
        931  3A2 00276B10 _ZN11ModelMarkov14readParametersEPKcb
        932  3A3 00277220 _ZN11ModelMarkov14saveCheckpointEv
        933  3A4 00277250 _ZN11ModelMarkov14scaleStateFreqEb
        934  3A5 00277520 _ZN11ModelMarkov14setEigenvaluesEPd
        935  3A6 00277530 _ZN11ModelMarkov14validModelNameENSt7__cxx1112basic_stringIcSt11char_traitsIcESaIcEEE
        936  3A7 002776D0 _ZN11ModelMarkov15init_state_freqE13StateFreqType
        937  3A8 00277C90 _ZN11ModelMarkov15internalFreeMemEv
        938  3A9 00277DC0 _ZN11ModelMarkov15setEigenvectorsEPd
        939  3AA 00277DD0 _ZN11ModelMarkov15startCheckpointEv
        940  3AB 00277E50 _ZN11ModelMarkov15writeParametersERSo
        941  3AC 00277E60 _ZN11ModelMarkov16computeTransDervEdPdS0_S0_i
        942  3AD 00278F60 _ZN11ModelMarkov17getMemoryRequiredEv
        943  3AE 00278F80 _ZN11ModelMarkov17getNameParamsFreqERSo
        944  3AF 002790E0 _ZN11ModelMarkov17getNumRateEntriesEv
        945  3B0 00279100 _ZN11ModelMarkov17getStateFrequencyEPdi
        946  3B1 002793B0 _ZN11ModelMarkov17restoreCheckpointEv
        947  3B2 002793E0 _ZN11ModelMarkov17setFullRateMatrixEPdS0_
        948  3B3 00279860 _ZN11ModelMarkov17setStateFrequencyEPd
        949  3B4 00279900 _ZN11ModelMarkov18computeTransMatrixEdPdii
        950  3B5 0027A240 _ZN11ModelMarkov18optimizeParametersEd
        951  3B6 0027A690 _ZN11ModelMarkov18report_state_freqsERSoPd
        952  3B7 0027A9C0 _ZN11ModelMarkov19adaptStateFrequencyEPd
        953  3B8 0027AB00 _ZN11ModelMarkov19decomposeRateMatrixEv
        954  3B9 0027D2A0 _ZN11ModelMarkov20get_num_states_totalEv
        955  3BA 0027D2B0 _ZN11ModelMarkov20isUnstableParametersEv
        956  3BB 0027D360 _ZN11ModelMarkov20readParametersStringERNSt7__cxx1112basic_stringIcSt11char_traitsIcESaIcEEEb
        957  3BC 0027D740 _ZN11ModelMarkov21update_eigen_pointersEPdS0_S0_S0_
        958  3BD 0027D770 _ZN11ModelMarkov22decomposeRateMatrixRevEv
        959  3BE 0027DAB0 _ZN11ModelMarkov22setInverseEigenvectorsEPd
        960  3BF 0027DAC0 _ZN11ModelMarkov23computeTransMatrixEigenEdPd
        961  3C0 0027E050 _ZN11ModelMarkov24calculateHadamardProductEPKdS1_iPd
        962  3C1 0027E350 _ZN11ModelMarkov24computeTransMatrixNonrevEdPdi
        963  3C2 0027F500 _ZN11ModelMarkov25decomposeRateMatrixNonrevEv
        964  3C3 00281300 _ZN11ModelMarkov30calculateSquareMatrixTransposeEPKdiPd
        965  3C4 00281440 _ZN11ModelMarkov32aTimesDiagonalBTimesTransposeOfCEPKdS1_S1_iPdi
        966  3C5 00281D70 _ZN11ModelMarkov32setInverseEigenvectorsTransposedEPd
        967  3C6 00281D80 _ZN11ModelMarkov33calculateExponentOfScalarMultiplyEPKdidPd
        968  3C7 00282290 _ZN11ModelMarkov4initE13StateFreqType
        969  3C8 002822E0 _ZN11ModelMarkov4initEPKcNSt7__cxx1112basic_stringIcSt11char_traitsIcESaIcEEE13StateFreqTypeS7_
        970  3C9 002822F0 _ZN11ModelMarkov7freeMemEv
        971  3CA 00282300 _ZN11ModelMarkov7getNDimEv
        972  3CB 002823D0 _ZN11ModelMarkov7getNameB5cxx11Ev
        973  3CC 002824C0 _ZN11ModelMarkov7setTreeEP9PhyloTree
        974  3CD 002824D0 _ZN11ModelMarkov8setRatesEv
        975  3CE 00282560 _ZN11ModelMarkov9readRatesENSt7__cxx1112basic_stringIcSt11char_traitsIcESaIcEEE
        976  3CF 00283150 _ZN11ModelMarkov9readRatesERSi
        977  3D0 002839D0 _ZN11ModelMarkov9setBoundsEPdS0_Pb
        978  3D1 00283CA0 _ZN11ModelMarkov9writeInfoERSo
        979  3D2 00283E20 _ZN11ModelMarkovC1EP9PhyloTreebb
        980  3D3 00283E20 _ZN11ModelMarkovC2EP9PhyloTreebb
        981  3D4 00283F80 _ZN11ModelMarkovD0Ev
        982  3D5 00283FF0 _ZN11ModelMarkovD1Ev
        983  3D6 00283FF0 _ZN11ModelMarkovD2Ev
        984  3D7 00284060 _ZN11ModelUnrest14saveCheckpointEv
        985  3D8 00284110 _ZN11ModelUnrest14validModelNameENSt7__cxx1112basic_stringIcSt11char_traitsIcESaIcEEE
        986  3D9 00284140 _ZN11ModelUnrest15startCheckpointEv
        987  3DA 002841C0 _ZN11ModelUnrest17restoreCheckpointEv
        988  3DB 00284290 _ZN11ModelUnrest17setStateFrequencyEPd
        989  3DC 002842A0 _ZN11ModelUnrest8setRatesEv
        990  3DD 002842C0 _ZN11ModelUnrest9setBoundsEPdS0_Pb
        991  3DE 00284470 _ZN11ModelUnrest9writeInfoERSo
        992  3DF 002846D0 _ZN11ModelUnrestC1EP9PhyloTreeNSt7__cxx1112basic_stringIcSt11char_traitsIcESaIcEEE13StateFreqTypeS7_
        993  3E0 002846D0 _ZN11ModelUnrestC2EP9PhyloTreeNSt7__cxx1112basic_stringIcSt11char_traitsIcESaIcEEE13StateFreqTypeS7_
        994  3E1 00284C30 _ZN11ModelUnrestD0Ev
        995  3E2 00284C50 _ZN11ModelsBlock12findMixModelENSt7__cxx1112basic_stringIcSt11char_traitsIcESaIcEEE
        996  3E3 00284D40 _ZN11ModelsBlock4ReadER8NxsToken
        997  3E4 00285D80 _ZN11ModelsBlock9findModelENSt7__cxx1112basic_stringIcSt11char_traitsIcESaIcEEE
        998  3E5 00285DA0 _ZN11ModelsBlockC1Ev
        999  3E6 00285DA0 _ZN11ModelsBlockC2Ev
       1000  3E7 00285E40 _ZN11ModelsBlockD0Ev
       1001  3E8 00285E70 _ZN11ModelsBlockD1Ev
       1002  3E9 00285E70 _ZN11ModelsBlockD2Ev
       1003  3EA 00285E90 _ZN11SplitIntMap10eraseSplitEP5Split
       1004  3EB 00285F60 _ZN11SplitIntMap11insertSplitEP5Spliti
       1005  3EC 00286050 _ZN11SplitIntMap8buildMapER10SplitGraphb
       1006  3ED 00286120 _ZN11SplitIntMap8getValueEP5Split
       1007  3EE 002861D0 _ZN11SplitIntMap8setValueEP5Spliti
       1008  3EF 002862A0 _ZN11SplitIntMap9findSplitEP5Split
       1009  3F0 002862D0 _ZN11SplitIntMap9findSplitEP5SplitRi
       1010  3F1 00286310 _ZN11gzstreambuf12flush_bufferEv
       1011  3F2 00286360 _ZN11gzstreambuf19getCompressedLengthEv
       1012  3F3 00286370 _ZN11gzstreambuf21getCompressedPositionEv
       1013  3F4 00286380 _ZN11gzstreambuf4openEPKcii
       1014  3F5 002864A0 _ZN11gzstreambuf4syncEv
       1015  3F6 00286500 _ZN11gzstreambuf5closeEv
       1016  3F7 00286540 _ZN11gzstreambuf8overflowEi
       1017  3F8 002865C0 _ZN11gzstreambuf9underflowEv
       1018  3F9 00286680 _ZN11gzstreambufD0Ev
       1019  3FA 002866A0 _ZN11gzstreambufD2Ev
       1020  3FB 002866F0 _ZN12CandidateSet10printTreesENSt7__cxx1112basic_stringIcSt11char_traitsIcESaIcEEE
       1021  3FC 00286F20 _ZN12CandidateSet11getAllTreesERSt6vectorINSt7__cxx1112basic_stringIcSt11char_traitsIcESaIcEEESaIS6_EERS0_IdSaIdEEi
       1022  3FD 00287320 _ZN12CandidateSet11getTopologyENSt7__cxx1112basic_stringIcSt11char_traitsIcESaIcEEE
       1023  3FE 00287600 _ZN12CandidateSet12getBestScoreEv
       1024  3FF 00287630 _ZN12CandidateSet13getBestScoresEi
       1025  400 00287810 _ZN12CandidateSet14getRandTopTreeB5cxx11Ei
       1026  401 002879F0 _ZN12CandidateSet14saveCheckpointEv
       1027  402 00287DB0 _ZN12CandidateSet15clearTopologiesEv
       1028  403 00287E30 _ZN12CandidateSet15getNextCandTreeB5cxx11Ev
       1029  404 00288020 _ZN12CandidateSet15initParentTreesEv
       1030  405 00288160 _ZN12CandidateSet15removeWorstTreeEv
       1031  406 002881D0 _ZN12CandidateSet16getCandidateTreeENSt7__cxx1112basic_stringIcSt11char_traitsIcESaIcEEE
       1032  407 00288250 _ZN12CandidateSet16getTopologyScoreENSt7__cxx1112basic_stringIcSt11char_traitsIcESaIcEEE
       1033  408 00288310 _ZN12CandidateSet17convertTreeStringENSt7__cxx1112basic_stringIcSt11char_traitsIcESaIcEEEi
       1034  409 002885F0 _ZN12CandidateSet17countStableSplitsEd
       1035  40A 00288680 _ZN12CandidateSet17getCandidateTreesEd
       1036  40B 00288740 _ZN12CandidateSet17restoreCheckpointEv
       1037  40C 00288BC0 _ZN12CandidateSet17treeTopologyExistENSt7__cxx1112basic_stringIcSt11char_traitsIcESaIcEEE
       1038  40D 00288BE0 _ZN12CandidateSet18addCandidateSplitsENSt7__cxx1112basic_stringIcSt11char_traitsIcESaIcEEE
       1039  40E 00288E30 _ZN12CandidateSet18getBestTreeStringsB5cxx11Ei
       1040  40F 00288F90 _ZN12CandidateSet18reportStableSplitsEv
       1041  410 002891C0 _ZN12CandidateSet19removeCandidateTreeENSt7__cxx1112basic_stringIcSt11char_traitsIcESaIcEEE
       1042  411 002893C0 _ZN12CandidateSet21getBestCandidateTreesEi
       1043  412 00289470 _ZN12CandidateSet21removeCandidateSplitsENSt7__cxx1112basic_stringIcSt11char_traitsIcESaIcEEE
       1044  413 00289780 _ZN12CandidateSet22computeSplitOccurencesEd
       1045  414 00289B10 _ZN12CandidateSet23recomputeLoglOfAllTreesER6IQTree
       1046  415 00289C80 _ZN12CandidateSet28getBestTreeStringsForProcessB5cxx11Ei
       1047  416 00289EB0 _ZN12CandidateSet4initEP9Alignmenti
       1048  417 00289EC0 _ZN12CandidateSet5clearEv
       1049  418 00289F70 _ZN12CandidateSet6setAlnEP9Alignment
       1050  419 00289F80 _ZN12CandidateSet6updateENSt7__cxx1112basic_stringIcSt11char_traitsIcESaIcEEEd
       1051  41A 0028ABA0 _ZN12CandidateSet9initTreesERS_
       1052  41B 0028AC30 _ZN12CandidateSet9treeExistENSt7__cxx1112basic_stringIcSt11char_traitsIcESaIcEEE
       1053  41C 0028AD70 _ZN12CandidateSetC1Ev
       1054  41D 0028AD70 _ZN12CandidateSetC2Ev
       1055  41E 0028AEA0 _ZN12CandidateSetD0Ev
       1056  41F 0028AEC0 _ZN12CandidateSetD1Ev
       1057  420 0028AEC0 _ZN12CandidateSetD2Ev
       1058  421 0028AFE0 _ZN12IQTreeMixHmm10targetFunkEPd
       1059  422 0028B010 _ZN12IQTreeMixHmm12getVariablesEPd
       1060  423 0028B3C0 _ZN12IQTreeMixHmm12printResultsEPKci
       1061  424 0028B510 _ZN12IQTreeMixHmm12setSiteTypesEv
       1062  425 0028B730 _ZN12IQTreeMixHmm12setVariablesEPd
       1063  426 0028BA70 _ZN12IQTreeMixHmm13setNumThreadsEi
       1064  427 0028BAE0 _ZN12IQTreeMixHmm13showBranchGrpEv
       1065  428 0028BD70 _ZN12IQTreeMixHmm14getNParametersEv
       1066  429 0028C740 _ZN12IQTreeMixHmm14showParametersERSo
       1067  42A 0028CA00 _ZN12IQTreeMixHmm14testNumThreadsEv
       1068  42B 0028CA50 _ZN12IQTreeMixHmm15computeFunctionEd
       1069  42C 0028CA80 _ZN12IQTreeMixHmm15getMarginalProbEbi
       1070  42D 0028CAB0 _ZN12IQTreeMixHmm15initializeModelER6ParamsNSt7__cxx1112basic_stringIcSt11char_traitsIcESaIcEEEP11ModelsBlock
       1071  42E 0028CBD0 _ZN12IQTreeMixHmm15startCheckpointEv
       1072  42F 0028CD10 _ZN12IQTreeMixHmm16computeFreqArrayEPdbi
       1073  430 0028CED0 _ZN12IQTreeMixHmm17computeLikelihoodEPdb
       1074  431 0028CF20 _ZN12IQTreeMixHmm17getSingleVariableEd
       1075  432 0028D270 _ZN12IQTreeMixHmm17printMarginalProbEPKc
       1076  433 0028D370 _ZN12IQTreeMixHmm17setSingleVariableEv
       1077  434 0028D5E0 _ZN12IQTreeMixHmm19getAllBranchLengthsEv
       1078  435 0028D6B0 _ZN12IQTreeMixHmm19optimizeAllBranchesEPdidi
       1079  436 0028D740 _ZN12IQTreeMixHmm19optimizeBranchGroupEid
       1080  437 0028DCB0 _ZN12IQTreeMixHmm19setAllBranchLengthsEv
       1081  438 0028DD40 _ZN12IQTreeMixHmm20showAllBranchLengthsEv
       1082  439 0028DFC0 _ZN12IQTreeMixHmm21optimizeAllRHASModelsEddPd
       1083  43A 0028E090 _ZN12IQTreeMixHmm21optimizeModelParamHMMB5cxx11Ebd
       1084  43B 0028E990 _ZN12IQTreeMixHmm22initializeTransitModelER6Params
       1085  43C 0028ED60 _ZN12IQTreeMixHmm22optimizeAllSubstModelsEdPd
       1086  43D 0028EE10 _ZN12IQTreeMixHmm22optimizeModelParamMASTB5cxx11Ebd
       1087  43E 0028F2D0 _ZN12IQTreeMixHmm22setAvgLenEachBranchGrpEv
       1088  43F 0028F5D0 _ZN12IQTreeMixHmm23optimizeModelParametersB5cxx11Ebd
       1089  440 0028FAF0 _ZN12IQTreeMixHmm23setWeightToMarginalProbEv
       1090  441 0028FEE0 _ZN12IQTreeMixHmm27optimizeAllBranchLensByBFGSEddi
       1091  442 002901A0 _ZN12IQTreeMixHmm28computeLogLikelihoodSiteTreeEi
       1092  443 00290330 _ZN12IQTreeMixHmm30computeLogLikelihoodSingleTreeEi
       1093  444 002904B0 _ZN12IQTreeMixHmm5isHMMEv
       1094  445 002904C0 _ZN12IQTreeMixHmm7getNDimEv
       1095  446 00290520 _ZN12IQTreeMixHmm9setBoundsEPdS0_Pb
       1096  447 00290820 _ZN12IQTreeMixHmmC1ER6ParamsP9AlignmentRSt6vectorIP6IQTreeSaIS6_EE
       1097  448 00290A00 _ZN12IQTreeMixHmmC1Ev
       1098  449 00290820 _ZN12IQTreeMixHmmC2ER6ParamsP9AlignmentRSt6vectorIP6IQTreeSaIS6_EE
       1099  44A 00290A00 _ZN12IQTreeMixHmmC2Ev
       1100  44B 00290B50 _ZN12IQTreeMixHmmD0Ev
       1101  44C 00290B70 _ZN12IQTreeMixHmmD1Ev
       1102  44D 00290B70 _ZN12IQTreeMixHmmD2Ev
       1103  44E 00290C70 _ZN12MSplitsBlock4ReadER8NxsToken
       1104  44F 002920D0 _ZN12MSplitsBlock5ResetEv
       1105  450 00292110 _ZN12MSplitsBlock6ReportERSo
       1106  451 00292120 _ZN12MSplitsBlock8AddSplitER8NxsToken
       1107  452 002928C0 _ZN12MSplitsBlockC1EP10SplitGraph
       1108  453 002928C0 _ZN12MSplitsBlockC2EP10SplitGraph
       1109  454 00292950 _ZN12MSplitsBlockD0Ev
       1110  455 00292990 _ZN12MSplitsBlockD1Ev
       1111  456 00292990 _ZN12MSplitsBlockD2Ev
       1112  457 002929C0 _ZN12ModelFactory10targetFunkEPd
       1113  458 00292A50 _ZN12ModelFactory12computeTransEdii
       1114  459 00292A70 _ZN12ModelFactory12computeTransEdiiRdS0_
       1115  45A 00292A90 _ZN12ModelFactory12getVariablesEPd
       1116  45B 00292AE0 _ZN12ModelFactory12isReversibleEv
       1117  45C 00292AF0 _ZN12ModelFactory12setVariablesEPd
       1118  45D 00292B40 _ZN12ModelFactory13setCheckpointEP10Checkpoint
       1119  45E 00292B90 _ZN12ModelFactory14getNParametersEi
       1120  45F 00292BE0 _ZN12ModelFactory14saveCheckpointEv
       1121  460 00292C30 _ZN12ModelFactory15startCheckpointEv
       1122  461 00292CB0 _ZN12ModelFactory16computeTransDervEdPdS0_S0_i
       1123  462 00292F70 _ZN12ModelFactory17restoreCheckpointEv
       1124  463 00292FB0 _ZN12ModelFactory18computeTransMatrixEdPdii
       1125  464 00293190 _ZN12ModelFactory18optimizeParametersEibdd
       1126  465 00293E30 _ZN12ModelFactory20isUnstableParametersEv
       1127  466 00293E40 _ZN12ModelFactory21optimizeAllParametersEd
       1128  467 00294220 _ZN12ModelFactory22optimizeParametersOnlyEidd
       1129  468 002942B0 _ZN12ModelFactory22stopStoringTransMatrixEv
       1130  469 00294340 _ZN12ModelFactory23startStoringTransMatrixEv
       1131  46A 00294350 _ZN12ModelFactory28optimizeParametersGammaInvarEibdd
       1132  46B 00294F80 _ZN12ModelFactory29optimizeGammaInvWithInitValueEiddddRSt6vectorIdSaIdEEP10Checkpoint
       1133  46C 002951A0 _ZN12ModelFactory7getNDimEv
       1134  46D 002951D0 _ZN12ModelFactory9writeInfoERSo
       1135  46E 002951E0 _ZN12ModelFactoryC1ER6ParamsRNSt7__cxx1112basic_stringIcSt11char_traitsIcESaIcEEEP9PhyloTreeP11ModelsBlock
       1136  46F 002A30A0 _ZN12ModelFactoryC1Ev
       1137  470 002951E0 _ZN12ModelFactoryC2ER6ParamsRNSt7__cxx1112basic_stringIcSt11char_traitsIcESaIcEEEP9PhyloTreeP11ModelsBlock
       1138  471 002A30A0 _ZN12ModelFactoryC2Ev
       1139  472 002A3130 _ZN12ModelFactoryD0Ev
       1140  473 002A3150 _ZN12ModelFactoryD1Ev
       1141  474 002A3150 _ZN12ModelFactoryD2Ev
       1142  475 002A3270 _ZN12ModelMixture10getQMatrixEPdi
       1143  476 002A3360 _ZN12ModelMixture10targetFunkEPd
       1144  477 002A3580 _ZN12ModelMixture11getNDimFreqEv
       1145  478 002A3620 _ZN12ModelMixture11initMixtureENSt7__cxx1112basic_stringIcSt11char_traitsIcESaIcEEES5_S5_P11ModelsBlock13StateFreqTypeS5_P9PhyloTreeb
       1146  479 002A8050 _ZN12ModelMixture12getNMixturesEv
       1147  47A 002A8060 _ZN12ModelMixture12getVariablesEPd
       1148  47B 002A8360 _ZN12ModelMixture12setVariablesEPd
       1149  47C 002A85B0 _ZN12ModelMixture13getDNAErrProbEi
       1150  47D 002A85F0 _ZN12ModelMixture13getNameParamsB5cxx11Eb
       1151  47E 002A88A0 _ZN12ModelMixture13setCheckpointEP10Checkpoint
       1152  47F 002A8900 _ZN12ModelMixture14isMixtureSameQEv
       1153  480 002A8E30 _ZN12ModelMixture14optimizeWithEMEd
       1154  481 002AA0D0 _ZN12ModelMixture14saveCheckpointEv
       1155  482 002AA2E0 _ZN12ModelMixture15containDNAerrorEv
       1156  483 002AA350 _ZN12ModelMixture15getMixtureClassEi
       1157  484 002AA390 _ZN12ModelMixture15optimizeWeightsEv
       1158  485 002AAD90 _ZN12ModelMixture15setMixtureClassEiP10ModelSubst
       1159  486 002AADD0 _ZN12ModelMixture15startCheckpointEv
       1160  487 002AAF00 _ZN12ModelMixture15writeParametersERSo
       1161  488 002AAF50 _ZN12ModelMixture16computeTransDervEdPdS0_S0_i
       1162  489 002AB070 _ZN12ModelMixture16getMixtureWeightEi
       1163  48A 002AB080 _ZN12ModelMixture16setMixtureWeightEid
       1164  48B 002AB090 _ZN12ModelMixture16setOptimizeStepsEi
       1165  48C 002AB0A0 _ZN12ModelMixture17estimateInitFreq1Ev
       1166  48D 002AB9B0 _ZN12ModelMixture17estimateInitFreq2Ev
       1167  48E 002AC250 _ZN12ModelMixture17getMemoryRequiredEv
       1168  48F 002AC2B0 _ZN12ModelMixture17getStateFrequencyEPdi
       1169  490 002AC650 _ZN12ModelMixture17restoreCheckpointEv
       1170  491 002AC880 _ZN12ModelMixture18computeTransMatrixEdPdii
       1171  492 002AC980 _ZN12ModelMixture18optimizeParametersEd
       1172  493 002AD2A0 _ZN12ModelMixture19decomposeRateMatrixEv
       1173  494 002AD2E0 _ZN12ModelMixture19optimizeLinkedSubstEd
       1174  495 002AD510 _ZN12ModelMixture19setFixMixtureWeightEb
       1175  496 002AD520 _ZN12ModelMixture20computeTipLikelihoodEjPd
       1176  497 002AD550 _ZN12ModelMixture20isUnstableParametersEv
       1177  498 002AD5B0 _ZN12ModelMixture7getNDimEv
       1178  499 002AD680 _ZN12ModelMixture7getNameB5cxx11Ev
       1179  49A 002AD930 _ZN12ModelMixture7initMemEv
       1180  49B 002ADCD0 _ZN12ModelMixture7isFusedEv
       1181  49C 002ADD50 _ZN12ModelMixture9isMixtureEv
       1182  49D 002ADD60 _ZN12ModelMixture9setBoundsEPdS0_Pb
       1183  49E 002AE120 _ZN12ModelMixture9writeInfoERSo
       1184  49F 002AE250 _ZN12ModelMixtureC1ENSt7__cxx1112basic_stringIcSt11char_traitsIcESaIcEEES5_S5_P11ModelsBlock13StateFreqTypeS5_P9PhyloTreeb
       1185  4A0 002AE6E0 _ZN12ModelMixtureC1EP9PhyloTree
       1186  4A1 002AE750 _ZN12ModelMixtureC2ENSt7__cxx1112basic_stringIcSt11char_traitsIcESaIcEEES5_S5_P11ModelsBlock13StateFreqTypeS5_P9PhyloTreeb
       1187  4A2 002AEBC0 _ZN12ModelMixtureC2EP9PhyloTree
       1188  4A3 002AEC20 _ZN12ModelMixtureD0Ev
       1189  4A4 002AEC50 _ZN12ModelMixtureD1Ev
       1190  4A5 002AEC80 _ZN12ModelMixtureD2Ev
       1191  4A6 002AED70 _ZN12ModelPairSet10insertPairER9ModelPair
       1192  4A7 002AF000 _ZN12ModelPairSet18getCompatiblePairsEiRS_
       1193  4A8 002AF220 _ZN12ModelProtein13getNameParamsB5cxx11Eb
       1194  4A9 002AF4E0 _ZN12ModelProtein14saveCheckpointEv
       1195  4AA 002AF5A0 _ZN12ModelProtein15startCheckpointEv
       1196  4AB 002AF620 _ZN12ModelProtein17restoreCheckpointEv
       1197  4AC 002AF700 _ZN12ModelProtein20computeTipLikelihoodEjPd
       1198  4AD 002AF780 _ZN12ModelProtein4initEPKcNSt7__cxx1112basic_stringIcSt11char_traitsIcESaIcEEE13StateFreqTypeS7_
       1199  4AE 002B13F0 _ZN12ModelProtein9readRatesERSi
       1200  4AF 002B1A00 _ZN12ModelProteinC1EPKcNSt7__cxx1112basic_stringIcSt11char_traitsIcESaIcEEE13StateFreqTypeS7_P9PhyloTreeP11ModelsBlock
       1201  4B0 002B1A00 _ZN12ModelProteinC2EPKcNSt7__cxx1112basic_stringIcSt11char_traitsIcESaIcEEE13StateFreqTypeS7_P9PhyloTreeP11ModelsBlock
       1202  4B1 002B1C30 _ZN12ModelProteinD0Ev
       1203  4B2 002B1C50 _ZN12NxsDataBlock10TransferToER18NxsCharactersBlock
       1204  4B3 002B1C80 _ZN12NxsDataBlock5ResetEv
       1205  4B4 002B1CA0 _ZN12NxsDataBlockC1EP12NxsTaxaBlockP19NxsAssumptionsBlock
       1206  4B5 002B1CA0 _ZN12NxsDataBlockC2EP12NxsTaxaBlockP19NxsAssumptionsBlock
       1207  4B6 002B1D00 _ZN12NxsDataBlockD0Ev
       1208  4B7 002B1D20 _ZN12NxsExceptionC1ERK9NxsStringRK8NxsToken
       1209  4B8 002B1DA0 _ZN12NxsExceptionC1ERK9NxsStringSt4fposIiEll
       1210  4B9 002B1D20 _ZN12NxsExceptionC2ERK9NxsStringRK8NxsToken
       1211  4BA 002B1DA0 _ZN12NxsExceptionC2ERK9NxsStringSt4fposIiEll
       1212  4BB 002B1E10 _ZN12NxsExceptionC2ERKS_
       1213  4BC 002B1E70 _ZN12NxsExceptionD2Ev
       1214  4BD 002B1E90 _ZN12NxsSetReader13GetTokenValueEv
       1215  4BE 002B20D0 _ZN12NxsSetReader3RunEv
       1216  4BF 002B2AC0 _ZN12NxsSetReader8AddRangeEjjj
       1217  4C0 002B2C90 _ZN12NxsSetReaderC1ER8NxsTokenjRSt3setIjSt4lessIjESaIjEER8NxsBlockj
       1218  4C1 002B2C90 _ZN12NxsSetReaderC2ER8NxsTokenjRSt3setIjSt4lessIjESaIjEER8NxsBlockj
       1219  4C2 002B2CF0 _ZN12NxsTaxaBlock11NeedsQuotesEj
       1220  4C3 002B2D40 _ZN12NxsTaxaBlock13AddTaxonLabelE9NxsString
       1221  4C4 002B2EB0 _ZN12NxsTaxaBlock13GetTaxonLabelEj
       1222  4C5 002B2F40 _ZN12NxsTaxaBlock16ChangeTaxonLabelEj9NxsString
       1223  4C6 002B2FD0 _ZN12NxsTaxaBlock16IsAlreadyDefinedE9NxsString
       1224  4C7 002B3000 _ZN12NxsTaxaBlock17GetNumTaxonLabelsEv
       1225  4C8 002B3010 _ZN12NxsTaxaBlock22GetMaxTaxonLabelLengthEv
       1226  4C9 002B3100 _ZN12NxsTaxaBlock4ReadER8NxsToken
       1227  4CA 002B3E30 _ZN12NxsTaxaBlock5ResetEv
       1228  4CB 002B3EC0 _ZN12NxsTaxaBlock6ReportERSo
       1229  4CC 002B41F0 _ZN12NxsTaxaBlock7SetNtaxEj
       1230  4CD 002B4200 _ZN12NxsTaxaBlock9FindTaxonE9NxsString
       1231  4CE 002B4290 _ZN12NxsTaxaBlockC1Ev
       1232  4CF 002B4290 _ZN12NxsTaxaBlockC2Ev
       1233  4D0 002B4340 _ZN12NxsTaxaBlockD0Ev
       1234  4D1 002B4360 _ZN12NxsTaxaBlockD1Ev
       1235  4D2 002B4360 _ZN12NxsTaxaBlockD2Ev
       1236  4D3 002B4540 _ZN12Optimization10targetFunkEPd
       1237  4D4 002B4550 _ZN12Optimization13optimGradientEiPdS0_
       1238  4D5 002B4570 _ZN12Optimization14derivativeFunkEPdS0_
       1239  4D6 002B47B0 _ZN12Optimization14minimizeNewtonEddddRdi
       1240  4D7 002B4AC0 _ZN12Optimization14minimizeNewtonEddddi
       1241  4D8 002B4AF0 _ZN12Optimization15computeFuncDervEdRdS0_
       1242  4D9 002B4B10 _ZN12Optimization15computeFunctionEd
       1243  4DA 002B4B20 _ZN12Optimization16minimizeOneDimenEddddPdS0_
       1244  4DB 002B4D50 _ZN12Optimization17restartParametersEPdiS0_S0_Pbi
       1245  4DC 002B5200 _ZN12Optimization18minimizeMultiDimenEPdiS0_S0_PbdS0_
       1246  4DD 002B5480 _ZN12Optimization19minimizeNewtonMultiEPdS0_S0_dii
       1247  4DE 002B5F20 _ZN12Optimization20computeFuncDervMultiEPdS0_S0_
       1248  4DF 002B5FA0 _ZN12Optimization22minimizeNewtonSafeModeEddddRd
       1249  4E0 002B6070 _ZN12Optimization24minimizeOneDimenSafeModeEddddPd
       1250  4E1 002B6150 _ZN12Optimization6dfpminEPdiS0_S0_dPiS0_S0_
       1251  4E2 002B72A0 _ZN12Optimization6lbfgsbEiiPdS0_S0_PiS0_S1_ddS1_S1_iPcii
       1252  4E3 002B7A70 _ZN12Optimization6lnsrchEiPddS0_S0_S0_S0_dPiS0_S0_
       1253  4E4 002B8550 _ZN12Optimization7getNDimEv
       1254  4E5 002B8560 _ZN12Optimization8L_BFGS_BEiPdS0_S0_di
       1255  4E6 002B8820 _ZN12Optimization9brent_optEddddPdS0_ddd
       1256  4E7 002B8DD0 _ZN12Optimization9optimFuncEiPd
       1257  4E8 002B8DE0 _ZN12OptimizationC1Ev
       1258  4E9 002B8DE0 _ZN12OptimizationC2Ev
       1259  4EA 002B8DF0 _ZN12OptimizationD1Ev
       1260  4EB 002B8DF0 _ZN12OptimizationD2Ev
       1261  4EC 002B8E00 _ZN12RateKategory10targetFunkEPd
       1262  4ED 002B8F00 _ZN12RateKategory12getVariablesEPd
       1263  4EE 002B9030 _ZN12RateKategory12setVariablesEPd
       1264  4EF 002B9060 _ZN12RateKategory15writeParametersERSo
       1265  4F0 002B9070 _ZN12RateKategory16getNDiscreteRateEv
       1266  4F1 002B9080 _ZN12RateKategory18optimizeParametersEd
       1267  4F2 002B93D0 _ZN12RateKategory19computePatternRatesERSt6vectorIdSaIdEERS0_IiSaIiEE
       1268  4F3 002B9640 _ZN12RateKategory7getNDimEv
       1269  4F4 002B9650 _ZN12RateKategory7getRateEi
       1270  4F5 002B9660 _ZN12RateKategory8getNRateEv
       1271  4F6 002B9670 _ZN12RateKategory9writeInfoERSo
       1272  4F7 002B9820 _ZN12RateKategoryC1EiP9PhyloTree
       1273  4F8 002B9D70 _ZN12RateKategoryC2EiP9PhyloTree
       1274  4F9 002BA260 _ZN12RateKategoryD0Ev
       1275  4FA 002BA2C0 _ZN12RateKategoryD1Ev
       1276  4FB 002BA310 _ZN12RateKategoryD2Ev
       1277  4FC 002BA360 _ZN12gzstreambase13get_raw_bytesEv
       1278  4FD 002BA370 _ZN12gzstreambase4openEPKci
       1279  4FE 002BA3B0 _ZN12gzstreambase5closeEv
       1280  4FF 002BA410 _ZN12gzstreambaseC1EPKci
       1281  500 002BA550 _ZN12gzstreambaseC2EPKci
       1282  501 002BA650 _ZN12gzstreambaseD0Ev
       1283  502 002BA6D0 _ZN12gzstreambaseD1Ev
       1284  503 002BA750 _ZN12gzstreambaseD2Ev
       1285  504 002BA7C0 _ZN13CandidateTreeC2ERKS_
       1286  505 002BA8E0 _ZN13CandidateTreeD2Ev
       1287  506 002BA920 _ZN13MemSlotVector13addSpecialNeiEP13PhyloNeighbor
       1288  507 002BAAB0 _ZN13MemSlotVector15eraseSpecialNeiEv
       1289  508 002BAB10 _ZN13MemSlotVector4initEP9PhyloTreei
       1290  509 002BAD50 _ZN13MemSlotVector4lockEP13PhyloNeighbor
       1291  50A 002BAE30 _ZN13MemSlotVector5resetEv
       1292  50B 002BAED0 _ZN13MemSlotVector6addNeiEP13PhyloNeighborN9__gnu_cxx17__normal_iteratorIP7MemSlotSt6vectorIS4_SaIS4_EEEE
       1293  50C 002BAF20 _ZN13MemSlotVector6lockedEP13PhyloNeighbor
       1294  50D 002BAF70 _ZN13MemSlotVector6unlockEP13PhyloNeighbor
       1295  50E 002BB050 _ZN13MemSlotVector6updateEP13PhyloNeighbor
       1296  50F 002BB0D0 _ZN13MemSlotVector7findNeiEP13PhyloNeighbor
       1297  510 002BB240 _ZN13MemSlotVector7replaceEP13PhyloNeighborS1_
       1298  511 002BB400 _ZN13MemSlotVector7restoreEP13PhyloNeighborS1_
       1299  512 002BB640 _ZN13MemSlotVector8allocateEP13PhyloNeighbor
       1300  513 002BB840 _ZN13MemSlotVector8takeoverEP13PhyloNeighborS1_
       1301  514 002BBB00 _ZN13MemSlotVectorD2Ev
       1302  515 002BBB80 _ZN13ModelDNAError12getVariablesEPd
       1303  516 002BBBE0 _ZN13ModelDNAError12setVariablesEPd
       1304  517 002BBC20 _ZN13ModelDNAError13getDNAErrProbEi
       1305  518 002BBC30 _ZN13ModelDNAError13getNameParamsB5cxx11Eb
       1306  519 002BBFE0 _ZN13ModelDNAError14saveCheckpointEv
       1307  51A 002BC080 _ZN13ModelDNAError15containDNAerrorEv
       1308  51B 002BC090 _ZN13ModelDNAError15startCheckpointEv
       1309  51C 002BC110 _ZN13ModelDNAError17restoreCheckpointEv
       1310  51D 002BC1B0 _ZN13ModelDNAError20computeTipLikelihoodEjPd
       1311  51E 002BC680 _ZN13ModelDNAError7getNDimEv
       1312  51F 002BC6A0 _ZN13ModelDNAError7getNameB5cxx11Ev
       1313  520 002BC710 _ZN13ModelDNAError9setBoundsEPdS0_Pb
       1314  521 002BC770 _ZN13ModelDNAError9writeInfoERSo
       1315  522 002BC830 _ZN13ModelDNAErrorC1EP9PhyloTree
       1316  523 002BC8A0 _ZN13ModelDNAErrorC1EPKcNSt7__cxx1112basic_stringIcSt11char_traitsIcESaIcEEE13StateFreqTypeS7_S7_P9PhyloTree
       1317  524 002BC830 _ZN13ModelDNAErrorC2EP9PhyloTree
       1318  525 002BC8A0 _ZN13ModelDNAErrorC2EPKcNSt7__cxx1112basic_stringIcSt11char_traitsIcESaIcEEE13StateFreqTypeS7_S7_P9PhyloTree
       1319  526 002BD0A0 _ZN13ModelDNAErrorD0Ev
       1320  527 002BD180 _ZN13ModelDNAErrorD2Ev
       1321  528 002BD250 _ZN13NxsTreesBlock11BriefReportER9NxsString
       1322  529 002BD350 _ZN13NxsTreesBlock11GetNumTreesEv
       1323  52A 002BD360 _ZN13NxsTreesBlock11GetTreeNameEj
       1324  52B 002BD3E0 _ZN13NxsTreesBlock12IsRootedTreeEj
       1325  52C 002BD430 _ZN13NxsTreesBlock13IsDefaultTreeEj
       1326  52D 002BD470 _ZN13NxsTreesBlock17GetNumDefaultTreeEv
       1327  52E 002BD480 _ZN13NxsTreesBlock18GetTreeDescriptionEj
       1328  52F 002BD500 _ZN13NxsTreesBlock19ReplaceTaxaBlockPtrEP12NxsTaxaBlock
       1329  530 002BD530 _ZN13NxsTreesBlock21HandleTreeDescriptionER8NxsTokenb
       1330  531 002BDEC0 _ZN13NxsTreesBlock28GetTranslatedTreeDescriptionEj
       1331  532 002BE280 _ZN13NxsTreesBlock4ReadER8NxsToken
       1332  533 002BF380 _ZN13NxsTreesBlock5ResetEv
       1333  534 002BF490 _ZN13NxsTreesBlock6ReportERSo
       1334  535 002BF8C0 _ZN13NxsTreesBlockC1EP12NxsTaxaBlock
       1335  536 002BF8C0 _ZN13NxsTreesBlockC2EP12NxsTaxaBlock
       1336  537 002BFA00 _ZN13NxsTreesBlockD0Ev
       1337  538 002BFA20 _ZN13NxsTreesBlockD1Ev
       1338  539 002BFA20 _ZN13NxsTreesBlockD2Ev
       1339  53A 002BFC50 _ZN13PartitionInfoC2ERKS_
       1340  53B 002BFE80 _ZN13PartitionInfoD2Ev
       1341  53C 002C0030 _ZN13PartitionInfoaSEOS_
       1342  53D 002C01A0 _ZN13PartitionInfoaSERKS_
       1343  53E 002C0320 _ZN13PhyloNeighbor11newNeighborEv
       1344  53F 002C0400 _ZN13PhyloNeighbor21clearForwardPartialLhEP4Node
       1345  540 002C0460 _ZN13PhyloNeighborD0Ev
       1346  541 002C04A0 _ZN13QuartetGroupsD2Ev
       1347  542 002C0570 _ZN13RateFreeInvar10targetFunkEPd
       1348  543 002C05C0 _ZN13RateFreeInvar12getVariablesEPd
       1349  544 002C10F0 _ZN13RateFreeInvar12setNCategoryEi
       1350  545 002C1230 _ZN13RateFreeInvar12setVariablesEPd
       1351  546 002C17E0 _ZN13RateFreeInvar13getNameParamsB5cxx11Ev
       1352  547 002C1980 _ZN13RateFreeInvar14saveCheckpointEv
       1353  548 002C19A0 _ZN13RateFreeInvar15computeFunctionEd
       1354  549 002C19F0 _ZN13RateFreeInvar15startCheckpointEv
       1355  54A 002C1B20 _ZN13RateFreeInvar15writeParametersERSo
       1356  54B 002C1B50 _ZN13RateFreeInvar17restoreCheckpointEv
       1357  54C 002C1B70 _ZN13RateFreeInvar18optimizeParametersEd
       1358  54D 002C1B80 _ZN13RateFreeInvar7getNDimEv
       1359  54E 002C1BB0 _ZN13RateFreeInvar7getPropEi
       1360  54F 002C1BC0 _ZN13RateFreeInvar7getRateEi
       1361  550 002C1BD0 _ZN13RateFreeInvar9setBoundsEPdS0_Pb
       1362  551 002C1C40 _ZN13RateFreeInvar9writeInfoERSo
       1363  552 002C1C70 _ZN13RateFreeInvarC1EidNSt7__cxx1112basic_stringIcSt11char_traitsIcESaIcEEEbdS5_P9PhyloTree
       1364  553 002C2290 _ZN13RateFreeInvarC2EidNSt7__cxx1112basic_stringIcSt11char_traitsIcESaIcEEEbdS5_P9PhyloTree
       1365  554 002C2820 _ZN13RateFreeInvarD0Ev
       1366  555 002C2860 _ZN13RateFreeInvarD1Ev
       1367  556 002C2890 _ZN13SuperNeighbor11newNeighborEv
       1368  557 002C2980 _ZN13SuperNeighborD0Ev
       1369  558 002C29D0 _ZN13SuperNeighborD2Ev
       1370  559 002C2A20 _ZN13SymTestResult13computePvalueEv
       1371  55A 002C2B20 _ZN14CandidateModel13getUsualModelEP9Alignment
       1372  55B 002C36D0 _ZN14CandidateModel14computeICScoreEy
       1373  55C 002C3780 _ZN14CandidateModel14saveCheckpointEP10Checkpoint
       1374  55D 002C3A20 _ZN14CandidateModel15computeICScoresEv
       1375  55E 002C3C10 _ZN14CandidateModel15computeICScoresEy
       1376  55F 002C3CC0 _ZN14CandidateModel17restoreCheckpointEP10Checkpoint
       1377  560 002C3E90 _ZN14CandidateModel21evaluateConcatenationB5cxx11ER6ParamsP14SuperAlignmentR15ModelCheckpointP11ModelsBlocki
       1378  561 002C41C0 _ZN14CandidateModel24restoreCheckpointRminus1EP10CheckpointPS_
       1379  562 002C4600 _ZN14CandidateModel7getNameB5cxx11Ev
       1380  563 002C46C0 _ZN14CandidateModel8evaluateB5cxx11ER6ParamsR15ModelCheckpointS3_P11ModelsBlockRii
       1381  564 002C6AA0 _ZN14CandidateModel8getScoreE18ModelTestCriterion
       1382  565 002C6B90 _ZN14CandidateModel8getScoreEv
       1383  566 002C6BB0 _ZN14CandidateModelC2ENSt7__cxx1112basic_stringIcSt11char_traitsIcESaIcEEES5_P9Alignmenti
       1384  567 002C6D00 _ZN14CandidateModelC2EOS_
       1385  568 002C6F70 _ZN14CandidateModelC2ERKS_
       1386  569 002C73F0 _ZN14CandidateModelD2Ev
       1387  56A 002C7480 _ZN14CandidateModelaSEOS_
       1388  56B 002C79F0 _ZN14ConstraintTree10removeTaxaERSt6vectorINSt7__cxx1112basic_stringIcSt11char_traitsIcESaIcEEESaIS6_EE
       1389  56C 002C7A30 _ZN14ConstraintTree12initFromTreeEv
       1390  56D 002C7EA0 _ZN14ConstraintTree12isCompatibleEP4NodeS1_
       1391  56E 002C7FE0 _ZN14ConstraintTree12isCompatibleEP5MTree
       1392  56F 002C82D0 _ZN14ConstraintTree12isCompatibleER7NNIMove
       1393  570 002C84A0 _ZN14ConstraintTree12isCompatibleERSt6vectorINSt7__cxx1112basic_stringIcSt11char_traitsIcESaIcEEESaIS6_EES9_
       1394  571 002C8800 _ZN14ConstraintTree14readConstraintEPKcRSt6vectorINSt7__cxx1112basic_stringIcSt11char_traitsIcESaIcEEESaIS8_EE
       1395  572 002C8AD0 _ZN14ConstraintTree14readConstraintER5MTree
       1396  573 002C8B70 _ZN14ConstraintTreeC1Ev
       1397  574 002C8B70 _ZN14ConstraintTreeC2Ev
       1398  575 002C8C00 _ZN14ConstraintTreeD0Ev
       1399  576 002C8C20 _ZN14ConstraintTreeD1Ev
       1400  577 002C8C20 _ZN14ConstraintTreeD2Ev
       1401  578 002C8DB0 _ZN14ModelLieMarkov11isLieMarkovEv
       1402  579 002C8DC0 _ZN14ModelLieMarkov12getVariablesEPd
       1403  57A 002C9250 _ZN14ModelLieMarkov12isReversibleEv
       1404  57B 002C9260 _ZN14ModelLieMarkov12mappingFreqsE13StateFreqTypePd
       1405  57C 002C9420 _ZN14ModelLieMarkov12setVariablesEPd
       1406  57D 002C94D0 _ZN14ModelLieMarkov13validFreqTypeEv
       1407  57E 002C9550 _ZN14ModelLieMarkov14parseModelNameENSt7__cxx1112basic_stringIcSt11char_traitsIcESaIcEEEPiS6_
       1408  57F 002C9A70 _ZN14ModelLieMarkov14saveCheckpointEv
       1409  580 002C9B50 _ZN14ModelLieMarkov14validModelNameENSt7__cxx1112basic_stringIcSt11char_traitsIcESaIcEEE
       1410  581 002C9C20 _ZN14ModelLieMarkov15startCheckpointEv
       1411  582 002C9D10 _ZN14ModelLieMarkov17restartParametersEPdiS0_S0_Pbi
       1412  583 002CA3D0 _ZN14ModelLieMarkov17restoreCheckpointEv
       1413  584 002CA4E0 _ZN14ModelLieMarkov18computeTransMatrixEdPdii
       1414  585 002CA4F0 _ZN14ModelLieMarkov19decomposeRateMatrixEv
       1415  586 002CA500 _ZN14ModelLieMarkov20initStateFreqsAliSimE13StateFreqType
       1416  587 002CA750 _ZN14ModelLieMarkov21getLieMarkovModelInfoENSt7__cxx1112basic_stringIcSt11char_traitsIcESaIcEEERS5_S6_RiS7_R13StateFreqType
       1417  588 002CAEC0 _ZN14ModelLieMarkov28decomposeRateMatrixEigen3libEv
       1418  589 002CB9D0 _ZN14ModelLieMarkov29decomposeRateMatrixClosedFormEv
       1419  58A 002D1070 _ZN14ModelLieMarkov4initEPKcNSt7__cxx1112basic_stringIcSt11char_traitsIcESaIcEEE13StateFreqTypeS7_
       1420  58B 002D2050 _ZN14ModelLieMarkov7getNameB5cxx11Ev
       1421  58C 002D2280 _ZN14ModelLieMarkov8setBasisEv
       1422  58D 002D2D50 _ZN14ModelLieMarkov8setRatesEv
       1423  58E 002D34F0 _ZN14ModelLieMarkov9readFreqsE13StateFreqTypeNSt7__cxx1112basic_stringIcSt11char_traitsIcESaIcEEE
       1424  58F 002D4430 _ZN14ModelLieMarkov9setBoundsEPdS0_Pb
       1425  590 002D45E0 _ZN14ModelLieMarkov9writeInfoERSo
       1426  591 002D46D0 _ZN14ModelLieMarkovC1ENSt7__cxx1112basic_stringIcSt11char_traitsIcESaIcEEEP9PhyloTreeS5_13StateFreqTypeS5_
       1427  592 002D46D0 _ZN14ModelLieMarkovC2ENSt7__cxx1112basic_stringIcSt11char_traitsIcESaIcEEEP9PhyloTreeS5_13StateFreqTypeS5_
       1428  593 002D4DB0 _ZN14ModelLieMarkovD0Ev
       1429  594 002D4E00 _ZN14ModelLieMarkovD1Ev
       1430  595 002D4E00 _ZN14ModelLieMarkovD2Ev
       1431  596 002D4E50 _ZN14PartitionModel10targetFunkEPd
       1432  597 002D4FF0 _ZN14PartitionModel12getVariablesEPd
       1433  598 002D5170 _ZN14PartitionModel12isReversibleEv
       1434  599 002D51E0 _ZN14PartitionModel12setVariablesEPd
       1435  59A 002D5200 _ZN14PartitionModel13isLinkedModelEv
       1436  59B 002D5230 _ZN14PartitionModel13setCheckpointEP10Checkpoint
       1437  59C 002D5290 _ZN14PartitionModel14getNParametersEi
       1438  59D 002D5380 _ZN14PartitionModel14saveCheckpointEv
       1439  59E 002D5660 _ZN14PartitionModel14scaleStateFreqEb
       1440  59F 002D57B0 _ZN14PartitionModel15computeFunctionEd
       1441  5A0 002D5900 _ZN14PartitionModel15startCheckpointEv
       1442  5A1 002D5980 _ZN14PartitionModel17reportLinkedModelERSo
       1443  5A2 002D5AF0 _ZN14PartitionModel17restoreCheckpointEv
       1444  5A3 002D5ED0 _ZN14PartitionModel18optimizeParametersEibdd
       1445  5A4 002D6450 _ZN14PartitionModel19optimizeLinkedAlphaEbd
       1446  5A5 002D6650 _ZN14PartitionModel19optimizeLinkedModelEbd
       1447  5A6 002D6BA0 _ZN14PartitionModel20isUnstableParametersEv
       1448  5A7 002D6C00 _ZN14PartitionModel20optimizeLinkedModelsEbd
       1449  5A8 002D6EC0 _ZN14PartitionModel28optimizeParametersGammaInvarEibdd
       1450  5A9 002D6F00 _ZN14PartitionModel7getNDimEv
       1451  5AA 002D6F10 _ZN14PartitionModelC1ER6ParamsP14PhyloSuperTreeP11ModelsBlock
       1452  5AB 002D81D0 _ZN14PartitionModelC1Ev
       1453  5AC 002D6F10 _ZN14PartitionModelC2ER6ParamsP14PhyloSuperTreeP11ModelsBlock
       1454  5AD 002D81D0 _ZN14PartitionModelC2Ev
       1455  5AE 002D8250 _ZN14PartitionModelD0Ev
       1456  5AF 002D8310 _ZN14PartitionModelD1Ev
       1457  5B0 002D8310 _ZN14PartitionModelD2Ev
       1458  5B1 002D83C0 _ZN14PhyloSuperTree10linkBranchEiP13SuperNeighborS1_
       1459  5B2 002D8A40 _ZN14PhyloSuperTree11computeDistEiidRd
       1460  5B3 002D8B50 _ZN14PhyloSuperTree11getAlnNSiteEv
       1461  5B4 002D8BA0 _ZN14PhyloSuperTree11getNumLhCatE12SiteLoglType
       1462  5B5 002D8BF0 _ZN14PhyloSuperTree11isSuperTreeEv
       1463  5B6 002D8C00 _ZN14PhyloSuperTree11setPartInfoEPS_
       1464  5B7 002D8F50 _ZN14PhyloSuperTree11syncRootingEv
       1465  5B8 002D8FC0 _ZN14PhyloSuperTree11writeBranchERSoP4NodeS2_
       1466  5B9 002D92A0 _ZN14PhyloSuperTree11writeSiteLhERSo12SiteLoglTypei
       1467  5BA 002D9300 _ZN14PhyloSuperTree12getModelNameB5cxx11Ev
       1468  5BB 002D9340 _ZN14PhyloSuperTree12initSettingsER6Params
       1469  5BC 002D93C0 _ZN14PhyloSuperTree12printMapInfoEv
       1470  5BD 002D9800 _ZN14PhyloSuperTree13getTreeStringB5cxx11Ev
       1471  5BE 002D99A0 _ZN14PhyloSuperTree13initSequencesEP4NodeS1_
       1472  5BF 002D9A00 _ZN14PhyloSuperTree13setCheckpointEP10Checkpoint
       1473  5C0 002D9A60 _ZN14PhyloSuperTree13setNumThreadsEi
       1474  5C1 002D9B20 _ZN14PhyloSuperTree13writeBranchesERSo
       1475  5C2 002D9D80 _ZN14PhyloSuperTree14changeNNIBransER7NNIMove
       1476  5C3 002DA390 _ZN14PhyloSuperTree14extractSubtreeERSt3setIiSt4lessIiESaIiEE
       1477  5C4 002DA620 _ZN14PhyloSuperTree14getAlnNPatternEv
       1478  5C5 002DA670 _ZN14PhyloSuperTree14readTreeStringERKNSt7__cxx1112basic_stringIcSt11char_traitsIcESaIcEEE
       1479  5C6 002DA900 _ZN14PhyloSuperTree14reinsertLeavesERSt6vectorIP9PhyloNodeSaIS2_EE
       1480  5C7 002DA920 _ZN14PhyloSuperTree14saveCheckpointEv
       1481  5C8 002DA930 _ZN14PhyloSuperTree14writeSiteRatesERSobi
       1482  5C9 002DA990 _ZN14PhyloSuperTree15printResultTreeENSt7__cxx1112basic_stringIcSt11char_traitsIcESaIcEEE
       1483  5CA 002DAF70 _ZN14PhyloSuperTree15setModelFactoryEP12ModelFactory
       1484  5CB 002DB0A0 _ZN14PhyloSuperTree17clearAllPartialLHEb
       1485  5CC 002DB0F0 _ZN14PhyloSuperTree17computeLikelihoodEPdb
       1486  5CD 002DB2D0 _ZN14PhyloSuperTree17fixNegativeBranchEbP4NodeS1_
       1487  5CE 002DB370 _ZN14PhyloSuperTree17getBestNNIForBranEP9PhyloNodeS1_P7NNIMove
       1488  5CF 002DC0F0 _ZN14PhyloSuperTree17getMemoryRequiredEyb
       1489  5D0 002DC160 _ZN14PhyloSuperTree17initPartitionInfoEv
       1490  5D1 002DC600 _ZN14PhyloSuperTree17restoreCheckpointEv
       1491  5D2 002DC610 _ZN14PhyloSuperTree17saveBranchLengthsERSt6vectorIdSaIdEEiP9PhyloNodeS5_
       1492  5D3 002DC7E0 _ZN14PhyloSuperTree17setSuperAlignmentEP9Alignment
       1493  5D4 002DC870 _ZN14PhyloSuperTree18countEmptyBranchesEP9PhyloNodeS1_
       1494  5D5 002DC910 _ZN14PhyloSuperTree18deleteAllPartialLhEv
       1495  5D6 002DC950 _ZN14PhyloSuperTree18setParsimonyKernelE16LikelihoodKernel
       1496  5D7 002DC9B0 _ZN14PhyloSuperTree19optimizeAllBranchesEidi
       1497  5D8 002DCB20 _ZN14PhyloSuperTree19removeIdenticalSeqsER6Params
       1498  5D9 002DCE40 _ZN14PhyloSuperTree19setLikelihoodKernelE16LikelihoodKernel
       1499  5DA 002DCEA0 _ZN14PhyloSuperTree20computeBranchLengthsEv
       1500  5DB 002DDD90 _ZN14PhyloSuperTree20getMaxPartNameLengthEv
       1501  5DC 002DDDE0 _ZN14PhyloSuperTree20restoreBranchLengthsERSt6vectorIdSaIdEEiP9PhyloNodeS5_
       1502  5DD 002DDE90 _ZN14PhyloSuperTree21computePartitionOrderEv
       1503  5DE 002DE630 _ZN14PhyloSuperTree21reinsertIdenticalSeqsEP9Alignment
       1504  5DF 002DE6B0 _ZN14PhyloSuperTree22changeLikelihoodKernelE16LikelihoodKernel
       1505  5E0 002DE6C0 _ZN14PhyloSuperTree22initializeAllPartialLhEv
       1506  5E1 002DE700 _ZN14PhyloSuperTree24collapseInternalBranchesEP4NodeS1_d
       1507  5E2 002DE920 _ZN14PhyloSuperTree24computePatternLikelihoodEPdS0_S0_12SiteLoglType
       1508  5E3 002DEC70 _ZN14PhyloSuperTree24printBestPartitionParamsEPKc
       1509  5E4 002DFDD0 _ZN14PhyloSuperTree25endMarginalAncestralStateEbRPdRPi
       1510  5E5 002DFEB0 _ZN14PhyloSuperTree25getMemoryRequiredThreadedEyb
       1511  5E6 002E00E0 _ZN14PhyloSuperTree26initMarginalAncestralStateERSoRbRPdRPi
       1512  5E7 002E0200 _ZN14PhyloSuperTree27writeMarginalAncestralStateERSoP9PhyloNodePdPi
       1513  5E8 002E0480 _ZN14PhyloSuperTree28computeSubtreeAncestralStateEP13PhyloNeighborP9PhyloNodePdPi
       1514  5E9 002E0890 _ZN14PhyloSuperTree29computeMarginalAncestralStateEP13PhyloNeighborP9PhyloNodePdPi
       1515  5EA 002E0CA0 _ZN14PhyloSuperTree30computeParsimonyBranchObsoleteEP13PhyloNeighborP9PhyloNodePi
       1516  5EB 002E0D40 _ZN14PhyloSuperTree33computePatternProbabilityCategoryEPd12SiteLoglType
       1517  5EC 002E0DE0 _ZN14PhyloSuperTree5doNNIER7NNIMoveb
       1518  5ED 002E1080 _ZN14PhyloSuperTree7newNodeEiPKc
       1519  5EE 002E10D0 _ZN14PhyloSuperTree7newNodeEii
       1520  5EF 002E1120 _ZN14PhyloSuperTree8linkTreeEiRSt6vectorIP4NodeSaIS2_EEP9SuperNodeS7_
       1521  5F0 002E14A0 _ZN14PhyloSuperTree8mapTreesEv
       1522  5F1 002E1B30 _ZN14PhyloSuperTree9linkTreesEv
       1523  5F2 002E1D90 _ZN14PhyloSuperTree9setParamsEP6Params
       1524  5F3 002E1DF0 _ZN14PhyloSuperTreeC1EP14SuperAlignmentPS_
       1525  5F4 002E20D0 _ZN14PhyloSuperTreeC1EP14SuperAlignmentb
       1526  5F5 002E2590 _ZN14PhyloSuperTreeC1Ev
       1527  5F6 002E1DF0 _ZN14PhyloSuperTreeC2EP14SuperAlignmentPS_
       1528  5F7 002E20D0 _ZN14PhyloSuperTreeC2EP14SuperAlignmentb
       1529  5F8 002E2590 _ZN14PhyloSuperTreeC2Ev
       1530  5F9 002E2610 _ZN14PhyloSuperTreeD0Ev
       1531  5FA 002E2630 _ZN14PhyloSuperTreeD1Ev
       1532  5FB 002E2630 _ZN14PhyloSuperTreeD2Ev
       1533  5FC 002E27F0 _ZN14RateGammaInvar10targetFunkEPd
       1534  5FD 002E28E0 _ZN14RateGammaInvar12getVariablesEPd
       1535  5FE 002E2940 _ZN14RateGammaInvar12rescaleRatesEv
       1536  5FF 002E2A20 _ZN14RateGammaInvar12setNCategoryEi
       1537  600 002E2EB0 _ZN14RateGammaInvar12setVariablesEPd
       1538  601 002E2EE0 _ZN14RateGammaInvar13getNameParamsB5cxx11Ev
       1539  602 002E3080 _ZN14RateGammaInvar14optimizeWithEMEd
       1540  603 002E35A0 _ZN14RateGammaInvar14saveCheckpointEv
       1541  604 002E35C0 _ZN14RateGammaInvar15computeFunctionEd
       1542  605 002E37B0 _ZN14RateGammaInvar15startCheckpointEv
       1543  606 002E3840 _ZN14RateGammaInvar15writeParametersERSo
       1544  607 002E3870 _ZN14RateGammaInvar17restoreCheckpointEv
       1545  608 002E39F0 _ZN14RateGammaInvar18optimizeParametersEd
       1546  609 002E3F70 _ZN14RateGammaInvar19computePatternRatesERSt6vectorIdSaIdEERS0_IiSaIiEE
       1547  60A 002E41A0 _ZN14RateGammaInvar25randomRestartOptimizationEd
       1548  60B 002E4720 _ZN14RateGammaInvar7getNDimEv
       1549  60C 002E4740 _ZN14RateGammaInvar7getPropEi
       1550  60D 002E4760 _ZN14RateGammaInvar7getRateEi
       1551  60E 002E4770 _ZN14RateGammaInvar9meanRatesEv
       1552  60F 002E4850 _ZN14RateGammaInvar9setBoundsEPdS0_Pb
       1553  610 002E48A0 _ZN14RateGammaInvar9setPInvarEd
       1554  611 002E4A40 _ZN14RateGammaInvar9writeInfoERSo
       1555  612 002E4A70 _ZN14RateGammaInvarC1EidbdNSt7__cxx1112basic_stringIcSt11char_traitsIcESaIcEEEP9PhyloTreeb
       1556  613 002E5020 _ZN14RateGammaInvarC2EidbdNSt7__cxx1112basic_stringIcSt11char_traitsIcESaIcEEEP9PhyloTreeb
       1557  614 002E5590 _ZN14RateGammaInvarD0Ev
       1558  615 002E5600 _ZN14RateGammaInvarD1Ev
       1559  616 002E5670 _ZN14SuperAlignment11computeDistEii
       1560  617 002E5710 _ZN14SuperAlignment12buildPatternEv
       1561  618 002E5AA0 _ZN14SuperAlignment13printSiteInfoEPKc
       1562  619 002E5BE0 _ZN14SuperAlignment13readPartitionER6Params
       1563  61A 002E6550 _ZN14SuperAlignment14computeObsDistEii
       1564  61B 002E67B0 _ZN14SuperAlignment14countConstSiteEv
       1565  61C 002E6AC0 _ZN14SuperAlignment14getPatternFreqEPi
       1566  61D 002E6BD0 _ZN14SuperAlignment14getPatternFreqERSt6vectorIiSaIiEE
       1567  61E 002E6D30 _ZN14SuperAlignment14printAlignmentE9InputTypeRSoPKcbS3_iS3_
       1568  61F 002E6E00 _ZN14SuperAlignment14printPartitionEPKcS1_
       1569  620 002E6FF0 _ZN14SuperAlignment14printPartitionERSoPKcb
       1570  621 002E7C00 _ZN14SuperAlignment14readFromParamsER6Params
       1571  622 002E9310 _ZN14SuperAlignment15getMaxNumStatesEv
       1572  623 002E9320 _ZN14SuperAlignment16isSuperAlignmentEv
       1573  624 002E9330 _ZN14SuperAlignment16linkSubAlignmentEi
       1574  625 002E9670 _ZN14SuperAlignment16readPartitionDirENSt7__cxx1112basic_stringIcSt11char_traitsIcESaIcEEEPcR9InputTypeS5_b
       1575  626 002EA050 _ZN14SuperAlignment16removePartitionsERSt3setIiSt4lessIiESaIiEE
       1576  627 002EAAF0 _ZN14SuperAlignment16shuffleAlignmentEv
       1577  628 002EABD0 _ZN14SuperAlignment17checkAbsentStatesENSt7__cxx1112basic_stringIcSt11char_traitsIcESaIcEEE
       1578  629 002EAD70 _ZN14SuperAlignment17extractPartitionsERSt6vectorIiSaIiEE
       1579  62A 002EB6D0 _ZN14SuperAlignment17readPartitionListENSt7__cxx1112basic_stringIcSt11char_traitsIcESaIcEEEPcR9InputTypeS5_b
       1580  62B 002EBE60 _ZN14SuperAlignment18computeMissingDataEv
       1581  62C 002EC070 _ZN14SuperAlignment18printBestPartitionEPKc
       1582  62D 002ED180 _ZN14SuperAlignment18printSubAlignmentsER6Params
       1583  62E 002ED3B0 _ZN14SuperAlignment18readPartitionNexusER6Params
       1584  62F 002EED40 _ZN14SuperAlignment18readPartitionRaxmlER6Params
       1585  630 002F0B80 _ZN14SuperAlignment18removeIdenticalSeqENSt7__cxx1112basic_stringIcSt11char_traitsIcESaIcEEEbRSt6vectorIS5_SaIS5_EES9_
       1586  631 002F1770 _ZN14SuperAlignment19extractSubAlignmentEP9AlignmentRSt6vectorIiSaIiEEiiPS4_
       1587  632 002F20C0 _ZN14SuperAlignment19getSitePatternIndexERSt6vectorIiSaIiEE
       1588  633 002F21A0 _ZN14SuperAlignment19printPartitionRaxmlEPKc
       1589  634 002F2920 _ZN14SuperAlignment21concatenateAlignmentsERSt3setIiSt4lessIiESaIiEE
       1590  635 002F39B0 _ZN14SuperAlignment21concatenateAlignmentsEv
       1591  636 002F43B0 _ZN14SuperAlignment22computeQuartetSupportsERSt6vectorIiSaIiEERS0_IxSaIxEE
       1592  637 002F4800 _ZN14SuperAlignment22orderPatternByNumCharsEi
       1593  638 002F4C80 _ZN14SuperAlignment22printCombinedAlignmentERSob
       1594  639 002F53D0 _ZN14SuperAlignment23computeDivergenceMatrixEPdS0_b
       1595  63A 002F5C70 _ZN14SuperAlignment23printBestPartitionRaxmlEPKc
       1596  63B 002F65C0 _ZN14SuperAlignment24computeUnconstrainedLogLEv
       1597  63C 002F6630 _ZN14SuperAlignment24createBootstrapAlignmentEP9AlignmentPSt6vectorIiSaIiEEPKc
       1598  63D 002F7510 _ZN14SuperAlignment24createBootstrapAlignmentEPiPKcS0_
       1599  63E 002F7B40 _ZN14SuperAlignment24createBootstrapAlignmentERSt6vectorIiSaIiEEPKc
       1600  63F 002F7CA0 _ZN14SuperAlignment4initEPSt6vectorINSt7__cxx1112basic_stringIcSt11char_traitsIcESaIcEEESaIS6_EE
       1601  640 002F8510 _ZN14SuperAlignment9doSymTestEyRSt6vectorI13SymTestResultSaIS1_EES4_S4_PiPS0_I11SymTestStatSaIS6_EE
       1602  641 002F86B0 _ZN14SuperAlignmentC1ER6Params
       1603  642 002F8940 _ZN14SuperAlignmentC1Ev
       1604  643 002F86B0 _ZN14SuperAlignmentC2ER6Params
       1605  644 002F8940 _ZN14SuperAlignmentC2Ev
       1606  645 002F8980 _ZN14SuperAlignmentD0Ev
       1607  646 002F89A0 _ZN14SuperAlignmentD1Ev
       1608  647 002F89A0 _ZN14SuperAlignmentD2Ev
       1609  648 002F8A80 _ZN15InputOutputFile16setBootstrapTreeENSt7__cxx1112basic_stringIcSt11char_traitsIcESaIcEEE
       1610  649 002F8B20 _ZN15InputOutputFile7setTreeENSt7__cxx1112basic_stringIcSt11char_traitsIcESaIcEEE
       1611  64A 002F8BC0 _ZN15InputOutputFileC1EP2Pr
       1612  64B 002F8BC0 _ZN15InputOutputFileC2EP2Pr
       1613  64C 002F9090 _ZN15InputOutputFileD0Ev
       1614  64D 002F90B0 _ZN15InputOutputFileD1Ev
       1615  64E 002F90B0 _ZN15InputOutputFileD2Ev
       1616  64F 002F92C0 _ZN15ModelCheckpoint11getBestTreeERNSt7__cxx1112basic_stringIcSt11char_traitsIcESaIcEEE
       1617  650 002F9470 _ZN15ModelCheckpoint12getBestModelERNSt7__cxx1112basic_stringIcSt11char_traitsIcESaIcEEE
       1618  651 002F9620 _ZN15ModelCheckpoint16getBestModelListERNSt7__cxx1112basic_stringIcSt11char_traitsIcESaIcEEE
       1619  652 002F97D0 _ZN15ModelCheckpoint16getOrderedModelsEP9PhyloTreeR17CandidateModelSet
       1620  653 002FA4D0 _ZN15ModelCheckpoint16putBestModelListERNSt7__cxx1112basic_stringIcSt11char_traitsIcESaIcEEE
       1621  654 002FA740 _ZN15ModelCheckpointD0Ev
       1622  655 002FA760 _ZN15ModelMorphology13getNameParamsB5cxx11Eb
       1623  656 002FAA20 _ZN15ModelMorphology14saveCheckpointEv
       1624  657 002FAAD0 _ZN15ModelMorphology15startCheckpointEv
       1625  658 002FAB50 _ZN15ModelMorphology15writeParametersERSo
       1626  659 002FAC20 _ZN15ModelMorphology17restoreCheckpointEv
       1627  65A 002FACF0 _ZN15ModelMorphology4initEPKcNSt7__cxx1112basic_stringIcSt11char_traitsIcESaIcEEE13StateFreqTypeS7_
       1628  65B 002FB2E0 _ZN15ModelMorphology7getNDimEv
       1629  65C 002FB300 _ZN15ModelMorphology9readRatesERSi
       1630  65D 002FB5B0 _ZN15ModelMorphology9writeInfoERSo
       1631  65E 002FB740 _ZN15ModelMorphologyC1EPKcNSt7__cxx1112basic_stringIcSt11char_traitsIcESaIcEEE13StateFreqTypeS7_P9PhyloTree
       1632  65F 002FB740 _ZN15ModelMorphologyC2EPKcNSt7__cxx1112basic_stringIcSt11char_traitsIcESaIcEEE13StateFreqTypeS7_P9PhyloTree
       1633  660 002FB960 _ZN15ModelMorphologyD0Ev
       1634  661 002FB980 _ZN15ModelMorphologyD1Ev
       1635  662 002FB980 _ZN15ModelMorphologyD2Ev
       1636  663 002FB990 _ZN15PhyloNodeMixlen11addNeighborEP4NodeRSt6vectorIdSaIdEEi
       1637  664 002FBC80 _ZN15PhyloNodeMixlen11addNeighborEP4Nodedi
       1638  665 002FBE00 _ZN15PhyloNodeMixlenD0Ev
       1639  666 002FBE20 _ZN15PhyloTreeMixlen10targetFunkEPd
       1640  667 002FBED0 _ZN15PhyloTreeMixlen11optimizeNNIEb
       1641  668 002FC200 _ZN15PhyloTreeMixlen11treeLengthsERSt6vectorIdSaIdEEP4NodeS5_
       1642  669 002FC2D0 _ZN15PhyloTreeMixlen13getCurMixtureEv
       1643  66A 002FC2E0 _ZN15PhyloTreeMixlen14derivativeFunkEPdS0_
       1644  66B 002FC580 _ZN15PhyloTreeMixlen14readTreeStringERKNSt7__cxx1112basic_stringIcSt11char_traitsIcESaIcEEE
       1645  66C 002FC5E0 _ZN15PhyloTreeMixlen14saveCheckpointEv
       1646  66D 002FC960 _ZN15PhyloTreeMixlen15computeFuncDervEdRdS0_
       1647  66E 002FCA30 _ZN15PhyloTreeMixlen15initializeModelER6ParamsNSt7__cxx1112basic_stringIcSt11char_traitsIcESaIcEEEP11ModelsBlock
       1648  66F 002FCBE0 _ZN15PhyloTreeMixlen15printResultTreeENSt7__cxx1112basic_stringIcSt11char_traitsIcESaIcEEE
       1649  670 002FD100 _ZN15PhyloTreeMixlen15startCheckpointEv
       1650  671 002FD250 _ZN15PhyloTreeMixlen16initializeMixlenEdb
       1651  672 002FDF50 _ZN15PhyloTreeMixlen17optimizeOneBranchEP9PhyloNodeS1_bi
       1652  673 002FEFD0 _ZN15PhyloTreeMixlen17printBranchLengthERSoibP8Neighbor
       1653  674 002FF560 _ZN15PhyloTreeMixlen17restoreCheckpointEv
       1654  675 002FF8B0 _ZN15PhyloTreeMixlen19optimizeAllBranchesEidi
       1655  676 002FF920 _ZN15PhyloTreeMixlen20computeFuncDervMultiEPdS0_S0_
       1656  677 002FFBA0 _ZN15PhyloTreeMixlen20fixOneNegativeBranchEdP8NeighborP4Node
       1657  678 002FFBB0 _ZN15PhyloTreeMixlen21assignMeanMixBranchesEP4NodeS1_
       1658  679 002FFCC0 _ZN15PhyloTreeMixlen21initializeMixBranchesEP9PhyloNodeS1_
       1659  67A 003006A0 _ZN15PhyloTreeMixlen7getNDimEv
       1660  67B 003006B0 _ZN15PhyloTreeMixlen7newNodeEiPKc
       1661  67C 00300710 _ZN15PhyloTreeMixlen7newNodeEii
       1662  67D 00300770 _ZN15PhyloTreeMixlen8isMixlenEv
       1663  67E 00300780 _ZN15PhyloTreeMixlen9getMixlenEv
       1664  67F 003007A0 _ZN15PhyloTreeMixlen9setMixlenEi
       1665  680 003007B0 _ZN15PhyloTreeMixlenC1EP9Alignmenti
       1666  681 00300820 _ZN15PhyloTreeMixlenC1Ev
       1667  682 003007B0 _ZN15PhyloTreeMixlenC2EP9Alignmenti
       1668  683 00300820 _ZN15PhyloTreeMixlenC2Ev
       1669  684 00300890 _ZN15PhyloTreeMixlenD0Ev
       1670  685 003008F0 _ZN15PhyloTreeMixlenD1Ev
       1671  686 003008F0 _ZN15PhyloTreeMixlenD2Ev
       1672  687 00300940 _ZN15RateHeterotachy12getFixParamsEv
       1673  688 00300950 _ZN15RateHeterotachy12setFixParamsEi
       1674  689 00300960 _ZN15RateHeterotachy12setNCategoryEi
       1675  68A 00300CC0 _ZN15RateHeterotachy13getNameParamsB5cxx11Ev
       1676  68B 00300EB0 _ZN15RateHeterotachy13isHeterotachyEv
       1677  68C 00300EC0 _ZN15RateHeterotachy14optimizeWithEMEv
       1678  68D 003019B0 _ZN15RateHeterotachy14saveCheckpointEv
       1679  68E 00301A60 _ZN15RateHeterotachy15startCheckpointEv
       1680  68F 00301B90 _ZN15RateHeterotachy15writeParametersERSo
       1681  690 00301BF0 _ZN15RateHeterotachy16getNDiscreteRateEv
       1682  691 00301C00 _ZN15RateHeterotachy16setOptimizeStepsEi
       1683  692 00301C10 _ZN15RateHeterotachy17restoreCheckpointEv
       1684  693 00301CC0 _ZN15RateHeterotachy18optimizeParametersEd
       1685  694 00301DB0 _ZN15RateHeterotachy7getNDimEv
       1686  695 00301DC0 _ZN15RateHeterotachy7getPropEi
       1687  696 00301DD0 _ZN15RateHeterotachy7getRateEi
       1688  697 00301DE0 _ZN15RateHeterotachy7setPropEid
       1689  698 00301DF0 _ZN15RateHeterotachy8getNRateEv
       1690  699 00301E00 _ZN15RateHeterotachy9writeInfoERSo
       1691  69A 00301FD0 _ZN15RateHeterotachyC1EiNSt7__cxx1112basic_stringIcSt11char_traitsIcESaIcEEEP9PhyloTree
       1692  69B 00302260 _ZN15RateHeterotachyC2EiNSt7__cxx1112basic_stringIcSt11char_traitsIcESaIcEEEP9PhyloTree
       1693  69C 003024F0 _ZN15RateHeterotachyD0Ev
       1694  69D 00302550 _ZN15RateHeterotachyD1Ev
       1695  69E 003025A0 _ZN15RateHeterotachyD2Ev
       1696  69F 003025F0 _ZN16AlignmentSummary23constructSequenceMatrixEbP16progress_display
       1697  6A0 003026A0 _ZN16AlignmentSummary30constructSequenceMatrixNoisilyEbPKcS1_
       1698  6A1 003027B0 _ZN16AlignmentSummary39getSumOfConstantSiteFrequenciesForStateEi
       1699  6A2 00302800 _ZN16AlignmentSummaryC1EPK9Alignmentbb
       1700  6A3 00302800 _ZN16AlignmentSummaryC2EPK9Alignmentbb
       1701  6A4 00303050 _ZN16AlignmentSummaryD1Ev
       1702  6A5 00303050 _ZN16AlignmentSummaryD2Ev
       1703  6A6 003030D0 _ZN16BIONJ2009Adapter13constructTreeERKNSt7__cxx1112basic_stringIcSt11char_traitsIcESaIcEEES7_
       1704  6A7 003031E0 _ZN16BIONJ2009Adapter14constructTree2ERSiRSo
       1705  6A8 003031F0 _ZN16BIONJ2009Adapter14getDescriptionB5cxx11Ev
       1706  6A9 00303200 _ZN16BIONJ2009Adapter15setZippedOutputEb
       1707  6AA 00303280 _ZN16BIONJ2009Adapter21constructTreeInMemoryERKSt6vectorINSt7__cxx1112basic_stringIcSt11char_traitsIcESaIcEEESaIS6_EEPdRKS6_
       1708  6AB 00303290 _ZN16BIONJ2009Adapter22constructTreeInMemory2ERKSt6vectorINSt7__cxx1112basic_stringIcSt11char_traitsIcESaIcEEESaIS6_EEPdRSo
       1709  6AC 003032A0 _ZN16BIONJ2009Adapter7getNameB5cxx11Ev
       1710  6AD 003032B0 _ZN16BIONJ2009AdapterD0Ev
       1711  6AE 00303300 _ZN16BIONJ2009AdapterD2Ev
       1712  6AF 00303350 _ZN16ModelPoMoMixture10targetFunkEPd
       1713  6B0 003033C0 _ZN16ModelPoMoMixture11getNDimFreqEv
       1714  6B1 003033D0 _ZN16ModelPoMoMixture12getVariablesEPd
       1715  6B2 00303420 _ZN16ModelPoMoMixture12setVariablesEPd
       1716  6B3 00303450 _ZN16ModelPoMoMixture13setCheckpointEP10Checkpoint
       1717  6B4 00303480 _ZN16ModelPoMoMixture14saveCheckpointEv
       1718  6B5 003034C0 _ZN16ModelPoMoMixture15startCheckpointEv
       1719  6B6 00303560 _ZN16ModelPoMoMixture17restoreCheckpointEv
       1720  6B7 003035A0 _ZN16ModelPoMoMixture18computeTransMatrixEdPdii
       1721  6B8 003036B0 _ZN16ModelPoMoMixture18optimizeParametersEd
       1722  6B9 00303830 _ZN16ModelPoMoMixture19decomposeRateMatrixEv
       1723  6BA 00303A80 _ZN16ModelPoMoMixture20computeTipLikelihoodEjPd
       1724  6BB 00303A90 _ZN16ModelPoMoMixture20get_num_states_totalEv
       1725  6BC 00303AC0 _ZN16ModelPoMoMixture20isUnstableParametersEv
       1726  6BD 00303AF0 _ZN16ModelPoMoMixture21update_eigen_pointersEPdS0_S0_S0_
       1727  6BE 00303BD0 _ZN16ModelPoMoMixture6reportERSo
       1728  6BF 00303C50 _ZN16ModelPoMoMixture7getNDimEv
       1729  6C0 00303CB0 _ZN16ModelPoMoMixture7getNameB5cxx11Ev
       1730  6C1 00303CD0 _ZN16ModelPoMoMixture9setBoundsEPdS0_Pb
       1731  6C2 00303D40 _ZN16ModelPoMoMixture9writeInfoERSo
       1732  6C3 00303D50 _ZN16ModelPoMoMixtureC1EPKcNSt7__cxx1112basic_stringIcSt11char_traitsIcESaIcEEE13StateFreqTypeS7_P9PhyloTreeS7_S7_
       1733  6C4 003044B0 _ZN16ModelPoMoMixtureC2EPKcNSt7__cxx1112basic_stringIcSt11char_traitsIcESaIcEEE13StateFreqTypeS7_P9PhyloTreeS7_S7_
       1734  6C5 00304BF0 _ZN16ModelPoMoMixtureD0Ev
       1735  6C6 00304C30 _ZN16ModelPoMoMixtureD1Ev
       1736  6C7 00304C70 _ZN16ModelPoMoMixtureD2Ev
       1737  6C8 00304CA0 _ZN16NxsDiscreteDatum8CopyFromERKS_
       1738  6C9 00304EA0 _ZN16NxsDiscreteDatumC1Ev
       1739  6CA 00304EA0 _ZN16NxsDiscreteDatumC2Ev
       1740  6CB 00304EC0 _ZN16NxsDiscreteDatumD0Ev
       1741  6CC 00304EF0 _ZN16NxsDiscreteDatumD1Ev
       1742  6CD 00304EF0 _ZN16NxsDiscreteDatumD2Ev
       1743  6CE 00304F10 _ZN16progress_display14reportProgressEddb
       1744  6CF 00306260 _ZN16progress_display18getProgressDisplayEv
       1745  6D0 00306270 _ZN16progress_display18setProgressDisplayEb
       1746  6D1 003062A0 _ZN16progress_display4doneEb
       1747  6D2 00306380 _ZN16progress_display4hideEv
       1748  6D3 00306420 _ZN16progress_display4showEv
       1749  6D4 003064C0 _ZN16progress_displayC1EdPKcS1_S1_
       1750  6D5 003064C0 _ZN16progress_displayC2EdPKcS1_S1_
       1751  6D6 00306780 _ZN16progress_displayD1Ev
       1752  6D7 00306780 _ZN16progress_displayD2Ev
       1753  6D8 00306880 _ZN16progress_displayaSEd
       1754  6D9 00306900 _ZN16progress_displaypLEd
       1755  6DA 00306A30 _ZN16progress_displayppEv
       1756  6DB 00306A40 _ZN17AlignmentPairwise10addPatternEiiii
       1757  6DC 00306AB0 _ZN17AlignmentPairwise12optimizeDistEd
       1758  6DD 00306AD0 _ZN17AlignmentPairwise12optimizeDistEdRd
       1759  6DE 00306C00 _ZN17AlignmentPairwise13recomputeDistEiidRd
       1760  6DF 00306E70 _ZN17AlignmentPairwise15computeFuncDervEdRdS0_
       1761  6E0 00307A10 _ZN17AlignmentPairwise15computeFunctionEd
       1762  6E1 00308310 _ZN17AlignmentPairwise18setSequenceNumbersEii
       1763  6E2 003086D0 _ZN17AlignmentPairwise7setTreeEP9PhyloTree
       1764  6E3 003088D0 _ZN17AlignmentPairwiseC1EP9PhyloTree
       1765  6E4 00308940 _ZN17AlignmentPairwiseC1EP9PhyloTreeii
       1766  6E5 003089D0 _ZN17AlignmentPairwiseC1Ev
       1767  6E6 003088D0 _ZN17AlignmentPairwiseC2EP9PhyloTree
       1768  6E7 00308940 _ZN17AlignmentPairwiseC2EP9PhyloTreeii
       1769  6E8 003089D0 _ZN17AlignmentPairwiseC2Ev
       1770  6E9 00308A80 _ZN17AlignmentPairwiseD0Ev
       1771  6EA 00308AA0 _ZN17AlignmentPairwiseD1Ev
       1772  6EB 00308AA0 _ZN17AlignmentPairwiseD2Ev
       1773  6EC 00308B70 _ZN17CandidateModelSet11evaluateAllER6ParamsP9PhyloTreeR15ModelCheckpointP11ModelsBlockiiNSt7__cxx1112basic_stringIcSt11char_traitsIcESaIcEEEbb
       1774  6ED 0030ACD0 _ZN17CandidateModelSet11filterRatesEi
       1775  6EE 0030B0E0 _ZN17CandidateModelSet11filterSubstEi
       1776  6EF 0030B530 _ZN17CandidateModelSet12getNextModelEv
       1777  6F0 0030B670 _ZN17CandidateModelSet14getBestModelIDE18ModelTestCriterion
       1778  6F1 0030B750 _ZN17CandidateModelSet14getLowerKModelEi
       1779  6F2 0030BCB0 _ZN17CandidateModelSet15getHigherKModelEi
       1780  6F3 0030C1F0 _ZN17CandidateModelSet4testER6ParamsP9PhyloTreeR15ModelCheckpointP11ModelsBlockiiNSt7__cxx1112basic_stringIcSt11char_traitsIcESaIcEEESD_bbb
       1781  6F4 00310690 _ZN17CandidateModelSet8generateER6ParamsP9Alignmentbb
       1782  6F5 00315A70 _ZN17CheckpointFactory13endCheckpointEv
       1783  6F6 00315B00 _ZN17CheckpointFactory13getCheckpointEv
       1784  6F7 00315B10 _ZN17CheckpointFactory13hasCheckpointEv
       1785  6F8 00315B20 _ZN17CheckpointFactory13setCheckpointEP10Checkpoint
       1786  6F9 00315B30 _ZN17CheckpointFactory14saveCheckpointEv
       1787  6FA 00315B40 _ZN17CheckpointFactory15startCheckpointEv
       1788  6FB 00315BE0 _ZN17CheckpointFactory17restoreCheckpointEv
       1789  6FC 00315BF0 _ZN17CheckpointFactoryC1Ev
       1790  6FD 00315BF0 _ZN17CheckpointFactoryC2Ev
       1791  6FE 00315C10 _ZN17CheckpointFactoryD0Ev
       1792  6FF 00315C20 _ZN17CheckpointFactoryD2Ev
       1793  700 00315C30 _ZN17IndelDistributionaSEOS_
       1794  701 00315D10 _ZN17NxsDiscreteMatrix10SetMissingER16NxsDiscreteDatum
       1795  702 00315D40 _ZN17NxsDiscreteMatrix10SetMissingEjj
       1796  703 00315DE0 _ZN17NxsDiscreteMatrix12DuplicateRowEjjjj
       1797  704 00315FE0 _ZN17NxsDiscreteMatrix12GetNumStatesER16NxsDiscreteDatum
       1798  705 00315FF0 _ZN17NxsDiscreteMatrix12GetNumStatesEjj
       1799  706 00316080 _ZN17NxsDiscreteMatrix13IsPolymorphicER16NxsDiscreteDatum
       1800  707 003160A0 _ZN17NxsDiscreteMatrix13IsPolymorphicEjj
       1801  708 00316140 _ZN17NxsDiscreteMatrix14SetPolymorphicER16NxsDiscreteDatumj
       1802  709 00316160 _ZN17NxsDiscreteMatrix14SetPolymorphicEjjj
       1803  70A 00316220 _ZN17NxsDiscreteMatrix15DebugSaveMatrixERSoj
       1804  70B 00316550 _ZN17NxsDiscreteMatrix15GetObsNumStatesEj
       1805  70C 003167E0 _ZN17NxsDiscreteMatrix16GetDiscreteDatumEjj
       1806  70D 00316860 _ZN17NxsDiscreteMatrix24CopyStatesFromFirstTaxonEjj
       1807  70E 003168F0 _ZN17NxsDiscreteMatrix5FlushEv
       1808  70F 00316990 _ZN17NxsDiscreteMatrix5IsGapER16NxsDiscreteDatum
       1809  710 003169B0 _ZN17NxsDiscreteMatrix5IsGapEjj
       1810  711 00316A40 _ZN17NxsDiscreteMatrix5ResetEjj
       1811  712 00316BD0 _ZN17NxsDiscreteMatrix6SetGapER16NxsDiscreteDatum
       1812  713 00316C00 _ZN17NxsDiscreteMatrix6SetGapEjj
       1813  714 00316CB0 _ZN17NxsDiscreteMatrix7AddRowsEj
       1814  715 00316F40 _ZN17NxsDiscreteMatrix8AddStateER16NxsDiscreteDatumj
       1815  716 00317170 _ZN17NxsDiscreteMatrix8AddStateEjjj
       1816  717 00317200 _ZN17NxsDiscreteMatrix8GetStateER16NxsDiscreteDatumj
       1817  718 00317280 _ZN17NxsDiscreteMatrix8GetStateEjjj
       1818  719 00317370 _ZN17NxsDiscreteMatrix8SetStateER16NxsDiscreteDatumj
       1819  71A 003173B0 _ZN17NxsDiscreteMatrix8SetStateEjjj
       1820  71B 00317460 _ZN17NxsDiscreteMatrix9IsMissingER16NxsDiscreteDatum
       1821  71C 00317470 _ZN17NxsDiscreteMatrix9IsMissingEjj
       1822  71D 00317500 _ZN17NxsDiscreteMatrixC1Ejj
       1823  71E 00317500 _ZN17NxsDiscreteMatrixC2Ejj
       1824  71F 003175E0 _ZN17NxsDiscreteMatrixD0Ev
       1825  720 00317680 _ZN17NxsDiscreteMatrixD1Ev
       1826  721 00317680 _ZN17NxsDiscreteMatrixD2Ev
       1827  722 00317730 _ZN17RateHeterogeneity10getPtnRateEi
       1828  723 00317740 _ZN17RateHeterogeneity10targetFunkEPd
       1829  724 00317770 _ZN17RateHeterogeneity11isGammaRateEv
       1830  725 00317780 _ZN17RateHeterogeneity12getFixParamsEv
       1831  726 00317790 _ZN17RateHeterogeneity12getVariablesEPd
       1832  727 003177A0 _ZN17RateHeterogeneity12rescaleRatesEv
       1833  728 003177B0 _ZN17RateHeterogeneity12setFixPInvarEb
       1834  729 003177C0 _ZN17RateHeterogeneity12setFixParamsEi
       1835  72A 003177D0 _ZN17RateHeterogeneity12setNCategoryEi
       1836  72B 00317860 _ZN17RateHeterogeneity12setVariablesEPd
       1837  72C 00317870 _ZN17RateHeterogeneity13classifyRatesEd
       1838  72D 00317880 _ZN17RateHeterogeneity13getGammaShapeEv
       1839  72E 00317890 _ZN17RateHeterogeneity13getNameParamsB5cxx11Ev
       1840  72F 00317910 _ZN17RateHeterogeneity13isHeterotachyEv
       1841  730 00317920 _ZN17RateHeterogeneity13setGammaShapeEd
       1842  731 00317930 _ZN17RateHeterogeneity14saveCheckpointEv
       1843  732 00317960 _ZN17RateHeterogeneity15startCheckpointEv
       1844  733 00317A00 _ZN17RateHeterogeneity15writeParametersERSo
       1845  734 00317A10 _ZN17RateHeterogeneity16getNDiscreteRateEv
       1846  735 00317A20 _ZN17RateHeterogeneity16setFixGammaShapeEb
       1847  736 00317A30 _ZN17RateHeterogeneity16setOptimizeStepsEi
       1848  737 00317A40 _ZN17RateHeterogeneity17restoreCheckpointEv
       1849  738 00317A70 _ZN17RateHeterogeneity18isSiteSpecificRateEv
       1850  739 00317A80 _ZN17RateHeterogeneity18optimizeParametersEd
       1851  73A 00317A90 _ZN17RateHeterogeneity19computePatternRatesERSt6vectorIdSaIdEERS0_IiSaIiEE
       1852  73B 00317AA0 _ZN17RateHeterogeneity19initFromCatMinusOneER10Checkpointd
       1853  73C 00317AB0 _ZN17RateHeterogeneity7getPropEi
       1854  73D 00317AC0 _ZN17RateHeterogeneity7getRateEi
       1855  73E 00317AD0 _ZN17RateHeterogeneity7setPropEid
       1856  73F 00317AE0 _ZN17RateHeterogeneity7setRateEid
       1857  740 00317AF0 _ZN17RateHeterogeneity7setTreeEP9PhyloTree
       1858  741 00317B00 _ZN17RateHeterogeneity8getNRateEv
       1859  742 00317B10 _ZN17RateHeterogeneity9getPInvarEv
       1860  743 00317B20 _ZN17RateHeterogeneity9getPtnCatEi
       1861  744 00317B30 _ZN17RateHeterogeneity9meanRatesEv
       1862  745 00317B40 _ZN17RateHeterogeneity9setBoundsEPdS0_Pb
       1863  746 00317B50 _ZN17RateHeterogeneity9setPInvarEd
       1864  747 00317B60 _ZN17RateHeterogeneity9writeInfoERSo
       1865  748 00317B70 _ZN17RateHeterogeneityC1Ev
       1866  749 00317B70 _ZN17RateHeterogeneityC2Ev
       1867  74A 00317C80 _ZN17RateHeterogeneityD0Ev
       1868  74B 00317CE0 _ZN17RateHeterogeneityD1Ev
       1869  74C 00317CE0 _ZN17RateHeterogeneityD2Ev
       1870  74D 00317D30 _ZN17RateMeyerDiscrete10getPtnRateEi
       1871  74E 00317E00 _ZN17RateMeyerDiscrete13classifyRatesEd
       1872  74F 003182F0 _ZN17RateMeyerDiscrete14normalizeRatesEv
       1873  750 00318580 _ZN17RateMeyerDiscrete15computeFuncDervEdRdS0_
       1874  751 00318A70 _ZN17RateMeyerDiscrete15computeFunctionEd
       1875  752 00318EF0 _ZN17RateMeyerDiscrete15optimizeCatRateEi
       1876  753 003192A0 _ZN17RateMeyerDiscrete16getNDiscreteRateEv
       1877  754 00319350 _ZN17RateMeyerDiscrete18isSiteSpecificRateEv
       1878  755 00319360 _ZN17RateMeyerDiscrete18optimizeParametersEd
       1879  756 00319400 _ZN17RateMeyerDiscrete19classifyRatesKMeansEv
       1880  757 003198A0 _ZN17RateMeyerDiscrete19computePatternRatesERSt6vectorIdSaIdEERS0_IiSaIiEE
       1881  758 003198F0 _ZN17RateMeyerDiscrete7getNDimEv
       1882  759 00319900 _ZN17RateMeyerDiscrete7getRateEi
       1883  75A 003199C0 _ZN17RateMeyerDiscrete9getPtnCatEi
       1884  75B 00319A80 _ZN17RateMeyerDiscrete9writeInfoERSo
       1885  75C 00319A90 _ZN17RateMeyerDiscreteC1EiiPcP9PhyloTreeb
       1886  75D 00319DF0 _ZN17RateMeyerDiscreteC1Ev
       1887  75E 00319A90 _ZN17RateMeyerDiscreteC2EiiPcP9PhyloTreeb
       1888  75F 00319DF0 _ZN17RateMeyerDiscreteC2Ev
       1889  760 00319E90 _ZN17RateMeyerDiscreteD0Ev
       1890  761 00319EE0 _ZN17RateMeyerDiscreteD1Ev
       1891  762 00319EE0 _ZN17RateMeyerDiscreteD2Ev
       1892  763 00319F20 _ZN17RateMeyerHaeseler10getPtnRateEi
       1893  764 00319F50 _ZN17RateMeyerHaeseler12optimizeRateEi
       1894  765 0031AAA0 _ZN17RateMeyerHaeseler12readRateFileEPc
       1895  766 0031B6D0 _ZN17RateMeyerHaeseler13optimizeRatesEv
       1896  767 0031BDE0 _ZN17RateMeyerHaeseler13prepareRateMLERSt6vectorIiSaIiEE
       1897  768 0031C000 _ZN17RateMeyerHaeseler14completeRateMLEv
       1898  769 0031C070 _ZN17RateMeyerHaeseler15computeFuncDervEdRdS0_
       1899  76A 0031C1E0 _ZN17RateMeyerHaeseler15computeFunctionEd
       1900  76B 0031C370 _ZN17RateMeyerHaeseler15initializeRatesEv
       1901  76C 0031C7E0 _ZN17RateMeyerHaeseler16runIterativeProcER6ParamsR6IQTree
       1902  76D 0031CFF0 _ZN17RateMeyerHaeseler18isSiteSpecificRateEv
       1903  76E 0031D000 _ZN17RateMeyerHaeseler18optimizeParametersEd
       1904  76F 0031D3F0 _ZN17RateMeyerHaeseler19computePatternRatesERSt6vectorIdSaIdEERS0_IiSaIiEE
       1905  770 0031D420 _ZN17RateMeyerHaeseler7getNDimEv
       1906  771 0031D470 _ZN17RateMeyerHaeseler8getRatesERSt6vectorIdSaIdEE
       1907  772 0031D4F0 _ZN17RateMeyerHaeseler8setRatesERSt6vectorIdSaIdEE
       1908  773 0031D520 _ZN17RateMeyerHaeselerC1EPcP9PhyloTreeb
       1909  774 0031D650 _ZN17RateMeyerHaeselerC1Ev
       1910  775 0031D520 _ZN17RateMeyerHaeselerC2EPcP9PhyloTreeb
       1911  776 0031D650 _ZN17RateMeyerHaeselerC2Ev
       1912  777 0031D710 _ZN17RateMeyerHaeselerD0Ev
       1913  778 0031D770 _ZN17RateMeyerHaeselerD1Ev
       1914  779 0031D770 _ZN17RateMeyerHaeselerD2Ev
       1915  77A 0031D7C0 _ZN18EigenDecomposition11eigensystemEPPdS0_S0_S1_S1_i
       1916  77B 0031EA90 _ZN18EigenDecomposition12checkevectorEPdS0_i
       1917  77C 0031ED00 _ZN18EigenDecomposition13eliminateZeroEPPdS0_iS1_S0_Ri
       1918  77D 0031F130 _ZN18EigenDecomposition15eigensystem_symEPPdS0_S0_S0_S0_i
       1919  77E 003205E0 _ZN18EigenDecomposition17computeRateMatrixEPPdS0_i
       1920  77F 00320A60 _ZN18EigenDecomposition18eigensystem_nonrevEPdS0_S0_S0_S0_S0_i
       1921  780 00321BF0 _ZN18EigenDecomposition20symmetrizeRateMatrixEPPdS0_S0_i
       1922  781 00321E30 _ZN18EigenDecomposition4hqr2EiiiPPdS1_S0_S0_
       1923  782 00324120 _ZN18EigenDecomposition4tqliEPdS0_iPS0_
       1924  783 003246A0 _ZN18EigenDecomposition5mcdivEddddPdS0_
       1925  784 00324720 _ZN18EigenDecomposition5tred2EPPdiS0_S0_
       1926  785 00325050 _ZN18EigenDecomposition6elmhesEPPdPii
       1927  786 00325780 _ZN18EigenDecomposition6eltranEPPdS1_Pii
       1928  787 00325C60 _ZN18EigenDecomposition9luinverseEPPdS1_i
       1929  788 003268D0 _ZN18EigenDecompositionC1Ev
       1930  789 003268D0 _ZN18EigenDecompositionC2Ev
       1931  78A 00326900 _ZN18EigenDecompositionD1Ev
       1932  78B 00326900 _ZN18EigenDecompositionD2Ev
       1933  78C 00326910 _ZN18ModelFactoryMixlen14getNParametersEi
       1934  78D 00326970 _ZN18ModelFactoryMixlen18optimizeParametersEibdd
       1935  78E 00326A40 _ZN18ModelFactoryMixlen23sortClassesByTreeLengthB5cxx11Ev
       1936  78F 00327740 _ZN18ModelFactoryMixlenC1ER6ParamsRNSt7__cxx1112basic_stringIcSt11char_traitsIcESaIcEEEP9PhyloTreeP11ModelsBlock
       1937  790 00327740 _ZN18ModelFactoryMixlenC2ER6ParamsRNSt7__cxx1112basic_stringIcSt11char_traitsIcESaIcEEEP9PhyloTreeP11ModelsBlock
       1938  791 00327880 _ZN18ModelFactoryMixlenD0Ev
       1939  792 003278A0 _ZN18NxsCharactersBlock10ApplyExsetERSt3setIjSt4lessIjESaIjEE
       1940  793 00327950 _ZN18NxsCharactersBlock11ApplyDelsetERSt3setIjSt4lessIjESaIjEE
       1941  794 00327A00 _ZN18NxsCharactersBlock11IsInSymbolsEc
       1942  795 00327AE0 _ZN18NxsCharactersBlock11WriteStatesER16NxsDiscreteDatumPcj
       1943  796 00327D00 _ZN18NxsCharactersBlock12HandleFormatER8NxsToken
       1944  797 0032B5D0 _ZN18NxsCharactersBlock12HandleMatrixER8NxsToken
       1945  798 0032BB30 _ZN18NxsCharactersBlock12IsEliminatedEj
       1946  799 0032BBA0 _ZN18NxsCharactersBlock12ResetSymbolsEv
       1947  79A 0032C660 _ZN18NxsCharactersBlock13GetStateLabelEjj
       1948  79B 0032C740 _ZN18NxsCharactersBlock14HandleEndblockER8NxsToken9NxsString
       1949  79C 0032CAA0 _ZN18NxsCharactersBlock15ApplyIncludesetERSt3setIjSt4lessIjESaIjEE
       1950  79D 0032CB50 _ZN18NxsCharactersBlock15ApplyRestoresetERSt3setIjSt4lessIjESaIjEE
       1951  79E 0032CC00 _ZN18NxsCharactersBlock15DebugShowMatrixERSobPKc
       1952  79F 0032CEA0 _ZN18NxsCharactersBlock15GetObsNumStatesEj
       1953  7A0 0032CEB0 _ZN18NxsCharactersBlock15HandleEliminateER8NxsToken
       1954  7A1 0032CFF0 _ZN18NxsCharactersBlock15HandleNextStateER8NxsTokenjj
       1955  7A2 0032E290 _ZN18NxsCharactersBlock15HandleStdMatrixER8NxsToken
       1956  7A3 0032EA60 _ZN18NxsCharactersBlock15HandleTaxlabelsER8NxsToken
       1957  7A4 0032ECA0 _ZN18NxsCharactersBlock15ShowStateLabelsERSojjj
       1958  7A5 0032F1E0 _ZN18NxsCharactersBlock16GetNumActiveCharEv
       1959  7A6 0032F320 _ZN18NxsCharactersBlock16GetNumActiveTaxaEv
       1960  7A7 0032F460 _ZN18NxsCharactersBlock16GetOrigCharIndexEj
       1961  7A8 0032F4B0 _ZN18NxsCharactersBlock16HandleCharlabelsER8NxsToken
       1962  7A9 0032F9A0 _ZN18NxsCharactersBlock16HandleDimensionsER8NxsToken9NxsStringS2_S2_
       1963  7AA 00330180 _ZN18NxsCharactersBlock16HandleTokenStateER8NxsTokenj
       1964  7AB 003307B0 _ZN18NxsCharactersBlock17BuildCharPosArrayEb
       1965  7AC 00330D60 _ZN18NxsCharactersBlock17CharLabelToNumberE9NxsString
       1966  7AD 00330DB0 _ZN18NxsCharactersBlock17GetOrigTaxonIndexEj
       1967  7AE 00330E20 _ZN18NxsCharactersBlock17HandleStatelabelsER8NxsToken
       1968  7AF 003316C0 _ZN18NxsCharactersBlock17PositionInSymbolsEc
       1969  7B0 00331790 _ZN18NxsCharactersBlock18GetMaxObsNumStatesEv
       1970  7B1 003317E0 _ZN18NxsCharactersBlock18TaxonLabelToNumberE9NxsString
       1971  7B2 00331870 _ZN18NxsCharactersBlock21HandleCharstatelabelsER8NxsToken
       1972  7B3 00332910 _ZN18NxsCharactersBlock22HandleTransposedMatrixER8NxsToken
       1973  7B4 00333320 _ZN18NxsCharactersBlock4ReadER8NxsToken
       1974  7B5 00333F50 _ZN18NxsCharactersBlock5ResetEv
       1975  7B6 00334160 _ZN18NxsCharactersBlock6ReportERSo
       1976  7B7 003356C0 _ZN18NxsCharactersBlock7ConsumeERS_
       1977  7B8 00335B50 _ZN18NxsCharactersBlockC1EP12NxsTaxaBlockP19NxsAssumptionsBlock
       1978  7B9 00335B50 _ZN18NxsCharactersBlockC2EP12NxsTaxaBlockP19NxsAssumptionsBlock
       1979  7BA 00335D30 _ZN18NxsCharactersBlockD0Ev
       1980  7BB 00335D50 _ZN18NxsCharactersBlockD1Ev
       1981  7BC 00335D50 _ZN18NxsCharactersBlockD2Ev
       1982  7BD 00335E80 _ZN18PartitionModelPlen14getNParametersEi
       1983  7BE 00335FC0 _ZN18PartitionModelPlen14saveCheckpointEv
       1984  7BF 00336210 _ZN18PartitionModelPlen15startCheckpointEv
       1985  7C0 003362B0 _ZN18PartitionModelPlen16optimizeGeneRateEd
       1986  7C1 00336A10 _ZN18PartitionModelPlen17restoreCheckpointEv
       1987  7C2 00336BE0 _ZN18PartitionModelPlen18optimizeParametersEibdd
       1988  7C3 00337A10 _ZN18PartitionModelPlen28optimizeParametersGammaInvarEibdd
       1989  7C4 00337A30 _ZN18PartitionModelPlen9writeInfoERSo
       1990  7C5 00337B30 _ZN18PartitionModelPlenC1ER6ParamsP18PhyloSuperTreePlenP11ModelsBlock
       1991  7C6 00337B60 _ZN18PartitionModelPlenC1Ev
       1992  7C7 00337B30 _ZN18PartitionModelPlenC2ER6ParamsP18PhyloSuperTreePlenP11ModelsBlock
       1993  7C8 00337B60 _ZN18PartitionModelPlenC2Ev
       1994  7C9 00337B90 _ZN18PartitionModelPlenD0Ev
       1995  7CA 00337BB0 _ZN18PartitionModelPlenD1Ev
       1996  7CB 00337BB0 _ZN18PartitionModelPlenD2Ev
       1997  7CC 00337BC0 _ZN18PhyloSuperTreePlen10getNNITypeEP9PhyloNodeS1_RSt6vectorI7NNITypeSaIS3_EE
       1998  7CD 00337DF0 _ZN18PhyloSuperTreePlen11computeDistEiidRd
       1999  7CE 00337EE0 _ZN18PhyloSuperTreePlen11linkCheckReEiP4NodeS1_P13PhyloNeighborS3_
       2000  7CF 00337FB0 _ZN18PhyloSuperTreePlen12mapBranchLenEi
       2001  7D0 00338380 _ZN18PhyloSuperTreePlen12mapBranchLenEv
       2002  7D1 00338790 _ZN18PhyloSuperTreePlen12printMapInfoEv
       2003  7D2 00338C90 _ZN18PhyloSuperTreePlen13getTreeStringB5cxx11Ev
       2004  7D3 00338CB0 _ZN18PhyloSuperTreePlen13swapNNIBranchEdP9PhyloNodeS1_P12SwapNNIParamP7NNIMove
       2005  7D4 0033DC80 _ZN18PhyloSuperTreePlen14changeNNIBransER7NNIMove
       2006  7D5 0033DC90 _ZN18PhyloSuperTreePlen14checkBranchLenEv
       2007  7D6 0033DCA0 _ZN18PhyloSuperTreePlen14readTreeStringERKNSt7__cxx1112basic_stringIcSt11char_traitsIcESaIcEEE
       2008  7D7 0033DCB0 _ZN18PhyloSuperTreePlen14saveCheckpointEv
       2009  7D8 0033DCC0 _ZN18PhyloSuperTreePlen15computeFuncDervEdRdS0_
       2010  7D9 0033DF60 _ZN18PhyloSuperTreePlen15computeFunctionEd
       2011  7DA 0033E1B0 _ZN18PhyloSuperTreePlen15printResultTreeENSt7__cxx1112basic_stringIcSt11char_traitsIcESaIcEEE
       2012  7DB 0033E280 _ZN18PhyloSuperTreePlen16printNNIcasesNUMEv
       2013  7DC 0033E540 _ZN18PhyloSuperTreePlen17fixNegativeBranchEbP4NodeS1_
       2014  7DD 0033E5F0 _ZN18PhyloSuperTreePlen17getBestNNIForBranEP9PhyloNodeS1_P7NNIMove
       2015  7DE 0033EB80 _ZN18PhyloSuperTreePlen17initPartitionInfoEv
       2016  7DF 0033EC70 _ZN18PhyloSuperTreePlen17normalizePartRateEv
       2017  7E0 0033F010 _ZN18PhyloSuperTreePlen17optimizeOneBranchEP9PhyloNodeS1_bi
       2018  7E1 0033F370 _ZN18PhyloSuperTreePlen17reorientPartialLhEP13PhyloNeighborP4Node
       2019  7E2 0033F410 _ZN18PhyloSuperTreePlen17restoreCheckpointEv
       2020  7E3 0033F420 _ZN18PhyloSuperTreePlen18deleteAllPartialLhEv
       2021  7E4 0033F510 _ZN18PhyloSuperTreePlen19optimizeAllBranchesEidi
       2022  7E5 0033F5D0 _ZN18PhyloSuperTreePlen20computeBranchLengthsEv
       2023  7E6 0033F5E0 _ZN18PhyloSuperTreePlen22initializeAllPartialLhERPdRPtRPjP9PhyloNodeS7_
       2024  7E7 0033F800 _ZN18PhyloSuperTreePlen22initializeAllPartialLhERiS0_P9PhyloNodeS2_
       2025  7E8 0033F890 _ZN18PhyloSuperTreePlen22initializeAllPartialLhEv
       2026  7E9 003408F0 _ZN18PhyloSuperTreePlen23computeLikelihoodBranchEP13PhyloNeighborP9PhyloNodeb
       2027  7EA 00340940 _ZN18PhyloSuperTreePlen27computeLikelihoodFromBufferEv
       2028  7EB 00340A00 _ZN18PhyloSuperTreePlen5doNNIER7NNIMoveb
       2029  7EC 00340DA0 _ZN18PhyloSuperTreePlen6doNNIsERSt6vectorI7NNIMoveSaIS1_EEb
       2030  7ED 00340DC0 _ZN18PhyloSuperTreePlen8mapTreesEv
       2031  7EE 003411A0 _ZN18PhyloSuperTreePlen9linkCheckEiP4NodeS1_P13PhyloNeighbor
       2032  7EF 00341290 _ZN18PhyloSuperTreePlen9linkTreesEv
       2033  7F0 003412A0 _ZN18PhyloSuperTreePlenC1EP14SuperAlignmentP14PhyloSuperTree
       2034  7F1 003414B0 _ZN18PhyloSuperTreePlenC1EP14SuperAlignmenti
       2035  7F2 00341720 _ZN18PhyloSuperTreePlenC1Ev
       2036  7F3 003412A0 _ZN18PhyloSuperTreePlenC2EP14SuperAlignmentP14PhyloSuperTree
       2037  7F4 003414B0 _ZN18PhyloSuperTreePlenC2EP14SuperAlignmenti
       2038  7F5 00341720 _ZN18PhyloSuperTreePlenC2Ev
       2039  7F6 003417B0 _ZN18PhyloSuperTreePlenD0Ev
       2040  7F7 003417D0 _ZN18PhyloSuperTreePlenD1Ev
       2041  7F8 003417D0 _ZN18PhyloSuperTreePlenD2Ev
       2042  7F9 00341950 _ZN19NxsAssumptionsBlock10ApplyExSetE9NxsString
       2043  7FA 003419A0 _ZN19NxsAssumptionsBlock10GetCharSetE9NxsString
       2044  7FB 003419B0 _ZN19NxsAssumptionsBlock11HandleExsetER8NxsToken
       2045  7FC 00341D20 _ZN19NxsAssumptionsBlock11SetCallbackEP18NxsCharactersBlock
       2046  7FD 00341D30 _ZN19NxsAssumptionsBlock12GetNumExSetsEv
       2047  7FE 00341D40 _ZN19NxsAssumptionsBlock12HandleTaxsetER8NxsToken
       2048  7FF 00342090 _ZN19NxsAssumptionsBlock13GetExSetNamesERSt6vectorI9NxsStringSaIS1_EE
       2049  800 00342240 _ZN19NxsAssumptionsBlock13GetNumTaxSetsEv
       2050  801 00342250 _ZN19NxsAssumptionsBlock13HandleCharsetER8NxsToken
       2051  802 003425B0 _ZN19NxsAssumptionsBlock14GetNumCharSetsEv
       2052  803 003425C0 _ZN19NxsAssumptionsBlock14GetTaxSetNamesERSt6vectorI9NxsStringSaIS1_EE
       2053  804 00342770 _ZN19NxsAssumptionsBlock14HandleEndblockER8NxsToken
       2054  805 003428E0 _ZN19NxsAssumptionsBlock15GetCharSetNamesERSt6vectorI9NxsStringSaIS1_EE
       2055  806 00342A90 _ZN19NxsAssumptionsBlock15GetDefExSetNameEv
       2056  807 00342AE0 _ZN19NxsAssumptionsBlock16GetDefTaxSetNameEv
       2057  808 00342B30 _ZN19NxsAssumptionsBlock17GetDefCharSetNameEv
       2058  809 00342B80 _ZN19NxsAssumptionsBlock18TaxonLabelToNumberE9NxsString
       2059  80A 00342C10 _ZN19NxsAssumptionsBlock19ReplaceTaxaBlockPtrEP12NxsTaxaBlock
       2060  80B 00342C40 _ZN19NxsAssumptionsBlock4ReadER8NxsToken
       2061  80C 003432A0 _ZN19NxsAssumptionsBlock5ResetEv
       2062  80D 00343350 _ZN19NxsAssumptionsBlock6ReportERSo
       2063  80E 00343E60 _ZN19NxsAssumptionsBlock8GetExSetE9NxsString
       2064  80F 00343E70 _ZN19NxsAssumptionsBlock9GetTaxSetE9NxsString
       2065  810 00343E80 _ZN19NxsAssumptionsBlockC1EP12NxsTaxaBlock
       2066  811 00343E80 _ZN19NxsAssumptionsBlockC2EP12NxsTaxaBlock
       2067  812 00344090 _ZN19NxsAssumptionsBlockD0Ev
       2068  813 003440B0 _ZN19NxsAssumptionsBlockD1Ev
       2069  814 003440B0 _ZN19NxsAssumptionsBlockD2Ev
       2070  815 00344170 _ZN19PhyloNeighborMixlen11newNeighborEv
       2071  816 003441B0 _ZN19PhyloNeighborMixlen9getLengthERSt6vectorIdSaIdEE
       2072  817 003441D0 _ZN19PhyloNeighborMixlen9getLengthERSt6vectorIdSaIdEEi
       2073  818 00344460 _ZN19PhyloNeighborMixlen9getLengthEi
       2074  819 00344530 _ZN19PhyloNeighborMixlen9setLengthEP8Neighbor
       2075  81A 00344550 _ZN19PhyloNeighborMixlen9setLengthERSt6vectorIdSaIdEE
       2076  81B 00344560 _ZN19PhyloNeighborMixlen9setLengthERSt6vectorIdSaIdEEii
       2077  81C 00344650 _ZN19PhyloNeighborMixlen9setLengthEid
       2078  81D 00344720 _ZN19PhyloNeighborMixlenC2EPS_
       2079  81E 00344840 _ZN19PhyloNeighborMixlenD0Ev
       2080  81F 00344890 _ZN19PhyloNeighborMixlenD2Ev
       2081  820 003448E0 _ZN20RateHeterotachyInvar10targetFunkEPd
       2082  821 00344900 _ZN20RateHeterotachyInvar12getVariablesEPd
       2083  822 00344960 _ZN20RateHeterotachyInvar12setNCategoryEi
       2084  823 00344C80 _ZN20RateHeterotachyInvar12setVariablesEPd
       2085  824 00344CB0 _ZN20RateHeterotachyInvar13getNameParamsB5cxx11Ev
       2086  825 00344E50 _ZN20RateHeterotachyInvar14saveCheckpointEv
       2087  826 00344E70 _ZN20RateHeterotachyInvar15computeFunctionEd
       2088  827 00344EC0 _ZN20RateHeterotachyInvar15startCheckpointEv
       2089  828 00344FF0 _ZN20RateHeterotachyInvar15writeParametersERSo
       2090  829 00345020 _ZN20RateHeterotachyInvar17restoreCheckpointEv
       2091  82A 00345040 _ZN20RateHeterotachyInvar18optimizeParametersEd
       2092  82B 00345050 _ZN20RateHeterotachyInvar7getNDimEv
       2093  82C 00345070 _ZN20RateHeterotachyInvar7getPropEi
       2094  82D 00345080 _ZN20RateHeterotachyInvar7getRateEi
       2095  82E 00345090 _ZN20RateHeterotachyInvar9setBoundsEPdS0_Pb
       2096  82F 003450F0 _ZN20RateHeterotachyInvar9writeInfoERSo
       2097  830 00345120 _ZN20RateHeterotachyInvarC1EiNSt7__cxx1112basic_stringIcSt11char_traitsIcESaIcEEEdP9PhyloTree
       2098  831 003455B0 _ZN20RateHeterotachyInvarC2EiNSt7__cxx1112basic_stringIcSt11char_traitsIcESaIcEEEdP9PhyloTree
       2099  832 00345A20 _ZN20RateHeterotachyInvarD0Ev
       2100  833 00345A50 _ZN20RateHeterotachyInvarD1Ev
       2101  834 00345A80 _ZN22PhyloSuperTreeUnlinked10treeLengthEP4NodeS1_
       2102  835 00345AF0 _ZN22PhyloSuperTreeUnlinked11doNNISearchEb
       2103  836 00345C70 _ZN22PhyloSuperTreeUnlinked11setRootNodeEPKcb
       2104  837 00345C80 _ZN22PhyloSuperTreeUnlinked12doTreeSearchEv
       2105  838 003462F0 _ZN22PhyloSuperTreeUnlinked12initSettingsER6Params
       2106  839 00346350 _ZN22PhyloSuperTreeUnlinked12setAlignmentEP9Alignment
       2107  83A 00346500 _ZN22PhyloSuperTreeUnlinked13getTreeStringB5cxx11Ev
       2108  83B 00346690 _ZN22PhyloSuperTreeUnlinked13isBifurcatingEP4NodeS1_
       2109  83C 003466E0 _ZN22PhyloSuperTreeUnlinked14readTreeStringERKNSt7__cxx1112basic_stringIcSt11char_traitsIcESaIcEEE
       2110  83D 00346870 _ZN22PhyloSuperTreeUnlinked14saveCheckpointEv
       2111  83E 003469B0 _ZN22PhyloSuperTreeUnlinked14testNumThreadsEv
       2112  83F 00346AD0 _ZN22PhyloSuperTreeUnlinked15printResultTreeENSt7__cxx1112basic_stringIcSt11char_traitsIcESaIcEEE
       2113  840 00346ED0 _ZN22PhyloSuperTreeUnlinked15testAllBranchesEidPdiibbP9PhyloNodeS2_
       2114  841 00347030 _ZN22PhyloSuperTreeUnlinked16writeUFBootTreesER6Params
       2115  842 003474F0 _ZN22PhyloSuperTreeUnlinked17restoreCheckpointEv
       2116  843 00347630 _ZN22PhyloSuperTreeUnlinked17saveBranchLengthsERSt6vectorIdSaIdEEiP9PhyloNodeS5_
       2117  844 00347720 _ZN22PhyloSuperTreeUnlinked18summarizeBootstrapER6Params
       2118  845 00347770 _ZN22PhyloSuperTreeUnlinked18treeLengthInternalEdP4NodeS1_
       2119  846 003477F0 _ZN22PhyloSuperTreeUnlinked19isSuperTreeUnlinkedEv
       2120  847 00347800 _ZN22PhyloSuperTreeUnlinked20computeBranchLengthsEv
       2121  848 00347810 _ZN22PhyloSuperTreeUnlinked20computeParsimonyTreeEPKcP9AlignmentPi
       2122  849 00347BC0 _ZN22PhyloSuperTreeUnlinked20restoreBranchLengthsERSt6vectorIdSaIdEEiP9PhyloNodeS5_
       2123  84A 00347C40 _ZN22PhyloSuperTreeUnlinked24wrapperFixNegativeBranchEb
       2124  84B 00347CD0 _ZN22PhyloSuperTreeUnlinked8mapTreesEv
       2125  84C 00347CE0 _ZN22PhyloSuperTreeUnlinked8readTreeERSiRb
       2126  84D 00347D50 _ZN22PhyloSuperTreeUnlinked9printTreeERSoi
       2127  84E 00347DB0 _ZN22PhyloSuperTreeUnlinkedC1EP14SuperAlignment
       2128  84F 00347DB0 _ZN22PhyloSuperTreeUnlinkedC2EP14SuperAlignment
       2129  850 00347DF0 _ZN22PhyloSuperTreeUnlinkedD0Ev
       2130  851 00347E10 _ZN22SuperAlignmentPairwise15computeFuncDervEdRdS0_
       2131  852 00347EC0 _ZN22SuperAlignmentPairwise15computeFunctionEd
       2132  853 00347F30 _ZN22SuperAlignmentPairwiseC1EP14PhyloSuperTreeii
       2133  854 003481F0 _ZN22SuperAlignmentPairwiseC1Ev
       2134  855 00347F30 _ZN22SuperAlignmentPairwiseC2EP14PhyloSuperTreeii
       2135  856 003481F0 _ZN22SuperAlignmentPairwiseC2Ev
       2136  857 00348230 _ZN22SuperAlignmentPairwiseD0Ev
       2137  858 003482B0 _ZN22SuperAlignmentPairwiseD1Ev
       2138  859 003482B0 _ZN22SuperAlignmentPairwiseD2Ev
       2139  85A 00348330 _ZN22SuperAlignmentUnlinked12buildPatternEv
       2140  85B 003485A0 _ZN22SuperAlignmentUnlinked12computeConstER7Pattern
       2141  85C 00348610 _ZN22SuperAlignmentUnlinked4initEPSt6vectorINSt7__cxx1112basic_stringIcSt11char_traitsIcESaIcEEESaIS6_EE
       2142  85D 00348CB0 _ZN22SuperAlignmentUnlinkedC1ER6Params
       2143  85E 00348D00 _ZN22SuperAlignmentUnlinkedC1Ev
       2144  85F 00348CB0 _ZN22SuperAlignmentUnlinkedC2ER6Params
       2145  860 00348D00 _ZN22SuperAlignmentUnlinkedC2Ev
       2146  861 00348D30 _ZN22SuperAlignmentUnlinkedD0Ev
       2147  862 00348D50 _ZN26SuperAlignmentPairwisePlen15computeFuncDervEdRdS0_
       2148  863 00348EA0 _ZN26SuperAlignmentPairwisePlen15computeFunctionEd
       2149  864 00348F80 _ZN26SuperAlignmentPairwisePlenC1EP18PhyloSuperTreePlenii
       2150  865 00348F80 _ZN26SuperAlignmentPairwisePlenC2EP18PhyloSuperTreePlenii
       2151  866 00348FC0 _ZN26SuperAlignmentPairwisePlenD0Ev
       2152  867 00348FE0 _ZN26SuperAlignmentPairwisePlenD1Ev
       2153  868 00348FE0 _ZN26SuperAlignmentPairwisePlenD2Ev
       2154  869 00348FF0 _ZN2Pr4copyEPS_
       2155  86A 00349490 _ZN2PrC2Ev
       2156  86B 00349EC0 _ZN2PrD2Ev
       2157  86C 0034A120 _ZN3PML10StateSpace14initStateSpaceENS_7SeqTypeE
       2158  86D 0034ABF0 _ZN3PML10StateSpace15parseStateSpaceEN4YAML4NodeE
       2159  86E 0034D470 _ZN3PML10StateSpace15resetStateSpaceEv
       2160  86F 0034D630 _ZN3PML10StateSpace7toStateENSt7__cxx1112basic_stringIcSt11char_traitsIcESaIcEEE
       2161  870 0034D6A0 _ZN3PML10StateSpace7toStateERNSt7__cxx1112basic_stringIcSt11char_traitsIcESaIcEEERSt6vectorIjSaIjEE
       2162  871 0034DBB0 _ZN3PML10StateSpace8toStringB5cxx11Ej
       2163  872 0034DD60 _ZN3PML10StateSpace9isUnknownEj
       2164  873 0034E030 _ZN3PML10StateSpaceC1Ev
       2165  874 0034DD70 _ZN3PML10StateSpaceC2ERKS0_
       2166  875 0034E030 _ZN3PML10StateSpaceC2Ev
       2167  876 0034E0E0 _ZN3PML10StateSpaceD1Ev
       2168  877 0034E0E0 _ZN3PML10StateSpaceD2Ev
       2169  878 0034E2D0 _ZN3PML10parseRangeENSt7__cxx1112basic_stringIcSt11char_traitsIcESaIcEEERSt6vectorIS5_SaIS5_EE
       2170  879 0034E6F0 _ZN3PML15parseStringListEN4YAML4NodeERSt6vectorINSt7__cxx1112basic_stringIcSt11char_traitsIcESaIcEEESaIS8_EEb
       2171  87A 007874B8 _ZN3PML20builtin_state_spacesE
       2172  87B 0034FC60 _ZN3PML9parseListEN4YAML6detail13iterator_baseIKNS1_14iterator_valueEEES5_RSt6vectorINSt7__cxx1112basic_stringIcSt11char_traitsIcESaIcEEESaISC_EE
       2173  87C 003511F0 _ZN3lsd13buildTimeTreeEiPPcPNS_17InputOutputStreamE
       2174  87D 00353960 _ZN3lsd17InputOutputStream11setOutgroupENSt7__cxx1112basic_stringIcSt11char_traitsIcESaIcEEE
       2175  87E 003539D0 _ZN3lsd17InputOutputStream12setPartitionENSt7__cxx1112basic_stringIcSt11char_traitsIcESaIcEEE
       2176  87F 00353A40 _ZN3lsd17InputOutputStream16setBootstrapTreeENSt7__cxx1112basic_stringIcSt11char_traitsIcESaIcEEE
       2177  880 00353AB0 _ZN3lsd17InputOutputStream7setDateENSt7__cxx1112basic_stringIcSt11char_traitsIcESaIcEEE
       2178  881 00353B20 _ZN3lsd17InputOutputStream7setRateENSt7__cxx1112basic_stringIcSt11char_traitsIcESaIcEEE
       2179  882 00353B90 _ZN3lsd17InputOutputStream7setTreeENSt7__cxx1112basic_stringIcSt11char_traitsIcESaIcEEE
       2180  883 00353BF0 _ZN3lsd17InputOutputStreamC1ENSt7__cxx1112basic_stringIcSt11char_traitsIcESaIcEEES6_S6_S6_S6_S6_
       2181  884 00354100 _ZN3lsd17InputOutputStreamC1Ev
       2182  885 00353BF0 _ZN3lsd17InputOutputStreamC2ENSt7__cxx1112basic_stringIcSt11char_traitsIcESaIcEEES6_S6_S6_S6_S6_
       2183  886 00354100 _ZN3lsd17InputOutputStreamC2Ev
       2184  887 00354130 _ZN3lsd17InputOutputStreamD0Ev
       2185  888 00354150 _ZN3lsd17InputOutputStreamD1Ev
       2186  889 00354150 _ZN3lsd17InputOutputStreamD2Ev
       2187  88A 00354250 _ZN4DateC2ENSt7__cxx1112basic_stringIcSt11char_traitsIcESaIcEEEcddSt6vectorIiSaIiEE
       2188  88B 00354560 _ZN4DateC2ENSt7__cxx1112basic_stringIcSt11char_traitsIcESaIcEEEcddi
       2189  88C 00354710 _ZN4Node10calcHeightEPS_
       2190  88D 003547C0 _ZN4Node10deleteNodeEv
       2191  88E 00354810 _ZN4Node10isInCherryEv
       2192  88F 00354870 _ZN4Node10isNeighborEPS_
       2193  890 003548D0 _ZN4Node11addNeighborEPS_RSt6vectorIdSaIdEEi
       2194  891 00354900 _ZN4Node11addNeighborEPS_di
       2195  892 00354A40 _ZN4Node12findNeighborEPS_
       2196  893 00354B40 _ZN4Node12longestPath2ERPS_S1_
       2197  894 00354C10 _ZN4Node13addConstraintEP4Date
       2198  895 00354F00 _ZN4Node13addConstraintEcdd
       2199  896 00355090 _ZN4Node14findNeighborItEPS_
       2200  897 00355160 _ZN4Node14updateNeighborEN9__gnu_cxx17__normal_iteratorIPP8NeighborSt6vectorIS3_SaIS3_EEEES3_
       2201  898 00355200 _ZN4Node14updateNeighborEN9__gnu_cxx17__normal_iteratorIPP8NeighborSt6vectorIS3_SaIS3_EEEES3_d
       2202  899 003552A0 _ZN4Node14updateNeighborEPS_P8Neighbor
       2203  89A 00355350 _ZN4Node14updateNeighborEPS_P8Neighbord
       2204  89B 00355410 _ZN4Node14updateNeighborEPS_S0_
       2205  89C 00355450 _ZN4Node14updateNeighborEPS_S0_d
       2206  89D 00355480 _ZN4Node16addConstraintOfPEPS_
       2207  89E 003555F0 _ZN4Node16addConstraintOfSEPS_
       2208  89F 00355770 _ZN4Node6degreeEv
       2209  8A0 00355780 _ZN4Node6isLeafEv
       2210  8A1 00355790 _ZN4Node7calDistEPS_S0_i
       2211  8A2 003558F0 _ZN4Node8isCherryEv
       2212  8A3 00355930 _ZN4NodeC1Ei
       2213  8A4 00355990 _ZN4NodeC1EiPKc
       2214  8A5 00355A80 _ZN4NodeC1Eii
       2215  8A6 00355930 _ZN4NodeC2Ei
       2216  8A7 00355990 _ZN4NodeC2EiPKc
       2217  8A8 00355A80 _ZN4NodeC2Eii
       2218  8A9 00355B90 _ZN4NodeD0Ev
       2219  8AA 00355BB0 _ZN4NodeD1Ev
       2220  8AB 00355BB0 _ZN4NodeD2Ev
       2221  8AC 00355CB0 _ZN4YAML10DirectivesC1Ev
       2222  8AD 00355CB0 _ZN4YAML10DirectivesC2Ev
       2223  8AE 00355CF0 _ZN4YAML10ScanScalarB5cxx11ERNS_6StreamERNS_16ScanScalarParamsE
       2224  8AF 00356A30 _ZN4YAML10ptr_vectorINS_7Scanner12IndentMarkerEED2Ev
       2225  8B0 00356A90 _ZN4YAML11BadPushbackC2Ev
       2226  8B1 00356B70 _ZN4YAML11BadPushbackD0Ev
       2227  8B2 003679B0 _ZN4YAML11BadPushbackD1Ev
       2228  8B3 003679B0 _ZN4YAML11BadPushbackD2Ev
       2229  8B4 00356BB0 _ZN4YAML11InvalidNodeC2Ev
       2230  8B5 00356CB0 _ZN4YAML11InvalidNodeD0Ev
       2231  8B6 003679B0 _ZN4YAML11InvalidNodeD1Ev
       2232  8B7 003679B0 _ZN4YAML11InvalidNodeD2Ev
       2233  8B8 00356CF0 _ZN4YAML11KeyNotFoundD0Ev
       2234  8B9 003679B0 _ZN4YAML11KeyNotFoundD1Ev
       2235  8BA 003679B0 _ZN4YAML11KeyNotFoundD2Ev
       2236  8BB 00356D30 _ZN4YAML11NodeBuilder10OnMapStartERKNS_4MarkERKNSt7__cxx1112basic_stringIcSt11char_traitsIcESaIcEEEyNS_12EmitterStyle5valueE
       2237  8BC 00356DE0 _ZN4YAML11NodeBuilder13OnDocumentEndEv
       2238  8BD 00356DF0 _ZN4YAML11NodeBuilder13OnSequenceEndEv
       2239  8BE 00356E00 _ZN4YAML11NodeBuilder14RegisterAnchorEyRNS_6detail4nodeE
       2240  8BF 00356F20 _ZN4YAML11NodeBuilder15OnDocumentStartERKNS_4MarkE
       2241  8C0 00356F30 _ZN4YAML11NodeBuilder15OnSequenceStartERKNS_4MarkERKNSt7__cxx1112basic_stringIcSt11char_traitsIcESaIcEEEyNS_12EmitterStyle5valueE
       2242  8C1 00356FE0 _ZN4YAML11NodeBuilder3PopEv
       2243  8C2 003571E0 _ZN4YAML11NodeBuilder4PushERKNS_4MarkEy
       2244  8C3 00357240 _ZN4YAML11NodeBuilder4PushERNS_6detail4nodeE
       2245  8C4 00357540 _ZN4YAML11NodeBuilder4RootEv
       2246  8C5 003575F0 _ZN4YAML11NodeBuilder6OnNullERKNS_4MarkEy
       2247  8C6 00357660 _ZN4YAML11NodeBuilder7OnAliasERKNS_4MarkEy
       2248  8C7 00357690 _ZN4YAML11NodeBuilder8OnMapEndEv
       2249  8C8 003576D0 _ZN4YAML11NodeBuilder8OnScalarERKNS_4MarkERKNSt7__cxx1112basic_stringIcSt11char_traitsIcESaIcEEEySB_
       2250  8C9 00357770 _ZN4YAML11NodeBuilderC1Ev
       2251  8CA 00357770 _ZN4YAML11NodeBuilderC2Ev
       2252  8CB 003578B0 _ZN4YAML11NodeBuilderD0Ev
       2253  8CC 003578D0 _ZN4YAML11NodeBuilderD1Ev
       2254  8CD 003578D0 _ZN4YAML11NodeBuilderD2Ev
       2255  8CE 00357970 _ZN4YAML12BadSubscriptC2Ev
       2256  8CF 00357A50 _ZN4YAML12BadSubscriptD0Ev
       2257  8D0 003679B0 _ZN4YAML12BadSubscriptD1Ev
       2258  8D1 003679B0 _ZN4YAML12BadSubscriptD2Ev
       2259  8D2 00357A90 _ZN4YAML12EventHandler8OnAnchorERKNS_4MarkERKNSt7__cxx1112basic_stringIcSt11char_traitsIcESaIcEEE
       2260  8D3 00357AA0 _ZN4YAML12IsNullStringERKNSt7__cxx1112basic_stringIcSt11char_traitsIcESaIcEEE
       2261  8D4 00357B00 _ZN4YAML13BadConversionD0Ev
       2262  8D5 003679B0 _ZN4YAML13BadConversionD1Ev
       2263  8D6 003679B0 _ZN4YAML13BadConversionD2Ev
       2264  8D7 00357B40 _ZN4YAML13InvalidScalarD0Ev
       2265  8D8 003679B0 _ZN4YAML13InvalidScalarD1Ev
       2266  8D9 003679B0 _ZN4YAML13InvalidScalarD2Ev
       2267  8DA 00357B80 _ZN4YAML13ScanTagHandleB5cxx11ERNS_6StreamERb
       2268  8DB 00357D90 _ZN4YAML13ScanTagSuffixB5cxx11ERNS_6StreamE
       2269  8DC 00357F30 _ZN4YAML14BadDereferenceD0Ev
       2270  8DD 003679B0 _ZN4YAML14BadDereferenceD1Ev
       2271  8DE 003679B0 _ZN4YAML14BadDereferenceD2Ev
       2272  8DF 00357F70 _ZN4YAML15LoadAllFromFileERKNSt7__cxx1112basic_stringIcSt11char_traitsIcESaIcEEE
       2273  8E0 00358060 _ZN4YAML15ParserExceptionC2ERKNS_4MarkERKNSt7__cxx1112basic_stringIcSt11char_traitsIcESaIcEEE
       2274  8E1 00358090 _ZN4YAML15ParserExceptionD0Ev
       2275  8E2 003679B0 _ZN4YAML15ParserExceptionD1Ev
       2276  8E3 003679B0 _ZN4YAML15ParserExceptionD2Ev
       2277  8E4 003580D0 _ZN4YAML15ScanVerbatimTagB5cxx11ERNS_6StreamE
       2278  8E5 00358290 _ZN4YAML15SingleDocParser10HandleNodeERNS_12EventHandlerE
       2279  8E6 00358810 _ZN4YAML15SingleDocParser11ParseAnchorERyRNSt7__cxx1112basic_stringIcSt11char_traitsIcESaIcEEE
       2280  8E7 00358920 _ZN4YAML15SingleDocParser13HandleFlowMapERNS_12EventHandlerE
       2281  8E8 00358CC0 _ZN4YAML15SingleDocParser14HandleBlockMapERNS_12EventHandlerE
       2282  8E9 00359070 _ZN4YAML15SingleDocParser14HandleDocumentERNS_12EventHandlerE
       2283  8EA 00359150 _ZN4YAML15SingleDocParser14HandleSequenceERNS_12EventHandlerE
       2284  8EB 003591A0 _ZN4YAML15SingleDocParser14RegisterAnchorERKNSt7__cxx1112basic_stringIcSt11char_traitsIcESaIcEEE
       2285  8EC 003591E0 _ZN4YAML15SingleDocParser15ParsePropertiesERNSt7__cxx1112basic_stringIcSt11char_traitsIcESaIcEEERyS7_
       2286  8ED 00359280 _ZN4YAML15SingleDocParser16HandleCompactMapERNS_12EventHandlerE
       2287  8EE 003593B0 _ZN4YAML15SingleDocParser18HandleFlowSequenceERNS_12EventHandlerE
       2288  8EF 00359690 _ZN4YAML15SingleDocParser19HandleBlockSequenceERNS_12EventHandlerE
       2289  8F0 00359A20 _ZN4YAML15SingleDocParser25HandleCompactMapWithNoKeyERNS_12EventHandlerE
       2290  8F1 00359B10 _ZN4YAML15SingleDocParser8ParseTagERNSt7__cxx1112basic_stringIcSt11char_traitsIcESaIcEEE
       2291  8F2 00359C80 _ZN4YAML15SingleDocParser9HandleMapERNS_12EventHandlerE
       2292  8F3 00359E00 _ZN4YAML15SingleDocParserC1ERNS_7ScannerERKNS_10DirectivesE
       2293  8F4 00359E00 _ZN4YAML15SingleDocParserC2ERNS_7ScannerERKNS_10DirectivesE
       2294  8F5 00359E90 _ZN4YAML15SingleDocParserD1Ev
       2295  8F6 00359E90 _ZN4YAML15SingleDocParserD2Ev
       2296  8F7 00359F10 _ZN4YAML16EmitterExceptionD0Ev
       2297  8F8 003679B0 _ZN4YAML16EmitterExceptionD1Ev
       2298  8F9 003679B0 _ZN4YAML16EmitterExceptionD2Ev
       2299  8FA 00359F50 _ZN4YAML21QueueUnicodeCodepointERSt5dequeIcSaIcEEm
       2300  8FB 0035A1A0 _ZN4YAML23RepresentationExceptionD0Ev
       2301  8FC 003679B0 _ZN4YAML23RepresentationExceptionD1Ev
       2302  8FD 003679B0 _ZN4YAML23RepresentationExceptionD2Ev
       2303  8FE 0035A1E0 _ZN4YAML3Exp10BlockEntryEv
       2304  8FF 0035A2E0 _ZN4YAML3Exp11PlainScalarEv
       2305  900 0035A5A0 _ZN4YAML3Exp11ValueInFlowEv
       2306  901 0035A710 _ZN4YAML3Exp12AlphaNumericEv
       2307  902 0035A790 _ZN4YAML3Exp12BlankOrBreakEv
       2308  903 0035A810 _ZN4YAML3Exp13ScanScalarEndEv
       2309  904 0035A8F0 _ZN4YAML3Exp14ChompIndicatorEv
       2310  905 0035A9B0 _ZN4YAML3Exp14EscSingleQuoteEv
       2311  906 0035AA70 _ZN4YAML3Exp15EndScalarInFlowEv
       2312  907 0035AD20 _ZN4YAML3Exp17PlainScalarInFlowEv
       2313  908 0035AF40 _ZN4YAML3Exp19ScanScalarEndInFlowEv
       2314  909 0035B020 _ZN4YAML3Exp3HexEv
       2315  90A 0035B130 _ZN4YAML3Exp3KeyEv
       2316  90B 0035B1D0 _ZN4YAML3Exp3StrB5cxx11Ej
       2317  90C 0035B200 _ZN4YAML3Exp3TabEv
       2318  90D 0035B270 _ZN4YAML3Exp3TagEv
       2319  90E 0035B440 _ZN4YAML3Exp3URIEv
       2320  90F 0035B610 _ZN4YAML3Exp4WordEv
       2321  910 0035B6C0 _ZN4YAML3Exp5AlphaEv
       2322  911 0035B790 _ZN4YAML3Exp5BlankEv
       2323  912 0035B810 _ZN4YAML3Exp5BreakEv
       2324  913 0035B930 _ZN4YAML3Exp5ChompEv
       2325  914 0035BA90 _ZN4YAML3Exp5DigitEv
       2326  915 0035BB00 _ZN4YAML3Exp5SpaceEv
       2327  916 0035BB70 _ZN4YAML3Exp5ValueEv
       2328  917 0035BC70 _ZN4YAML3Exp6AnchorEv
       2329  918 0035BD90 _ZN4YAML3Exp6DocEndEv
       2330  919 0035BEF0 _ZN4YAML3Exp6EscapeB5cxx11ERNS_6StreamE
       2331  91A 0035C3D0 _ZN4YAML3Exp6EscapeB5cxx11ERNS_6StreamEi
       2332  91B 0035D100 _ZN4YAML3Exp7CommentEv
       2333  91C 0035D1A0 _ZN4YAML3Exp8DocStartEv
       2334  91D 0035D300 _ZN4YAML3Exp8ParseHexERKNSt7__cxx1112basic_stringIcSt11char_traitsIcESaIcEEERKNS_4MarkE
       2335  91E 0035D420 _ZN4YAML3Exp9AnchorEndEv
       2336  91F 0035D510 _ZN4YAML3Exp9EndScalarEv
       2337  920 0035D610 _ZN4YAML3Exp9KeyInFlowEv
       2338  921 0035D6B0 _ZN4YAML3Tag9TranslateB5cxx11ERKNS_10DirectivesE
       2339  922 0035DC40 _ZN4YAML3TagC1ERKNS_5TokenE
       2340  923 0035DC40 _ZN4YAML3TagC2ERKNS_5TokenE
       2341  924 0035DD60 _ZN4YAML3TagD2Ev
       2342  925 0035DDA0 _ZN4YAML4LoadEPKc
       2343  926 0035DF50 _ZN4YAML4LoadERKNSt7__cxx1112basic_stringIcSt11char_traitsIcESaIcEEE
       2344  927 0035E040 _ZN4YAML4LoadERSi
       2345  928 0035E0E0 _ZN4YAML4Node10AssignNodeERKS0_
       2346  929 0035E270 _ZN4YAML4NodeC2INSt7__cxx1112basic_stringIcSt11char_traitsIcESaIcEEEEERKT_
       2347  92A 0035E390 _ZN4YAML4NodeD2Ev
       2348  92B 0035E3F0 _ZN4YAML4NodeixIPKcEES0_RKT_
       2349  92C 0094F491 _ZN4YAML4NullE
       2350  92D 0035E640 _ZN4YAML5RegExC1ENS_8REGEX_OPE
       2351  92E 0035E660 _ZN4YAML5RegExC1ERKNSt7__cxx1112basic_stringIcSt11char_traitsIcESaIcEEENS_8REGEX_OPE
       2352  92F 0035E800 _ZN4YAML5RegExC1Ec
       2353  930 0035E820 _ZN4YAML5RegExC1Ecc
       2354  931 0035E840 _ZN4YAML5RegExC1Ev
       2355  932 0035E640 _ZN4YAML5RegExC2ENS_8REGEX_OPE
       2356  933 0035E660 _ZN4YAML5RegExC2ERKNSt7__cxx1112basic_stringIcSt11char_traitsIcESaIcEEENS_8REGEX_OPE
       2357  934 0035E800 _ZN4YAML5RegExC2Ec
       2358  935 0035E820 _ZN4YAML5RegExC2Ecc
       2359  936 0035E840 _ZN4YAML5RegExC2Ev
       2360  937 0035E860 _ZN4YAML5RegExD2Ev
       2361  938 0035E8C0 _ZN4YAML5TokenC2ERKS0_
       2362  939 0035EA20 _ZN4YAML5TokenD2Ev
       2363  93A 0035EA90 _ZN4YAML6Parser11PrintTokensERSo
       2364  93B 0035EB00 _ZN4YAML6Parser15HandleDirectiveERKNS_5TokenE
       2365  93C 0035EB70 _ZN4YAML6Parser15ParseDirectivesEv
       2366  93D 0035EC90 _ZN4YAML6Parser18HandleNextDocumentERNS_12EventHandlerE
       2367  93E 0035ED10 _ZN4YAML6Parser18HandleTagDirectiveERKNS_5TokenE
       2368  93F 0035EE80 _ZN4YAML6Parser19HandleYamlDirectiveERKNS_5TokenE
       2369  940 0035F230 _ZN4YAML6Parser4LoadERSi
       2370  941 0035F2E0 _ZN4YAML6ParserC1ERSi
       2371  942 0035F310 _ZN4YAML6ParserC1Ev
       2372  943 0035F2E0 _ZN4YAML6ParserC2ERSi
       2373  944 0035F310 _ZN4YAML6ParserC2Ev
       2374  945 0035F320 _ZN4YAML6ParserD1Ev
       2375  946 0035F320 _ZN4YAML6ParserD2Ev
       2376  947 0035F380 _ZN4YAML6Stream14AdvanceCurrentEv
       2377  948 0035F430 _ZN4YAML6Stream3eatEi
       2378  949 0035F460 _ZN4YAML6Stream3getB5cxx11Ei
       2379  94A 0035F530 _ZN4YAML6Stream3getEv
       2380  94B 0035F650 _ZN4YAML6StreamC1ERSi
       2381  94C 0035F650 _ZN4YAML6StreamC2ERSi
       2382  94D 0035F890 _ZN4YAML6StreamD1Ev
       2383  94E 0035F890 _ZN4YAML6StreamD2Ev
       2384  94F 0035F900 _ZN4YAML6detail13iterator_baseIKNS0_14iterator_valueEED2Ev
       2385  950 0035F960 _ZN4YAML6detail13iterator_baseINS0_14iterator_valueEED2Ev
       2386  951 0035F9C0 _ZN4YAML6detail13memory_holder5mergeERS1_
       2387  952 0035FA60 _ZN4YAML6detail13memory_holderD2Ev
       2388  953 0035FAC0 _ZN4YAML6detail14iterator_valueD2Ev
       2389  954 0035FBC0 _ZN4YAML6detail4node12mark_definedEv
       2390  955 0035FC40 _ZN4YAML6detail4node14add_dependencyERS1_
       2391  956 0035FD10 _ZN4YAML6detail4node3getINSt7__cxx1112basic_stringIcSt11char_traitsIcESaIcEEEEERS1_RKT_St10shared_ptrINS0_13memory_holderEE
       2392  957 0035FE60 _ZN4YAML6detail4node6equalsINSt7__cxx1112basic_stringIcSt11char_traitsIcESaIcEEEEEbRKT_St10shared_ptrINS0_13memory_holderEE
       2393  958 00360090 _ZN4YAML6detail4node6insertERS1_S2_St10shared_ptrINS0_13memory_holderEE
       2394  959 003601F0 _ZN4YAML6detail4node9push_backERS1_St10shared_ptrINS0_13memory_holderEE
       2395  95A 00360340 _ZN4YAML6detail4nodeC2Ev
       2396  95B 00360430 _ZN4YAML6detail4nodeD2Ev
       2397  95C 003604B0 _ZN4YAML6detail6memory11create_nodeEv
       2398  95D 00360650 _ZN4YAML6detail6memory5mergeERKS1_
       2399  95E 00360660 _ZN4YAML6detail6memoryD2Ev
       2400  95F 00360680 _ZN4YAML6detail8node_refD2Ev
       2401  960 003606E0 _ZN4YAML6detail9node_data10set_scalarERKNSt7__cxx1112basic_stringIcSt11char_traitsIcESaIcEEE
       2402  961 00360700 _ZN4YAML6detail9node_data12empty_scalarB5cxx11Ev
       2403  962 00360770 _ZN4YAML6detail9node_data12mark_definedEv
       2404  963 00360790 _ZN4YAML6detail9node_data14convert_to_mapESt10shared_ptrINS0_13memory_holderEE
       2405  964 003608D0 _ZN4YAML6detail9node_data14reset_sequenceEv
       2406  965 003608F0 _ZN4YAML6detail9node_data15insert_map_pairERNS0_4nodeES3_
       2407  966 00360A60 _ZN4YAML6detail9node_data23convert_sequence_to_mapESt10shared_ptrINS0_13memory_holderEE
       2408  967 00360D50 _ZN4YAML6detail9node_data3endEv
       2409  968 00360DB0 _ZN4YAML6detail9node_data3getERNS0_4nodeESt10shared_ptrINS0_13memory_holderEE
       2410  969 00360F30 _ZN4YAML6detail9node_data3getINSt7__cxx1112basic_stringIcSt11char_traitsIcESaIcEEEEERNS0_4nodeERKT_St10shared_ptrINS0_13memory_holderEE
       2411  96A 003612A0 _ZN4YAML6detail9node_data5beginEv
       2412  96B 00361360 _ZN4YAML6detail9node_data6insertERNS0_4nodeES3_St10shared_ptrINS0_13memory_holderEE
       2413  96C 00361470 _ZN4YAML6detail9node_data6removeERNS0_4nodeESt10shared_ptrINS0_13memory_holderEE
       2414  96D 00361590 _ZN4YAML6detail9node_data7set_tagERKNSt7__cxx1112basic_stringIcSt11char_traitsIcESaIcEEE
       2415  96E 003615A0 _ZN4YAML6detail9node_data8set_markERKNS_4MarkE
       2416  96F 003615B0 _ZN4YAML6detail9node_data8set_nullEv
       2417  970 003615C0 _ZN4YAML6detail9node_data8set_typeENS_8NodeType5valueE
       2418  971 00361690 _ZN4YAML6detail9node_data9push_backERNS0_4nodeESt10shared_ptrINS0_13memory_holderEE
       2419  972 003617E0 _ZN4YAML6detail9node_data9reset_mapEv
       2420  973 00361860 _ZN4YAML6detail9node_data9set_styleENS_12EmitterStyle5valueE
       2421  974 00361870 _ZN4YAML6detail9node_dataC1Ev
       2422  975 00361870 _ZN4YAML6detail9node_dataC2Ev
       2423  976 003618F0 _ZN4YAML6detail9node_dataD2Ev
       2424  977 00361980 _ZN4YAML7BadFileC2Ev
       2425  978 00361A10 _ZN4YAML7BadFileD0Ev
       2426  979 003679B0 _ZN4YAML7BadFileD1Ev
       2427  97A 003679B0 _ZN4YAML7BadFileD2Ev
       2428  97B 00361A50 _ZN4YAML7LoadAllEPKc
       2429  97C 00361C00 _ZN4YAML7LoadAllERKNSt7__cxx1112basic_stringIcSt11char_traitsIcESaIcEEE
       2430  97D 00361CF0 _ZN4YAML7LoadAllERSi
       2431  97E 00361E80 _ZN4YAML7Scanner10ScanDocEndEv
       2432  97F 00362060 _ZN4YAML7Scanner11ScanFlowEndEv
       2433  980 003625C0 _ZN4YAML7Scanner11StartStreamEv
       2434  981 00362860 _ZN4YAML7Scanner12PushIndentToEiNS0_12IndentMarker11INDENT_TYPEE
       2435  982 00362B90 _ZN4YAML7Scanner12ScanDocStartEv
       2436  983 00362D70 _ZN4YAML7Scanner13PopAllIndentsEv
       2437  984 00362DF0 _ZN4YAML7Scanner13ScanDirectiveEv
       2438  985 00363520 _ZN4YAML7Scanner13ScanFlowEntryEv
       2439  986 003638F0 _ZN4YAML7Scanner13ScanFlowStartEv
       2440  987 00363B10 _ZN4YAML7Scanner13ScanNextTokenEv
       2441  988 00363F30 _ZN4YAML7Scanner14ScanBlockEntryEv
       2442  989 00364240 _ZN4YAML7Scanner15PopIndentToHereEv
       2443  98A 00364370 _ZN4YAML7Scanner15ScanBlockScalarEv
       2444  98B 00364B80 _ZN4YAML7Scanner15ScanPlainScalarEv
       2445  98C 00364ED0 _ZN4YAML7Scanner15ScanToNextTokenEv
       2446  98D 00365190 _ZN4YAML7Scanner15VerifySimpleKeyEv
       2447  98E 00365300 _ZN4YAML7Scanner16PopAllSimpleKeysEv
       2448  98F 003653A0 _ZN4YAML7Scanner16ScanQuotedScalarEv
       2449  990 00365830 _ZN4YAML7Scanner17ScanAnchorOrAliasEv
       2450  991 00365C70 _ZN4YAML7Scanner19EnsureTokensInQueueEv
       2451  992 00365CF0 _ZN4YAML7Scanner19InvalidateSimpleKeyEv
       2452  993 00365E00 _ZN4YAML7Scanner21IsWhitespaceToBeEatenEc
       2453  994 00365E10 _ZN4YAML7Scanner24InsertPotentialSimpleKeyEv
       2454  995 003661B0 _ZN4YAML7Scanner3popEv
       2455  996 00366260 _ZN4YAML7Scanner4peekEv
       2456  997 00366310 _ZN4YAML7Scanner5emptyEv
       2457  998 003663A0 _ZN4YAML7Scanner7ScanKeyEv
       2458  999 00366640 _ZN4YAML7Scanner7ScanTagEv
       2459  99A 00366960 _ZN4YAML7Scanner9EndStreamEv
       2460  99B 00366A00 _ZN4YAML7Scanner9PopIndentEv
       2461  99C 00366CF0 _ZN4YAML7Scanner9PushTokenENS_5Token4TYPEE
       2462  99D 00366EB0 _ZN4YAML7Scanner9ScanValueEv
       2463  99E 00367170 _ZN4YAML7Scanner9SimpleKey10InvalidateEv
       2464  99F 003671A0 _ZN4YAML7Scanner9SimpleKey8ValidateEv
       2465  9A0 003671D0 _ZN4YAML7Scanner9SimpleKeyC1ERKNS_4MarkEy
       2466  9A1 003671D0 _ZN4YAML7Scanner9SimpleKeyC2ERKNS_4MarkEy
       2467  9A2 003671F0 _ZN4YAML7ScannerC1ERSi
       2468  9A3 003671F0 _ZN4YAML7ScannerC2ERSi
       2469  9A4 00367360 _ZN4YAML7ScannerD1Ev
       2470  9A5 00367360 _ZN4YAML7ScannerD2Ev
       2471  9A6 003674E0 _ZN4YAML8LoadFileERKNSt7__cxx1112basic_stringIcSt11char_traitsIcESaIcEEE
       2472  9A7 003675D0 _ZN4YAML9BadInsertD0Ev
       2473  9A8 003679B0 _ZN4YAML9BadInsertD1Ev
       2474  9A9 003679B0 _ZN4YAML9BadInsertD2Ev
       2475  9AA 00367610 _ZN4YAML9Exception10build_whatERKNS_4MarkERKNSt7__cxx1112basic_stringIcSt11char_traitsIcESaIcEEE
       2476  9AB 00367870 _ZN4YAML9ExceptionC2ERKNS_4MarkERKNSt7__cxx1112basic_stringIcSt11char_traitsIcESaIcEEE
       2477  9AC 00367970 _ZN4YAML9ExceptionD0Ev
       2478  9AD 003679B0 _ZN4YAML9ExceptionD1Ev
       2479  9AE 003679B0 _ZN4YAML9ExceptionD2Ev
       2480  9AF 003679F0 _ZN4YAMLanERKNS_5RegExES2_
       2481  9B0 00367A80 _ZN4YAMLlsERSoRKNS_5TokenE
       2482  9B1 00367BC0 _ZN4YAMLntERKNS_5RegExE
       2483  9B2 00367C10 _ZN4YAMLorERKNS_5RegExES2_
       2484  9B3 00367CA0 _ZN4YAMLplERKNS_5RegExES2_
       2485  9B4 00367D30 _ZN5BioNj10InitializeEPPfP6_iobufiPNS_8pointersE
       2486  9B5 00367E80 _ZN5BioNj6FinishEPPfiPNS_8pointersEP6_iobuf
       2487  9B6 00368230 _ZN5BioNj6createEPKcS1_
       2488  9B7 00368D80 _ZN5Eigen10MatrixBaseINS_5BlockINS_6MatrixIdLi4ELi4ELi0ELi4ELi4EEELi4ELin1ELb1EEEE26applyHouseholderOnTheRightINS_11VectorBlockINS1_IS3_Li4ELi1ELb1EEELin1EEEEEvRKT_RKdPd
       2489  9B8 00369160 _ZN5Eigen10MatrixBaseINS_5BlockINS_6MatrixIdLi4ELi4ELi0ELi4ELi4EEELin1ELin1ELb0EEEE25applyHouseholderOnTheLeftINS1_IKS3_Lin1ELi1ELb0EEEEEvRKT_RKdPd
       2490  9B9 00369930 _ZN5Eigen10MatrixBaseINS_5BlockINS_6MatrixIdLi4ELi4ELi0ELi4ELi4EEELin1ELin1ELb0EEEE25applyHouseholderOnTheLeftINS2_IdLi1ELi1ELi0ELi1ELi1EEEEEvRKT_RKdPd
       2491  9BA 00369DD0 _ZN5Eigen10MatrixBaseINS_5BlockINS_6MatrixIdLi4ELi4ELi0ELi4ELi4EEELin1ELin1ELb0EEEE25applyHouseholderOnTheLeftINS2_IdLi2ELi1ELi0ELi2ELi1EEEEEvRKT_RKdPd
       2492  9BB 0036A270 _ZN5Eigen10MatrixBaseINS_5BlockINS_6MatrixIdLi4ELi4ELi0ELi4ELi4EEELin1ELin1ELb0EEEE25applyHouseholderOnTheLeftINS_11VectorBlockINS1_IS3_Li4ELi1ELb1EEELin1EEEEEvRKT_RKdPd
       2493  9BC 0036AAA0 _ZN5Eigen10MatrixBaseINS_5BlockINS_6MatrixIdLi4ELi4ELi0ELi4ELi4EEELin1ELin1ELb0EEEE26applyHouseholderOnTheRightINS1_IKS3_Lin1ELi1ELb0EEEEEvRKT_RKdPd
       2494  9BD 0036B800 _ZN5Eigen10MatrixBaseINS_5BlockINS_6MatrixIdLi4ELi4ELi0ELi4ELi4EEELin1ELin1ELb0EEEE26applyHouseholderOnTheRightINS2_IdLi1ELi1ELi0ELi1ELi1EEEEEvRKT_RKdPd
       2495  9BE 0036C360 _ZN5Eigen10MatrixBaseINS_5BlockINS_6MatrixIdLi4ELi4ELi0ELi4ELi4EEELin1ELin1ELb0EEEE26applyHouseholderOnTheRightINS2_IdLi2ELi1ELi0ELi2ELi1EEEEEvRKT_RKdPd
       2496  9BF 0036CEC0 _ZN5Eigen10MatrixBaseINS_5BlockINS_6MatrixIdLin1ELi1ELi0ELin1ELi1EEELin1ELin1ELb0EEEE25applyHouseholderOnTheLeftINS1_IKNS2_IdLin1ELin1ELi0ELin1ELin1EEELin1ELi1ELb0EEEEEvRKT_RKdPd
       2497  9C0 0036D690 _ZN5Eigen10MatrixBaseINS_5BlockINS_6MatrixIdLin1ELin1ELi0ELin1ELin1EEELin1ELin1ELb0EEEE25applyHouseholderOnTheLeftINS1_IKS3_Lin1ELi1ELb0EEEEEvRKT_RKdPd
       2498  9C1 0036E070 _ZN5Eigen10MatrixBaseINS_5BlockINS_6MatrixIdLin1ELin1ELi0ELin1ELin1EEELin1ELin1ELb0EEEE25applyHouseholderOnTheLeftINS2_IdLi1ELi1ELi0ELi1ELi1EEEEEvRKT_RKdPd
       2499  9C2 0036E7D0 _ZN5Eigen10MatrixBaseINS_5BlockINS_6MatrixIdLin1ELin1ELi0ELin1ELin1EEELin1ELin1ELb0EEEE25applyHouseholderOnTheLeftINS2_IdLi2ELi1ELi0ELi2ELi1EEEEEvRKT_RKdPd
       2500  9C3 0036EEB0 _ZN5Eigen10MatrixBaseINS_5BlockINS_6MatrixIdLin1ELin1ELi0ELin1ELin1EEELin1ELin1ELb0EEEE25applyHouseholderOnTheLeftINS_11VectorBlockINS1_IS3_Lin1ELi1ELb1EEELin1EEEEEvRKT_RKdPd
       2501  9C4 0036F8C0 _ZN5Eigen10MatrixBaseINS_5BlockINS_6MatrixIdLin1ELin1ELi0ELin1ELin1EEELin1ELin1ELb0EEEE26applyHouseholderOnTheRightINS1_IKS3_Lin1ELi1ELb0EEEEEvRKT_RKdPd
       2502  9C5 00370500 _ZN5Eigen10MatrixBaseINS_5BlockINS_6MatrixIdLin1ELin1ELi0ELin1ELin1EEELin1ELin1ELb0EEEE26applyHouseholderOnTheRightINS2_IdLi1ELi1ELi0ELi1ELi1EEEEEvRKT_RKdPd
       2503  9C6 00371080 _ZN5Eigen10MatrixBaseINS_5BlockINS_6MatrixIdLin1ELin1ELi0ELin1ELin1EEELin1ELin1ELb0EEEE26applyHouseholderOnTheRightINS2_IdLi2ELi1ELi0ELi2ELi1EEEEEvRKT_RKdPd
       2504  9C7 00371C00 _ZN5Eigen10MatrixBaseINS_5BlockINS_6MatrixIdLin1ELin1ELi0ELin1ELin1EEELin1ELin1ELb1EEEE26applyHouseholderOnTheRightINS_11VectorBlockINS1_IS3_Lin1ELi1ELb1EEELin1EEEEEvRKT_RKdPd
       2505  9C8 00372A70 _ZN5Eigen10MatrixBaseINS_6MatrixIdLin1ELin1ELi0ELin1ELin1EEEE11setIdentityExx
       2506  9C9 00372B50 _ZN5Eigen11EigenSolverINS_6MatrixIdLi4ELi4ELi0ELi4ELi4EEEE21doComputeEigenvectorsEv
       2507  9CA 00373FE0 _ZN5Eigen11EigenSolverINS_6MatrixIdLi4ELi4ELi0ELi4ELi4EEEE7computeIS2_EERS3_RKNS_9EigenBaseIT_EEb
       2508  9CB 003743C0 _ZN5Eigen11EigenSolverINS_6MatrixIdLin1ELin1ELi0ELin1ELin1EEEE21doComputeEigenvectorsEv
       2509  9CC 00376410 _ZN5Eigen11EigenSolverINS_6MatrixIdLin1ELin1ELi0ELin1ELin1EEEE7computeIS2_EERS3_RKNS_9EigenBaseIT_EEb
       2510  9CD 003767F0 _ZN5Eigen11EigenSolverINS_6MatrixIdLin1ELin1ELi0ELin1ELin1EEEEC2IS2_EERKNS_9EigenBaseIT_EEb
       2511  9CE 00376A30 _ZN5Eigen11EigenSolverINS_6MatrixIdLin1ELin1ELi0ELin1ELin1EEEED2Ev
       2512  9CF 00376AB0 _ZN5Eigen12DenseStorageISt7complexIdELin1ELin1ELin1ELi0EE6resizeExxx
       2513  9D0 00376B70 _ZN5Eigen12DenseStorageISt7complexIdELin1ELin1ELin1ELi0EEC2ERKS3_
       2514  9D1 00376C40 _ZN5Eigen12DenseStorageIdLin1ELi1ELin1ELi1EE6resizeExxx
       2515  9D2 00376CF0 _ZN5Eigen12DenseStorageIdLin1ELin1ELi1ELi0EE6resizeExxx
       2516  9D3 00376DA0 _ZN5Eigen12DenseStorageIdLin1ELin1ELi1ELi0EEC2ERKS1_
       2517  9D4 00376E60 _ZN5Eigen12DenseStorageIdLin1ELin1ELin1ELi0EE6resizeExxx
       2518  9D5 00376F30 _ZN5Eigen12DenseStorageIdLin1ELin1ELin1ELi0EEC2ERKS1_
       2519  9D6 00377010 _ZN5Eigen12DenseStorageIdLin1ELin1ELin1ELi1EE6resizeExxx
       2520  9D7 003770E0 _ZN5Eigen12DenseStorageIiLin1ELi1ELin1ELi1EE6resizeExxx
       2521  9D8 00377190 _ZN5Eigen12DenseStorageIiLin1ELi1ELin1ELi1EEC2ERKS1_
       2522  9D9 00377260 _ZN5Eigen12DenseStorageIiLin1ELin1ELi1ELi0EE6resizeExxx
       2523  9DA 00377310 _ZN5Eigen12DenseStorageIiLin1ELin1ELi1ELi0EEC2ERKS1_
       2524  9DB 003773D0 _ZN5Eigen12DenseStorageIxLin1ELi1ELin1ELi1EE6resizeExxx
       2525  9DC 00377480 _ZN5Eigen12PartialPivLUINS_6MatrixIdLin1ELin1ELi0ELin1ELin1EEEE7computeEv
       2526  9DD 00377710 _ZN5Eigen12PartialPivLUINS_6MatrixIdLin1ELin1ELi0ELin1ELin1EEEEC2IS2_EERKNS_9EigenBaseIT_EE
       2527  9DE 003778A0 _ZN5Eigen12PartialPivLUINS_6MatrixIdLin1ELin1ELi0ELin1ELin1EEEED2Ev
       2528  9DF 003778D0 _ZN5Eigen12PartialPivLUINS_6MatrixIdLin1ELin1ELi1ELin1ELin1EEEE7computeEv
       2529  9E0 00377B60 _ZN5Eigen12PartialPivLUINS_6MatrixIdLin1ELin1ELi1ELin1ELin1EEEEC2IS2_EERKNS_9EigenBaseIT_EE
       2530  9E1 00377CF0 _ZN5Eigen12PartialPivLUINS_6MatrixIdLin1ELin1ELi1ELin1ELin1EEEED2Ev
       2531  9E2 00377D20 _ZN5Eigen13CwiseBinaryOpINS_8internal17scalar_product_opIddEEKNS_9TransposeIKNS_7ProductINS4_INS_6MatrixIdLin1ELi1ELi0ELin1ELi1EEEEENS_7InverseINS_9FullPivLUINS6_IdLin1ELin1ELi0ELin1ELin1EEEEEEELi0EEEEEKS7_ED2Ev
       2532  9E3 00377D60 _ZN5Eigen13CwiseBinaryOpINS_8internal22scalar_conj_product_opIddEEKNS_9TransposeIKNS_5BlockIKNS4_INS_6MatrixIdLin1ELi1ELi0ELin1ELi1EEEEELi1ELin1ELb1EEEEEKNS5_IKNS_7InverseINS_9FullPivLUINS6_IdLin1ELin1ELi0ELin1ELin1EEEEEEELin1ELi1ELb1EEEED2Ev
       2533  9E4 00377DA0 _ZN5Eigen15PlainObjectBaseINS_5ArrayISt7complexIdELin1ELi1ELi0ELin1ELi1EEEE6resizeExx
       2534  9E5 00377E70 _ZN5Eigen15PlainObjectBaseINS_5ArrayIdLin1ELi1ELi0ELin1ELi1EEEEC2INS_12CwiseUnaryOpINS_8internal13scalar_exp_opIdEEKNS_13CwiseBinaryOpINS6_17scalar_product_opIddEEKS2_KNS_14CwiseNullaryOpINS6_18scalar_constant_opIdEESC_EEEEEEEERKNS_9DenseBaseIT_EE
       2535  9E6 00378220 _ZN5Eigen15PlainObjectBaseINS_5ArrayIdLin1ELi1ELi0ELin1ELi1EEEEC2INS_12CwiseUnaryOpINS_8internal14scalar_sqrt_opIdEEKNS_12ArrayWrapperINS_6MatrixIdLin1ELi1ELi0ELin1ELi1EEEEEEEEERKNS_9DenseBaseIT_EE
       2536  9E7 00378360 _ZN5Eigen15PlainObjectBaseINS_5ArrayIdLin1ELi1ELi0ELin1ELi1EEEEC2INS_13CwiseBinaryOpINS_8internal17scalar_product_opIddEEKS2_S9_EEEERKNS_9DenseBaseIT_EE
       2537  9E8 00378690 _ZN5Eigen15PlainObjectBaseINS_5ArrayIdLin1ELi1ELi0ELin1ELi1EEEEC2INS_3MapIS2_Li16ENS_6StrideILi0ELi0EEEEEEERKNS_9DenseBaseIT_EE
       2538  9E9 00378930 _ZN5Eigen15PlainObjectBaseINS_6MatrixISt7complexIdELin1ELi1ELi0ELin1ELi1EEEE6resizeEx
       2539  9EA 003789F0 _ZN5Eigen15PlainObjectBaseINS_6MatrixISt7complexIdELin1ELi1ELi0ELin1ELi1EEEE6resizeExx
       2540  9EB 00378AC0 _ZN5Eigen15PlainObjectBaseINS_6MatrixISt7complexIdELin1ELin1ELi0ELin1ELin1EEEEC2INS_7ProductINS7_INS_3MapIS4_Li16ENS_6StrideILi0ELi0EEEEENS_15DiagonalWrapperIKNS1_IS3_Lin1ELi1ELi0ELin1ELi1EEEEELi1EEESB_Li0EEEEERKNS_9DenseBaseIT_EE
       2541  9EC 00378C30 _ZN5Eigen15PlainObjectBaseINS_6MatrixISt7complexIdELin1ELin1ELi0ELin1ELin1EEEEC2INS_7ProductINS_3MapIS4_Li0ENS_6StrideILi0ELi0EEEEENS_15DiagonalWrapperIKNS1_IS3_Lin1ELi1ELi0ELin1ELi1EEEEELi1EEEEERKNS_9DenseBaseIT_EE
       2542  9ED 00378F20 _ZN5Eigen15PlainObjectBaseINS_6MatrixISt7complexIdELin1ELin1ELi0ELin1ELin1EEEEC2INS_7ProductINS_3MapIS4_Li16ENS_6StrideILi0ELi0EEEEENS_15DiagonalWrapperIKNS1_IS3_Lin1ELi1ELi0ELin1ELi1EEEEELi1EEEEERKNS_9DenseBaseIT_EE
       2543  9EE 00379210 _ZN5Eigen15PlainObjectBaseINS_6MatrixIdLin1ELi1ELi0ELin1ELi1EEEEC2INS_16PartialReduxExprINS_3MapINS1_IdLin1ELin1ELi1ELin1ELin1EEELi0ENS_6StrideILi0ELi0EEEEENS_8internal10member_sumIddEELi1EEEEERKNS_9DenseBaseIT_EE
       2544  9EF 00379320 _ZN5Eigen15PlainObjectBaseINS_6MatrixIdLin1ELi1ELi0ELin1ELi1EEEEC2INS_9TransposeIKNS_5BlockIKNS_7ProductINS_3MapINS1_IdLin1ELin1ELi1ELin1ELin1EEELi16ENS_6StrideILi0ELi0EEEEENS_15DiagonalWrapperIKNS_13MatrixWrapperINS_5ArrayIdLin1ELi1ELi0ELin1ELi1EEEEEEELi1EEELi1ELin1ELb1EEEEEEERKNS_9DenseBaseIT_EE
       2545  9F0 00379670 _ZN5Eigen15PlainObjectBaseINS_6MatrixIdLin1ELi1ELi0ELin1ELi1EEEEC2INS_9TransposeIKNS_5BlockIKNS_7ProductINS_3MapINS1_IdLin1ELin1ELi1ELin1ELin1EEELi16ENS_6StrideILi0ELi0EEEEENS_15DiagonalWrapperIKS2_EELi1EEELi1ELin1ELb1EEEEEEERKNS_9DenseBaseIT_EE
       2546  9F1 003799C0 _ZN5Eigen15PlainObjectBaseINS_6MatrixIdLin1ELin1ELi0ELin1ELin1EEEE7setZeroExx
       2547  9F2 00379AB0 _ZN5Eigen15PlainObjectBaseINS_6MatrixIdLin1ELin1ELi0ELin1ELin1EEEEC2INS_12CwiseUnaryOpINS_8internal26MatrixExponentialScalingOpIdEEKS2_EEEERKNS_9DenseBaseIT_EE
       2548  9F3 00379B80 _ZN5Eigen15PlainObjectBaseINS_6MatrixIdLin1ELin1ELi0ELin1ELin1EEEEC2INS_13CwiseBinaryOpINS_8internal13scalar_sum_opIddEEKNS5_INS6_17scalar_product_opIddEEKNS_14CwiseNullaryOpINS6_18scalar_constant_opIdEEKS2_EESE_EEKNS5_ISA_SG_KNSB_INS6_18scalar_identity_opIdEES2_EEEEEEEERKNS_9DenseBaseIT_EE
       2549  9F4 00379C50 _ZN5Eigen15PlainObjectBaseINS_6MatrixIdLin1ELin1ELi0ELin1ELin1EEEEC2INS_13CwiseBinaryOpINS_8internal13scalar_sum_opIddEEKNS5_IS8_KNS5_INS6_17scalar_product_opIddEEKNS_14CwiseNullaryOpINS6_18scalar_constant_opIdEEKS2_EESE_EESI_EEKNS5_ISA_SG_KNSB_INS6_18scalar_identity_opIdEES2_EEEEEEEERKNS_9DenseBaseIT_EE
       2550  9F5 00379D30 _ZN5Eigen15PlainObjectBaseINS_6MatrixIdLin1ELin1ELi0ELin1ELin1EEEEC2INS_13CwiseBinaryOpINS_8internal13scalar_sum_opIddEEKNS5_IS8_KNS5_IS8_KNS5_INS6_17scalar_product_opIddEEKNS_14CwiseNullaryOpINS6_18scalar_constant_opIdEEKS2_EESE_EESI_EESI_EEKNS5_ISA_SG_KNSB_INS6_18scalar_identity_opIdEES2_EEEEEEEERKNS_9DenseBaseIT_EE
       2551  9F6 00379E10 _ZN5Eigen15PlainObjectBaseINS_6MatrixIdLin1ELin1ELi0ELin1ELin1EEEEC2INS_13CwiseBinaryOpINS_8internal13scalar_sum_opIddEEKNS5_IS8_KNS5_IS8_KNS5_IS8_KNS5_INS6_17scalar_product_opIddEEKNS_14CwiseNullaryOpINS6_18scalar_constant_opIdEEKS2_EESE_EESI_EESI_EESI_EEKNS5_ISA_SG_KNSB_INS6_18scalar_identity_opIdEES2_EEEEEEEERKNS_9DenseBaseIT_EE
       2552  9F7 00379EF0 _ZN5Eigen15PlainObjectBaseINS_6MatrixIdLin1ELin1ELi0ELin1ELin1EEEEC2INS_13CwiseBinaryOpINS_8internal13scalar_sum_opIddEEKNS_12CwiseUnaryOpINS6_18scalar_opposite_opIdEEKS2_EESC_EEEERKNS_9DenseBaseIT_EE
       2553  9F8 00379FC0 _ZN5Eigen15PlainObjectBaseINS_6MatrixIdLin1ELin1ELi0ELin1ELin1EEEEC2INS_13CwiseBinaryOpINS_8internal13scalar_sum_opIddEEKS2_S9_EEEERKNS_9DenseBaseIT_EE
       2554  9F9 0037A090 _ZN5Eigen15PlainObjectBaseINS_6MatrixIdLin1ELin1ELi0ELin1ELin1EEEEC2INS_3MapINS1_IdLin1ELin1ELi1ELin1ELin1EEELi16ENS_6StrideILi0ELi0EEEEEEERKNS_9DenseBaseIT_EE
       2555  9FA 0037A160 _ZN5Eigen15PlainObjectBaseINS_6MatrixIdLin1ELin1ELi0ELin1ELin1EEEEC2INS_7ProductINS5_INS_3MapINS1_IdLin1ELin1ELi1ELin1ELin1EEELi16ENS_6StrideILi0ELi0EEEEENS_15DiagonalWrapperIKNS1_IdLin1ELi1ELi0ELin1ELi1EEEEELi1EEESA_Li0EEEEERKNS_9DenseBaseIT_EE
       2556  9FB 0037A2D0 _ZN5Eigen15PlainObjectBaseINS_6MatrixIdLin1ELin1ELi0ELin1ELin1EEEEC2INS_7ProductINS5_INS_3MapINS1_IdLin1ELin1ELi1ELin1ELin1EEELi16ENS_6StrideILi0ELi0EEEEENS_15DiagonalWrapperIKNS_13MatrixWrapperINS_5ArrayIdLin1ELi1ELi0ELin1ELi1EEEEEEELi1EEESA_Li0EEEEERKNS_9DenseBaseIT_EE
       2557  9FC 0037A440 _ZN5Eigen15PlainObjectBaseINS_6MatrixIdLin1ELin1ELi0ELin1ELin1EEEEC2INS_7ProductINS_14TriangularViewIKNS_9TransposeIKNS_5BlockIS2_Lin1ELin1ELb0EEEEELj6EEES9_Li0EEEEERKNS_9DenseBaseIT_EE
       2558  9FD 0037A510 _ZN5Eigen15PlainObjectBaseINS_6MatrixIdLin1ELin1ELi0ELin1ELin1EEEEC2INS_7ProductINS_15DiagonalWrapperIKNS_13MatrixWrapperIKNS_12CwiseUnaryOpINS_8internal17scalar_inverse_opIdEEKNS_5ArrayIdLin1ELi1ELi0ELin1ELi1EEEEEEEEES2_Li1EEEEERKNS_9DenseBaseIT_EE
       2559  9FE 0037A5F0 _ZN5Eigen15PlainObjectBaseINS_6MatrixIdLin1ELin1ELi0ELin1ELin1EEEEC2INS_7ProductINS_3MapINS1_IdLin1ELin1ELi1ELin1ELin1EEELi0ENS_6StrideILi0ELi0EEEEESA_Li0EEEEERKNS_9DenseBaseIT_EE
       2560  9FF 0037A760 _ZN5Eigen15PlainObjectBaseINS_6MatrixIdLin1ELin1ELi0ELin1ELin1EEEEC2INS_7ProductINS_9TransposeIKS2_EENS_15DiagonalWrapperIKNS_13MatrixWrapperINS_5ArrayIdLin1ELi1ELi0ELin1ELi1EEEEEEELi1EEEEERKNS_9DenseBaseIT_EE
       2561  A00 0037A840 _ZN5Eigen15PlainObjectBaseINS_6MatrixIdLin1ELin1ELi0ELin1ELin1EEEEC2INS_7ProductIS2_S2_Li0EEEEERKNS_9DenseBaseIT_EE
       2562  A01 0037A9C0 _ZN5Eigen15PlainObjectBaseINS_6MatrixIdLin1ELin1ELi0ELin1ELin1EEEEaSINS_28MatrixExponentialReturnValueINS_13CwiseBinaryOpINS_8internal17scalar_product_opIddEEKS2_KNS_14CwiseNullaryOpINS7_18scalar_constant_opIdEESA_EEEEEEEERS2_RKNS_13ReturnByValueIT_EE
       2563  A02 0037AAC0 _ZN5Eigen15PlainObjectBaseINS_6MatrixIdLin1ELin1ELi0ELin1ELin1EEEEaSINS_8internal40HessenbergDecompositionMatrixHReturnTypeIS2_EEEERS2_RKNS_13ReturnByValueIT_EE
       2564  A03 0037AC90 _ZN5Eigen15PlainObjectBaseINS_6MatrixIdLin1ELin1ELi1ELin1ELin1EEEEC2INS_12CwiseUnaryOpINS_8internal26MatrixExponentialScalingOpIdEEKS2_EEEERKNS_9DenseBaseIT_EE
       2565  A04 0037AD60 _ZN5Eigen15PlainObjectBaseINS_6MatrixIdLin1ELin1ELi1ELin1ELin1EEEEC2INS_13CwiseBinaryOpINS_8internal13scalar_sum_opIddEEKNS5_INS6_17scalar_product_opIddEEKNS_14CwiseNullaryOpINS6_18scalar_constant_opIdEEKS2_EESE_EEKNS5_ISA_SG_KNSB_INS6_18scalar_identity_opIdEES2_EEEEEEEERKNS_9DenseBaseIT_EE
       2566  A05 0037AE30 _ZN5Eigen15PlainObjectBaseINS_6MatrixIdLin1ELin1ELi1ELin1ELin1EEEEC2INS_13CwiseBinaryOpINS_8internal13scalar_sum_opIddEEKNS5_IS8_KNS5_INS6_17scalar_product_opIddEEKNS_14CwiseNullaryOpINS6_18scalar_constant_opIdEEKS2_EESE_EESI_EEKNS5_ISA_SG_KNSB_INS6_18scalar_identity_opIdEES2_EEEEEEEERKNS_9DenseBaseIT_EE
       2567  A06 0037AF10 _ZN5Eigen15PlainObjectBaseINS_6MatrixIdLin1ELin1ELi1ELin1ELin1EEEEC2INS_13CwiseBinaryOpINS_8internal13scalar_sum_opIddEEKNS5_IS8_KNS5_IS8_KNS5_INS6_17scalar_product_opIddEEKNS_14CwiseNullaryOpINS6_18scalar_constant_opIdEEKS2_EESE_EESI_EESI_EEKNS5_ISA_SG_KNSB_INS6_18scalar_identity_opIdEES2_EEEEEEEERKNS_9DenseBaseIT_EE
       2568  A07 0037AFF0 _ZN5Eigen15PlainObjectBaseINS_6MatrixIdLin1ELin1ELi1ELin1ELin1EEEEC2INS_13CwiseBinaryOpINS_8internal13scalar_sum_opIddEEKNS5_IS8_KNS5_IS8_KNS5_IS8_KNS5_INS6_17scalar_product_opIddEEKNS_14CwiseNullaryOpINS6_18scalar_constant_opIdEEKS2_EESE_EESI_EESI_EESI_EEKNS5_ISA_SG_KNSB_INS6_18scalar_identity_opIdEES2_EEEEEEEERKNS_9DenseBaseIT_EE
       2569  A08 0037B0D0 _ZN5Eigen15PlainObjectBaseINS_6MatrixIdLin1ELin1ELi1ELin1ELin1EEEEC2INS_13CwiseBinaryOpINS_8internal13scalar_sum_opIddEEKNS_12CwiseUnaryOpINS6_18scalar_opposite_opIdEEKS2_EESC_EEEERKNS_9DenseBaseIT_EE
       2570  A09 0037B1A0 _ZN5Eigen15PlainObjectBaseINS_6MatrixIdLin1ELin1ELi1ELin1ELin1EEEEC2INS_13CwiseBinaryOpINS_8internal13scalar_sum_opIddEEKS2_S9_EEEERKNS_9DenseBaseIT_EE
       2571  A0A 0037B270 _ZN5Eigen15PlainObjectBaseINS_6MatrixIdLin1ELin1ELi1ELin1ELin1EEEEC2INS_7ProductINS_3MapIS2_Li16ENS_6StrideILi0ELi0EEEEENS_15DiagonalWrapperIKNS1_IdLin1ELi1ELi0ELin1ELi1EEEEELi1EEEEERKNS_9DenseBaseIT_EE
       2572  A0B 0037B340 _ZN5Eigen15PlainObjectBaseINS_6MatrixIdLin1ELin1ELi1ELin1ELin1EEEEC2INS_7ProductINS_3MapIS2_Li16ENS_6StrideILi0ELi0EEEEENS_15DiagonalWrapperIKNS_13MatrixWrapperINS_5ArrayIdLin1ELi1ELi0ELin1ELi1EEEEEEELi1EEEEERKNS_9DenseBaseIT_EE
       2573  A0C 0037B410 _ZN5Eigen15PlainObjectBaseINS_6MatrixIdLin1ELin1ELi1ELin1ELin1EEEEC2INS_7ProductIS2_S2_Li0EEEEERKNS_9DenseBaseIT_EE
       2574  A0D 0037B590 _ZN5Eigen19ColPivHouseholderQRINS_6MatrixIdLin1ELin1ELi0ELin1ELin1EEEE14computeInPlaceEv
       2575  A0E 0037CA20 _ZN5Eigen19ColPivHouseholderQRINS_6MatrixIdLin1ELin1ELi0ELin1ELin1EEEEC2IS2_EERKNS_9EigenBaseIT_EE
       2576  A0F 0037CD20 _ZN5Eigen19ColPivHouseholderQRINS_6MatrixIdLin1ELin1ELi0ELin1ELin1EEEED2Ev
       2577  A10 0037CD70 _ZN5Eigen22SelfAdjointEigenSolverINS_6MatrixIdLin1ELin1ELi0ELin1ELin1EEEE7computeIS2_EERS3_RKNS_9EigenBaseIT_EEi
       2578  A11 0037D400 _ZN5Eigen22SelfAdjointEigenSolverINS_6MatrixIdLin1ELin1ELi0ELin1ELin1EEEEC2IS2_EERKNS_9EigenBaseIT_EEi
       2579  A12 0037D5C0 _ZN5Eigen22SelfAdjointEigenSolverINS_6MatrixIdLin1ELin1ELi0ELin1ELin1EEEED2Ev
       2580  A13 0037D5F0 _ZN5Eigen23HessenbergDecompositionINS_6MatrixIdLi4ELi4ELi0ELi4ELi4EEEE8_computeERS2_RNS1_IdLi3ELi1ELi0ELi3ELi1EEERNS1_IdLi1ELi4ELi1ELi1ELi4EEE
       2581  A14 0037DD10 _ZN5Eigen23HessenbergDecompositionINS_6MatrixIdLin1ELin1ELi0ELin1ELin1EEEE8_computeERS2_RNS1_IdLin1ELi1ELi0ELin1ELi1EEERNS1_IdLi1ELin1ELi1ELi1ELin1EEE
       2582  A15 0037E220 _ZN5Eigen23HessenbergDecompositionINS_6MatrixIdLin1ELin1ELi0ELin1ELin1EEEEC2Ex
       2583  A16 0037E340 _ZN5Eigen3MapINS_6MatrixIdLin1ELi1ELi0ELin1ELi1EEELi16ENS_6StrideILi0ELi0EEEEC2EPdxRKS4_
       2584  A17 0037E3A0 _ZN5Eigen3MapINS_6MatrixIdLin1ELi1ELi0ELin1ELi1EEELi16ENS_6StrideILi0ELi0EEEEaSIS2_EERS5_RKNS_9DenseBaseIT_EE
       2585  A18 0037E5C0 _ZN5Eigen3MapINS_6MatrixIdLin1ELin1ELi1ELin1ELin1EEELi16ENS_6StrideILi0ELi0EEEEC2EPdxxRKS4_
       2586  A19 0037E630 _ZN5Eigen3MapINS_6MatrixIdLin1ELin1ELi1ELin1ELin1EEELi16ENS_6StrideILi0ELi0EEEEaSINS_7ProductINS_15DiagonalWrapperIKNS_13MatrixWrapperIKNS_12CwiseUnaryOpINS_8internal17scalar_inverse_opIdEEKNS_5ArrayIdLin1ELi1ELi0ELin1ELi1EEEEEEEEENS1_IdLin1ELin1ELi0ELin1ELin1EEELi1EEEEERS5_RKNS_9DenseBaseIT_EE
       2587  A1A 0037E940 _ZN5Eigen3MapINS_6MatrixIdLin1ELin1ELi1ELin1ELin1EEELi16ENS_6StrideILi0ELi0EEEEaSINS_7ProductINS_9TransposeIKNS1_IdLin1ELin1ELi0ELin1ELin1EEEEENS_15DiagonalWrapperIKNS_13MatrixWrapperINS_5ArrayIdLin1ELi1ELi0ELin1ELi1EEEEEEELi1EEEEERS5_RKNS_9DenseBaseIT_EE
       2588  A1B 0037ED50 _ZN5Eigen6MatrixIdLin1ELin1ELi0ELin1ELin1EEC2INS_7ProductINS_3MapINS0_IdLin1ELin1ELi1ELin1ELin1EEELi0ENS_6StrideILi0ELi0EEEEES1_Li0EEEEERKT_
       2589  A1C 0037EE30 _ZN5Eigen7InverseINS_9FullPivLUINS_6MatrixISt7complexIdELin1ELin1ELi0ELin1ELin1EEEEEED2Ev
       2590  A1D 0037EE70 _ZN5Eigen7InverseINS_9FullPivLUINS_6MatrixIdLin1ELin1ELi0ELin1ELin1EEEEEED2Ev
       2591  A1E 0037EEB0 _ZN5Eigen7ProductINS0_INS_9TransposeINS_6MatrixIdLin1ELi1ELi0ELin1ELi1EEEEENS_7InverseINS_9FullPivLUINS2_IdLin1ELin1ELi0ELin1ELin1EEEEEEELi0EEES3_Li0EED2Ev
       2592  A1F 0037EEF0 _ZN5Eigen7ProductINS_9TransposeINS_6MatrixIdLin1ELi1ELi0ELin1ELi1EEEEENS_7InverseINS_9FullPivLUINS2_IdLin1ELin1ELi0ELin1ELin1EEEEEEELi0EED2Ev
       2593  A20 0037EF30 _ZN5Eigen8IOFormatC2EiiRKNSt7__cxx1112basic_stringIcSt11char_traitsIcESaIcEEES8_S8_S8_S8_S8_c
       2594  A21 0037F4F0 _ZN5Eigen8IOFormatD2Ev
       2595  A22 0037F5A0 _ZN5Eigen8internal10AssignmentINS_3MapINS_6MatrixISt7complexIdELin1ELin1ELi0ELin1ELin1EEELi16ENS_6StrideILi0ELi0EEEEENS_7InverseINS_9FullPivLUIS6_EEEENS0_9assign_opIS5_S5_EENS0_11Dense2DenseEvE3runERS9_RKSD_RKSF_
       2596  A23 0037F660 _ZN5Eigen8internal10AssignmentINS_5BlockINS2_INS_6MatrixIdLin1ELi1ELi0ELin1ELi1EEELin1ELin1ELb0EEELin1ELin1ELb0EEENS_7ProductINS_13CwiseBinaryOpINS0_17scalar_product_opIddEEKNS_14CwiseNullaryOpINS0_18scalar_constant_opIdEEKS4_EEKNS2_IKNS3_IdLin1ELin1ELi0ELin1ELin1EEELin1ELi1ELb0EEEEENS_3MapINS3_IdLi1ELin1ELi1ELi1ELi1EEELi0ENS_6StrideILi0ELi0EEEEELi0EEENS0_13sub_assign_opIddEENS0_11Dense2DenseEvE3runERS6_RKSR_RKST_
       2597  A24 0037F7C0 _ZN5Eigen8internal10AssignmentINS_6MatrixISt7complexIdELin1ELin1ELi0ELin1ELin1EEENS_5SolveINS_9FullPivLUIS5_EENS_14CwiseNullaryOpINS0_18scalar_identity_opIS4_EES5_EEEENS0_9assign_opIS4_S4_EENS0_11Dense2DenseEvE3runERS5_RKSD_RKSF_
       2598  A25 0037F880 _ZN5Eigen8internal10AssignmentINS_6MatrixIdLin1ELin1ELi0ELin1ELi4EEENS_7ProductINS_14TriangularViewIKNS_9TransposeIKNS2_IdLin1ELin1ELi1ELin1ELin1EEEEELj1EEENS2_IdLin1ELin1ELi0ELi4ELi4EEELi0EEENS0_9assign_opIddEENS0_11Dense2DenseEvE3runERS3_RKSD_RKSF_
       2599  A26 0037F9C0 _ZN5Eigen8internal10AssignmentINS_6MatrixIdLin1ELin1ELi0ELin1ELi4EEENS_7ProductINS_14TriangularViewINS2_IdLin1ELin1ELi1ELin1ELin1EEELj2EEENS2_IdLin1ELin1ELi0ELi4ELi4EEELi0EEENS0_9assign_opIddEENS0_11Dense2DenseEvE3runERS3_RKS9_RKSB_
       2600  A27 0037FB00 _ZN5Eigen8internal10AssignmentINS_6MatrixIdLin1ELin1ELi0ELin1ELin1EEENS_15DiagonalWrapperIKNS_13CwiseBinaryOpINS0_13scalar_sum_opIddEEKNS2_IdLin1ELi1ELi0ELin1ELi1EEES9_EEEENS0_9assign_opIddEENS0_14Diagonal2DenseEvE3runERS3_RKSC_RKSE_
       2601  A28 0037FCF0 _ZN5Eigen8internal10AssignmentINS_6MatrixIdLin1ELin1ELi0ELin1ELin1EEENS_19HouseholderSequenceIS3_NS2_IdLin1ELi1ELi0ELin1ELi1EEELi1EEENS0_9assign_opIddEENS0_19EigenBase2EigenBaseEvE3runERS3_RKS6_RKS8_
       2602  A29 0037FDE0 _ZN5Eigen8internal10AssignmentINS_6MatrixIdLin1ELin1ELi0ELin1ELin1EEENS_5SolveINS_12PartialPivLUIS3_EES3_EENS0_9assign_opIddEENS0_11Dense2DenseEvE3runERS3_RKS7_RKS9_
       2603  A2A 0037FEA0 _ZN5Eigen8internal10AssignmentINS_6MatrixIdLin1ELin1ELi0ELin1ELin1EEENS_5SolveINS_9FullPivLUIS3_EENS_14CwiseNullaryOpINS0_18scalar_identity_opIdEES3_EEEENS0_9assign_opIddEENS0_11Dense2DenseEvE3runERS3_RKSB_RKSD_
       2604  A2B 0037FF60 _ZN5Eigen8internal10AssignmentINS_6MatrixIdLin1ELin1ELi0ELin1ELin1EEENS_7ProductINS_14TriangularViewIKNS_9TransposeIKNS2_IdLin1ELin1ELi1ELin1ELin1EEEEELj1EEES3_Li0EEENS0_9assign_opIddEENS0_11Dense2DenseEvE3runERS3_RKSC_RKSE_
       2605  A2C 00380090 _ZN5Eigen8internal10AssignmentINS_6MatrixIdLin1ELin1ELi0ELin1ELin1EEENS_7ProductINS_14TriangularViewIKNS_9TransposeIKNS_5BlockIS3_Lin1ELin1ELb0EEEEELj6EEES8_Li0EEENS0_9assign_opIddEENS0_11Dense2DenseEvE3runERS3_RKSD_RKSF_
       2606  A2D 003801C0 _ZN5Eigen8internal10AssignmentINS_6MatrixIdLin1ELin1ELi0ELin1ELin1EEENS_7ProductINS_14TriangularViewINS2_IdLin1ELin1ELi1ELin1ELin1EEELj2EEES3_Li0EEENS0_9assign_opIddEENS0_11Dense2DenseEvE3runERS3_RKS8_RKSA_
       2607  A2E 003802F0 _ZN5Eigen8internal10AssignmentINS_6MatrixIdLin1ELin1ELi0ELin1ELin1EEENS_7ProductINS_17PermutationMatrixILin1ELin1EiEENS_14CwiseNullaryOpINS0_18scalar_identity_opIdEES3_EELi2EEENS0_9assign_opIddEENS0_11Dense2DenseEvE3runERS3_RKSB_RKSD_
       2608  A2F 003805F0 _ZN5Eigen8internal10AssignmentINS_6MatrixIdLin1ELin1ELi1ELin1ELin1EEENS_5SolveINS_12PartialPivLUIS3_EES3_EENS0_9assign_opIddEENS0_11Dense2DenseEvE3runERS3_RKS7_RKS9_
       2609  A30 003806B0 _ZN5Eigen8internal10CacheSizesC2Ev
       2610  A31 00380720 _ZN5Eigen8internal10redux_implINS0_13scalar_max_opIddLi0EEENS0_15redux_evaluatorINS_16PartialReduxExprIKNS_12CwiseUnaryOpINS0_13scalar_abs_opISt7complexIdEEEKNS_6MatrixIS9_Lin1ELin1ELi0ELin1ELin1EEEEENS0_10member_sumIddEELi0EEEEELi0ELi0EE3runISI_EEdRKSJ_RKS3_RKT_
       2611  A32 00380920 _ZN5Eigen8internal10redux_implINS0_13scalar_max_opIddLi0EEENS0_15redux_evaluatorINS_16PartialReduxExprIKNS_12CwiseUnaryOpINS0_13scalar_abs_opIdEEKNS_6MatrixIdLin1ELin1ELi0ELin1ELin1EEEEENS0_10member_sumIddEELi0EEEEELi0ELi0EE3runISG_EEdRKSH_RKS3_RKT_
       2612  A33 00380DE0 _ZN5Eigen8internal10redux_implINS0_13scalar_max_opIddLi0EEENS0_15redux_evaluatorINS_16PartialReduxExprIKNS_12CwiseUnaryOpINS0_13scalar_abs_opIdEEKNS_6MatrixIdLin1ELin1ELi1ELin1ELin1EEEEENS0_10member_sumIddEELi0EEEEELi3ELi0EE3runISG_EEdRKSH_RKS3_RKT_
       2613  A34 00381C90 _ZN5Eigen8internal10redux_implINS0_13scalar_sum_opISt7complexIdES4_EENS0_15redux_evaluatorINS_13CwiseBinaryOpINS0_22scalar_conj_product_opIS4_S4_EEKNS_9TransposeIKNS_12CwiseUnaryOpINS0_19scalar_conjugate_opIS4_EEKNS_5BlockIKNSE_IKNS_7ProductINS_3MapINS_6MatrixIS4_Lin1ELin1ELi0ELin1ELin1EEELi0ENS_6StrideILi0ELi0EEEEENS_15DiagonalWrapperIKNSH_IS4_Lin1ELi1ELi0ELin1ELi1EEEEELi1EEELi1ELin1ELb0EEELi1ELin1ELb1EEEEEEEKNSE_IKSL_Lin1ELi1ELb1EEEEEEELi0ELi0EE3runIS13_EES4_RKS14_RKS5_RKT_
       2614  A35 00381EF0 _ZN5Eigen8internal10redux_implINS0_13scalar_sum_opISt7complexIdES4_EENS0_15redux_evaluatorINS_13CwiseBinaryOpINS0_22scalar_conj_product_opIS4_S4_EEKNS_9TransposeIKNS_12CwiseUnaryOpINS0_19scalar_conjugate_opIS4_EEKNS_5BlockIKNSE_IKNS_7ProductINS_3MapINS_6MatrixIS4_Lin1ELin1ELi0ELin1ELin1EEELi16ENS_6StrideILi0ELi0EEEEENS_15DiagonalWrapperIKNSH_IS4_Lin1ELi1ELi0ELin1ELi1EEEEELi1EEELi1ELin1ELb0EEELi1ELin1ELb1EEEEEEEKNSE_IKSL_Lin1ELi1ELb1EEEEEEELi0ELi0EE3runIS13_EES4_RKS14_RKS5_RKT_
       2615  A36 00382150 _ZN5Eigen8internal10redux_implINS0_13scalar_sum_opISt7complexIdES4_EENS0_15redux_evaluatorINS_13CwiseBinaryOpINS0_22scalar_conj_product_opIS4_S4_EEKNS_9TransposeIKNS_12CwiseUnaryOpINS0_19scalar_conjugate_opIS4_EEKNS_5BlockIKNS_7ProductINS_3MapINS_6MatrixIS4_Lin1ELin1ELi0ELin1ELin1EEELi0ENS_6StrideILi0ELi0EEEEENS_15DiagonalWrapperIKNSH_IS4_Lin1ELi1ELi0ELin1ELi1EEEEELi1EEELi1ELin1ELb0EEEEEEEKNSE_IKNSE_IKSL_Lin1ELi1ELb1EEELin1ELi1ELb1EEEEEEELi0ELi0EE3runIS13_EES4_RKS14_RKS5_RKT_
       2616  A37 003823A0 _ZN5Eigen8internal10redux_implINS0_13scalar_sum_opISt7complexIdES4_EENS0_15redux_evaluatorINS_13CwiseBinaryOpINS0_22scalar_conj_product_opIS4_S4_EEKNS_9TransposeIKNS_12CwiseUnaryOpINS0_19scalar_conjugate_opIS4_EEKNS_5BlockIKNS_7ProductINS_3MapINS_6MatrixIS4_Lin1ELin1ELi0ELin1ELin1EEELi16ENS_6StrideILi0ELi0EEEEENS_15DiagonalWrapperIKNSH_IS4_Lin1ELi1ELi0ELin1ELi1EEEEELi1EEELi1ELin1ELb0EEEEEEEKNSE_IKNSE_IKSL_Lin1ELi1ELb1EEELin1ELi1ELb1EEEEEEELi0ELi0EE3runIS13_EES4_RKS14_RKS5_RKT_
       2617  A38 003825F0 _ZN5Eigen8internal11dot_nocheckINS_5BlockIKNS_9TransposeINS_6MatrixIdLin1ELi1ELi0ELin1ELi1EEEEELi1ELin1ELb1EEENS2_IKNS_7InverseINS_9FullPivLUINS4_IdLin1ELin1ELi0ELin1ELin1EEEEEEELin1ELi1ELb1EEELb1EE3runERKNS_10MatrixBaseIS8_EERKNSH_ISF_EE
       2618  A39 00382970 _ZN5Eigen8internal11gebp_kernelISt7complexIdES3_xNS0_16blas_data_mapperIS3_xLi0ELi0ELi1EEELi1ELi4ELb0ELb0EEclERKS5_PKS3_SA_xxxS3_xxxx
       2619  A3A 00382A50 _ZN5Eigen8internal11gebp_kernelIddxNS0_16blas_data_mapperIdxLi0ELi0ELi1EEELi4ELi4ELb0ELb0EEclERKS3_PKdS8_xxxdxxxx
       2620  A3B 00383FF0 _ZN5Eigen8internal12print_matrixINS_6MatrixIdLin1ELi1ELi0ELin1ELi1EEEEERSoS4_RKT_RKNS_8IOFormatE
       2621  A3C 003848F0 _ZN5Eigen8internal12print_matrixINS_6MatrixIdLin1ELin1ELi0ELin1ELin1EEEEERSoS4_RKT_RKNS_8IOFormatE
       2622  A3D 003851F0 _ZN5Eigen8internal13gemm_pack_lhsISt7complexIdExNS0_22const_blas_data_mapperIS3_xLi0EEELi1ELi1ENS0_9Packet1cdELi0ELb0ELb0EEclEPS3_RKS5_xxxx
       2623  A3E 00385310 _ZN5Eigen8internal13gemm_pack_lhsIdxNS0_16blas_data_mapperIdxLi0ELi0ELi1EEELi4ELi2EDv2_dLi0ELb0ELb1EEclEPdRKS3_xxxx
       2624  A3F 003858D0 _ZN5Eigen8internal13gemm_pack_lhsIdxNS0_22const_blas_data_mapperIdxLi0EEELi4ELi2EDv2_dLi0ELb0ELb0EEclEPdRKS3_xxxx
       2625  A40 00385D90 _ZN5Eigen8internal13gemm_pack_lhsIdxNS0_22const_blas_data_mapperIdxLi1EEELi4ELi2EDv2_dLi1ELb0ELb0EEclEPdRKS3_xxxx
       2626  A41 00386870 _ZN5Eigen8internal13gemm_pack_rhsISt7complexIdExNS0_16blas_data_mapperIS3_xLi0ELi0ELi1EEELi4ELi0ELb0ELb1EEclEPS3_RKS5_xxxx
       2627  A42 00386B50 _ZN5Eigen8internal13gemm_pack_rhsISt7complexIdExNS0_22const_blas_data_mapperIS3_xLi0EEELi4ELi0ELb0ELb0EEclEPS3_RKS5_xxxx
       2628  A43 00386D90 _ZN5Eigen8internal13gemm_pack_rhsIdxNS0_16blas_data_mapperIdxLi0ELi0ELi1EEELi4ELi0ELb0ELb1EEclEPdRKS3_xxxx
       2629  A44 00387700 _ZN5Eigen8internal13gemm_pack_rhsIdxNS0_22const_blas_data_mapperIdxLi0EEELi4ELi0ELb0ELb0EEclEPdRKS3_xxxx
       2630  A45 00387F70 _ZN5Eigen8internal13gemm_pack_rhsIdxNS0_22const_blas_data_mapperIdxLi0EEELi4ELi0ELb0ELb1EEclEPdRKS3_xxxx
       2631  A46 003888E0 _ZN5Eigen8internal13gemm_pack_rhsIdxNS0_22const_blas_data_mapperIdxLi1EEELi4ELi1ELb0ELb0EEclEPdRKS3_xxxx
       2632  A47 00388EF0 _ZN5Eigen8internal13trmv_selectorILi6ELi1EE3runINS_9TransposeIKNS_5BlockIKNS5_INS_6MatrixIdLi4ELi4ELi0ELi4ELi4EEELin1ELin1ELb0EEELin1ELin1ELb0EEEEENS4_IKNS_13CwiseBinaryOpINS0_17scalar_product_opIddEEKNS_14CwiseNullaryOpINS0_18scalar_constant_opIdEEKNS6_IdLi1ELin1ELi1ELi1ELi4EEEEEKNS4_IKNS5_IKNS5_IS9_Lin1ELi1ELb1EEELin1ELi1ELb0EEEEEEEEENS4_INS5_INS5_INS6_IdLin1ELin1ELi1ELin1ELin1EEELi1ELin1ELb1EEELi1ELin1ELb0EEEEEEEvRKT_RKT0_RT1_RKNS16_6ScalarE
       2633  A48 00389080 _ZN5Eigen8internal13trmv_selectorILi6ELi1EE3runINS_9TransposeIKNS_5BlockIKNS5_INS_6MatrixIdLin1ELin1ELi0ELin1ELin1EEELin1ELin1ELb0EEELin1ELin1ELb0EEEEENS4_IKNS_13CwiseBinaryOpINS0_17scalar_product_opIddEEKNS_14CwiseNullaryOpINS0_18scalar_constant_opIdEEKNS6_IdLi1ELin1ELi1ELi1ELin1EEEEEKNS4_IKNS5_IKNS5_IS9_Lin1ELi1ELb1EEELin1ELi1ELb0EEEEEEEEENS4_INS5_INS5_INS6_IdLin1ELin1ELi1ELin1ELin1EEELi1ELin1ELb1EEELi1ELin1ELb0EEEEEEEvRKT_RKT0_RT1_RKNS16_6ScalarE
       2634  A49 00389210 _ZN5Eigen8internal15BlockImpl_denseIKNS_7InverseINS_9FullPivLUINS_6MatrixIdLin1ELin1ELi0ELin1ELin1EEEEEEELin1ELi1ELb1ELb0EED2Ev
       2635  A4A 00389250 _ZN5Eigen8internal15call_assignmentINS_5BlockINS_6MatrixISt7complexIdELin1ELin1ELi0ELin1ELin1EEELin1ELin1ELb0EEENS_7ProductINS2_IKS6_Lin1ELin1ELb0EEES7_Li0EEENS0_13sub_assign_opIS5_S5_EEEEvRT_RKT0_RKT1_NS0_9enable_ifIXsr25evaluator_assume_aliasingISG_EE5valueEPvE4typeE
       2636  A4B 003894F0 _ZN5Eigen8internal15call_assignmentINS_5BlockINS_6MatrixIdLin1ELin1ELi0ELin1ELin1EEELin1ELin1ELb0EEENS_7ProductINS2_IKS4_Lin1ELin1ELb0EEES5_Li0EEENS0_13sub_assign_opIddEEEEvRT_RKT0_RKT1_NS0_9enable_ifIXsr25evaluator_assume_aliasingISE_EE5valueEPvE4typeE
       2637  A4C 00389660 _ZN5Eigen8internal15call_assignmentINS_6MatrixISt7complexIdELin1ELin1ELi0ELin1ELin1EEENS_7ProductINS6_INS_3MapIS5_Li0ENS_6StrideILi0ELi0EEEEENS_15DiagonalWrapperIKNS2_IS4_Lin1ELi1ELi0ELin1ELi1EEEEELi1EEESA_Li0EEENS0_9assign_opIS4_S4_EEEEvRT_RKT0_RKT1_NS0_9enable_ifIXsr25evaluator_assume_aliasingISL_EE5valueEPvE4typeE
       2638  A4D 00389760 _ZN5Eigen8internal15call_assignmentINS_6MatrixIdLin1ELin1ELi0ELi4ELi4EEENS_7ProductINS_14TriangularViewIKNS_9TransposeIKNS2_IdLin1ELin1ELi1ELin1ELin1EEEEELj1EEES3_Li0EEENS0_9assign_opIddEEEEvRT_RKT0_RKT1_NS0_9enable_ifIXsr25evaluator_assume_aliasingISH_EE5valueEPvE4typeE
       2639  A4E 003899E0 _ZN5Eigen8internal15call_assignmentINS_6MatrixIdLin1ELin1ELi0ELi4ELi4EEENS_7ProductINS_14TriangularViewINS2_IdLin1ELin1ELi1ELin1ELin1EEELj2EEES3_Li0EEENS0_9assign_opIddEEEEvRT_RKT0_RKT1_NS0_9enable_ifIXsr25evaluator_assume_aliasingISD_EE5valueEPvE4typeE
       2640  A4F 00389C60 _ZN5Eigen8internal15call_assignmentINS_6MatrixIdLin1ELin1ELi0ELin1ELin1EEENS_7ProductINS4_INS_3MapINS2_IdLin1ELin1ELi1ELin1ELin1EEELi16ENS_6StrideILi0ELi0EEEEENS_15DiagonalWrapperIKNS_13MatrixWrapperINS_5ArrayIdLin1ELi1ELi0ELin1ELi1EEEEEEELi1EEES9_Li0EEENS0_9assign_opIddEEEEvRT_RKT0_RKT1_NS0_9enable_ifIXsr25evaluator_assume_aliasingISN_EE5valueEPvE4typeE
       2641  A50 00389D60 _ZN5Eigen8internal15partial_lu_implIdLi0EiLin1EE10blocked_luExxPdxPiRix
       2642  A51 0038ABC0 _ZN5Eigen8internal15partial_lu_implIdLi0EiLin1EE12unblocked_luERNS_3RefINS_6MatrixIdLin1ELin1ELi0ELin1ELin1EEELi0ENS_11OuterStrideILin1EEEEEPiRi
       2643  A52 0038B6F0 _ZN5Eigen8internal15partial_lu_implIdLi1EiLin1EE10blocked_luExxPdxPiRix
       2644  A53 0038C840 _ZN5Eigen8internal15partial_lu_implIdLi1EiLin1EE12unblocked_luERNS_3RefINS_6MatrixIdLin1ELin1ELi1ELin1ELin1EEELi0ENS_11OuterStrideILin1EEEEEPiRi
       2645  A54 0038D460 _ZN5Eigen8internal15queryCacheSizesERiS1_S1_
       2646  A55 0038D6C0 _ZN5Eigen8internal15unary_evaluatorINS_7InverseINS_9FullPivLUINS_6MatrixIdLin1ELin1ELi0ELin1ELin1EEEEEEENS0_10IndexBasedEdEC2ERKS7_
       2647  A56 0038D840 _ZN5Eigen8internal16determinant_implINS_3MapINS_6MatrixISt7complexIdELi4ELi4ELi0ELi4ELi4EEELi16ENS_6StrideILi0ELi0EEEEELi4EE3runERKS9_
       2648  A57 0038E160 _ZN5Eigen8internal16determinant_implINS_3MapINS_6MatrixISt7complexIdELi4ELi4ELi0ELi4ELi4EEELi16ENS_6StrideILi0ELi0EEEEELi4EE4det2ERKS9_xx
       2649  A58 0038E2D0 _ZN5Eigen8internal16matrix_exp_pade3INS_6MatrixIdLin1ELin1ELi0ELin1ELin1EEES3_S3_EEvRKT_RT0_RT1_
       2650  A59 0038E630 _ZN5Eigen8internal16matrix_exp_pade3INS_6MatrixIdLin1ELin1ELi1ELin1ELin1EEES3_S3_EEvRKT_RT0_RT1_
       2651  A5A 0038E990 _ZN5Eigen8internal16matrix_exp_pade5INS_6MatrixIdLin1ELin1ELi0ELin1ELin1EEES3_S3_EEvRKT_RT0_RT1_
       2652  A5B 0038EE80 _ZN5Eigen8internal16matrix_exp_pade5INS_6MatrixIdLin1ELin1ELi1ELin1ELin1EEES3_S3_EEvRKT_RT0_RT1_
       2653  A5C 0038F370 _ZN5Eigen8internal16matrix_exp_pade7INS_6MatrixIdLin1ELin1ELi0ELin1ELin1EEES3_S3_EEvRKT_RT0_RT1_
       2654  A5D 0038F9F0 _ZN5Eigen8internal16matrix_exp_pade7INS_6MatrixIdLin1ELin1ELi1ELin1ELin1EEES3_S3_EEvRKT_RT0_RT1_
       2655  A5E 00390070 _ZN5Eigen8internal16matrix_exp_pade9INS_6MatrixIdLin1ELin1ELi0ELin1ELin1EEES3_S3_EEvRKT_RT0_RT1_
       2656  A5F 00390890 _ZN5Eigen8internal16matrix_exp_pade9INS_6MatrixIdLin1ELin1ELi1ELin1ELin1EEES3_S3_EEvRKT_RT0_RT1_
       2657  A60 003910B0 _ZN5Eigen8internal16parallelize_gemmILb1ENS0_12gemm_functorISt7complexIdExNS0_29general_matrix_matrix_productIxS4_Li0ELb0ES4_Li0ELb0ELi0ELi1EEENS_5BlockIKNS_6MatrixIS4_Lin1ELin1ELi0ELin1ELin1EEELin1ELin1ELb0EEENS7_IS9_Lin1ELin1ELb0EEES9_NS0_19gemm_blocking_spaceILi0ES4_S4_Lin1ELin1ELin1ELi1ELb0EEEEExEEvRKT0_T1_SJ_SJ_b
       2658  A61 00391560 _ZN5Eigen8internal16parallelize_gemmILb1ENS0_12gemm_functorISt7complexIdExNS0_29general_matrix_matrix_productIxS4_Li0ELb0ES4_Li0ELb0ELi0ELi1EEENS_6MatrixIS4_Lin1ELin1ELi0ELin1ELin1EEENS_3MapIS8_Li0ENS_6StrideILi0ELi0EEEEES8_NS0_19gemm_blocking_spaceILi0ES4_S4_Lin1ELin1ELin1ELi1ELb0EEEEExEEvRKT0_T1_SJ_SJ_b
       2659  A62 00391A00 _ZN5Eigen8internal16parallelize_gemmILb1ENS0_12gemm_functorISt7complexIdExNS0_29general_matrix_matrix_productIxS4_Li0ELb0ES4_Li0ELb0ELi0ELi1EEENS_6MatrixIS4_Lin1ELin1ELi0ELin1ELin1EEENS_3MapIS8_Li16ENS_6StrideILi0ELi0EEEEES8_NS0_19gemm_blocking_spaceILi0ES4_S4_Lin1ELin1ELin1ELi1ELb0EEEEExEEvRKT0_T1_SJ_SJ_b
       2660  A63 00391EA0 _ZN5Eigen8internal16parallelize_gemmILb1ENS0_12gemm_functorIdxNS0_29general_matrix_matrix_productIxdLi0ELb0EdLi0ELb0ELi0ELi1EEENS_3RefINS_6MatrixIdLin1ELin1ELi0ELin1ELin1EEELi0ENS_11OuterStrideILin1EEEEESA_SA_NS0_19gemm_blocking_spaceILi0EddLin1ELin1ELin1ELi1ELb0EEEEExEEvRKT0_T1_SH_SH_b
       2661  A64 00392330 _ZN5Eigen8internal16parallelize_gemmILb1ENS0_12gemm_functorIdxNS0_29general_matrix_matrix_productIxdLi0ELb0EdLi0ELb0ELi0ELi1EEENS_5BlockIKNS_6MatrixIdLin1ELin1ELi0ELin1ELin1EEELin1ELin1ELb0EEENS5_IS7_Lin1ELin1ELb0EEES7_NS0_19gemm_blocking_spaceILi0EddLin1ELin1ELin1ELi1ELb0EEEEExEEvRKT0_T1_SH_SH_b
       2662  A65 003927D0 _ZN5Eigen8internal16parallelize_gemmILb1ENS0_12gemm_functorIdxNS0_29general_matrix_matrix_productIxdLi0ELb0EdLi0ELb0ELi0ELi1EEENS_6MatrixIdLin1ELin1ELi0ELin1ELin1EEES6_S6_NS0_19gemm_blocking_spaceILi0EddLin1ELin1ELin1ELi1ELb0EEEEExEEvRKT0_T1_SD_SD_b
       2663  A66 00392C60 _ZN5Eigen8internal16parallelize_gemmILb1ENS0_12gemm_functorIdxNS0_29general_matrix_matrix_productIxdLi1ELb0EdLi0ELb0ELi0ELi1EEENS_3MapINS_6MatrixIdLin1ELin1ELi1ELin1ELin1EEELi0ENS_6StrideILi0ELi0EEEEENS6_IdLin1ELin1ELi0ELin1ELin1EEESB_NS0_19gemm_blocking_spaceILi0EddLin1ELin1ELin1ELi1ELb0EEEEExEEvRKT0_T1_SI_SI_b
       2664  A67 003930F0 _ZN5Eigen8internal16parallelize_gemmILb1ENS0_12gemm_functorIdxNS0_29general_matrix_matrix_productIxdLi1ELb0EdLi1ELb0ELi0ELi1EEENS_3MapINS_6MatrixIdLin1ELin1ELi1ELin1ELin1EEELi0ENS_6StrideILi0ELi0EEEEESA_NS6_IdLin1ELin1ELi0ELin1ELin1EEENS0_19gemm_blocking_spaceILi0EddLin1ELin1ELin1ELi1ELb0EEEEExEEvRKT0_T1_SI_SI_b
       2665  A68 00393580 _ZN5Eigen8internal16parallelize_gemmILb1ENS0_12gemm_functorIdxNS0_29general_matrix_matrix_productIxdLi1ELb0EdLi1ELb0ELi0ELi1EEENS_6MatrixIdLin1ELin1ELi1ELin1ELin1EEENS_3MapIS6_Li16ENS_6StrideILi0ELi0EEEEENS5_IdLin1ELin1ELi0ELin1ELin1EEENS0_19gemm_blocking_spaceILi0EddLin1ELin1ELin1ELi1ELb0EEEEExEEvRKT0_T1_SI_SI_b
       2666  A69 00393A10 _ZN5Eigen8internal16parallelize_gemmILb1ENS0_12gemm_functorIdxNS0_29general_matrix_matrix_productIxdLi1ELb0EdLi1ELb0ELi0ELi1EEENS_6MatrixIdLin1ELin1ELi1ELin1ELin1EEES6_NS5_IdLin1ELin1ELi0ELin1ELin1EEENS0_19gemm_blocking_spaceILi0EddLin1ELin1ELin1ELi1ELb0EEEEExEEvRKT0_T1_SE_SE_b
       2667  A6A 00393EA0 _ZN5Eigen8internal16parallelize_gemmILb1ENS0_12gemm_functorIdxNS0_29general_matrix_matrix_productIxdLi1ELb0EdLi1ELb0ELi1ELi1EEENS_3RefINS_6MatrixIdLin1ELin1ELi1ELin1ELin1EEELi0ENS_11OuterStrideILin1EEEEESA_SA_NS0_19gemm_blocking_spaceILi1EddLin1ELin1ELin1ELi1ELb0EEEEExEEvRKT0_T1_SH_SH_b
       2668  A6B 00394320 _ZN5Eigen8internal16parallelize_gemmILb1ENS0_12gemm_functorIdxNS0_29general_matrix_matrix_productIxdLi1ELb0EdLi1ELb0ELi1ELi1EEENS_6MatrixIdLin1ELin1ELi1ELin1ELin1EEES6_S6_NS0_19gemm_blocking_spaceILi1EddLin1ELin1ELin1ELi1ELb0EEEEExEEvRKT0_T1_SD_SD_b
       2669  A6C 00394790 _ZN5Eigen8internal17matrix_exp_pade13INS_6MatrixIdLin1ELin1ELi0ELin1ELin1EEES3_S3_EEvRKT_RT0_RT1_
       2670  A6D 00395D10 _ZN5Eigen8internal17matrix_exp_pade13INS_6MatrixIdLin1ELin1ELi1ELin1ELin1EEES3_S3_EEvRKT_RT0_RT1_
       2671  A6E 00397280 _ZN5Eigen8internal17product_evaluatorINS_7ProductINS2_INS_3MapINS_6MatrixISt7complexIdELin1ELin1ELi0ELin1ELin1EEELi0ENS_6StrideILi0ELi0EEEEENS_15DiagonalWrapperIKNS4_IS6_Lin1ELi1ELi0ELin1ELi1EEEEELi1EEESA_Li1EEELi8ENS_10DenseShapeESH_S6_S6_EC2ERKSG_
       2672  A6F 00397520 _ZN5Eigen8internal17product_evaluatorINS_7ProductINS2_INS_3MapINS_6MatrixISt7complexIdELin1ELin1ELi0ELin1ELin1EEELi16ENS_6StrideILi0ELi0EEEEENS_15DiagonalWrapperIKNS4_IS6_Lin1ELi1ELi0ELin1ELi1EEEEELi1EEESA_Li1EEELi8ENS_10DenseShapeESH_S6_S6_EC2ERKSG_
       2673  A70 003977C0 _ZN5Eigen8internal17product_evaluatorINS_7ProductINS_13CwiseBinaryOpINS0_17scalar_product_opIddEEKNS_14CwiseNullaryOpINS0_18scalar_constant_opIdEEKNS_6MatrixIdLin1ELi1ELi0ELin1ELi1EEEEEKNS_5BlockIKNS9_IdLin1ELin1ELi0ELin1ELin1EEELin1ELi1ELb0EEEEENS_3MapINS9_IdLi1ELin1ELi1ELi1ELi1EEELi0ENS_6StrideILi0ELi0EEEEELi1EEELi4ENS_10DenseShapeESQ_ddEC2ERKSP_
       2674  A71 00397A60 _ZN5Eigen8internal17product_evaluatorINS_7ProductINS_9TransposeINS_6MatrixIdLin1ELi1ELi0ELin1ELi1EEEEENS_7InverseINS_9FullPivLUINS4_IdLin1ELin1ELi0ELin1ELin1EEEEEEELi0EEELi7ENS_10DenseShapeESD_ddEC2ERKSC_
       2675  A72 00397B30 _ZN5Eigen8internal18matrix_exp_computeINS_6MatrixIdLin1ELin1ELi0ELin1ELin1EEES3_EEvRKT_RT0_NS0_9true_typeE
       2676  A73 00397DB0 _ZN5Eigen8internal18matrix_exp_computeINS_6MatrixIdLin1ELin1ELi1ELin1ELin1EEES3_EEvRKT_RT0_NS0_9true_typeE
       2677  A74 00398030 _ZN5Eigen8internal19gemm_blocking_spaceILi0ESt7complexIdES3_Lin1ELin1ELin1ELi1ELb0EE9allocateAEv
       2678  A75 003980F0 _ZN5Eigen8internal19gemm_blocking_spaceILi0EddLin1ELin1ELin1ELi1ELb0EE9allocateAEv
       2679  A76 00398190 _ZN5Eigen8internal19gemm_blocking_spaceILi1EddLin1ELin1ELin1ELi1ELb0EE9allocateAEv
       2680  A77 00398230 _ZN5Eigen8internal19gemv_dense_selectorILi2ELi0ELb0EE3runINS_7ProductINS_3MapINS_6MatrixISt7complexIdELin1ELin1ELi0ELin1ELin1EEELi0ENS_6StrideILi0ELi0EEEEENS_15DiagonalWrapperIKNS6_IS8_Lin1ELi1ELi0ELin1ELi1EEEEELi1EEENS_5BlockIKSC_Lin1ELi1ELb1EEENSI_IS9_Lin1ELi1ELb1EEEEEvRKT_RKT0_RT1_RKNSS_6ScalarE
       2681  A78 00398420 _ZN5Eigen8internal19gemv_dense_selectorILi2ELi0ELb0EE3runINS_7ProductINS_3MapINS_6MatrixISt7complexIdELin1ELin1ELi0ELin1ELin1EEELi16ENS_6StrideILi0ELi0EEEEENS_15DiagonalWrapperIKNS6_IS8_Lin1ELi1ELi0ELin1ELi1EEEEELi1EEENS_5BlockIKSC_Lin1ELi1ELb1EEENSI_IS9_Lin1ELi1ELb1EEEEEvRKT_RKT0_RT1_RKNSS_6ScalarE
       2682  A79 00398610 _ZN5Eigen8internal19gemv_dense_selectorILi2ELi0ELb1EE3runINS_9TransposeIKNS_3MapINS_6MatrixIdLin1ELin1ELi1ELin1ELin1EEELi0ENS_6StrideILi0ELi0EEEEEEENS4_IKNS_5BlockISB_Li1ELin1ELb1EEEEENS4_INSD_INS6_IdLin1ELin1ELi0ELin1ELin1EEELi1ELin1ELb0EEEEEEEvRKT_RKT0_RT1_RKNSQ_6ScalarE
       2683  A7A 00398C50 _ZN5Eigen8internal19gemv_dense_selectorILi2ELi0ELb1EE3runINS_9TransposeIKNS_3MapINS_6MatrixIdLin1ELin1ELi1ELin1ELin1EEELi16ENS_6StrideILi0ELi0EEEEEEENS4_IKNS_5BlockIKNS_7ProductISA_NS_15DiagonalWrapperIKNS6_IdLin1ELi1ELi0ELin1ELi1EEEEELi1EEELi1ELin1ELb1EEEEENS4_INSD_INS6_IdLin1ELin1ELi0ELin1ELin1EEELi1ELin1ELb0EEEEEEEvRKT_RKT0_RT1_RKNSX_6ScalarE
       2684  A7B 00399370 _ZN5Eigen8internal19gemv_dense_selectorILi2ELi0ELb1EE3runINS_9TransposeIKNS_3MapINS_6MatrixIdLin1ELin1ELi1ELin1ELin1EEELi16ENS_6StrideILi0ELi0EEEEEEENS4_IKNS_5BlockIKNS_7ProductISA_NS_15DiagonalWrapperIKNS_13MatrixWrapperINS_5ArrayIdLin1ELi1ELi0ELin1ELi1EEEEEEELi1EEELi1ELin1ELb1EEEEENS4_INSD_INS6_IdLin1ELin1ELi0ELin1ELin1EEELi1ELin1ELb0EEEEEEEvRKT_RKT0_RT1_RKNS10_6ScalarE
       2685  A7C 00399A90 _ZN5Eigen8internal19gemv_dense_selectorILi2ELi0ELb1EE3runINS_9TransposeIKNS_6MatrixIdLin1ELin1ELi1ELin1ELin1EEEEENS4_IKNS_5BlockIS7_Li1ELin1ELb1EEEEENS4_INS9_INS5_IdLin1ELin1ELi0ELin1ELin1EEELi1ELin1ELb0EEEEEEEvRKT_RKT0_RT1_RKNSM_6ScalarE
       2686  A7D 0039A0A0 _ZN5Eigen8internal19gemv_dense_selectorILi2ELi1ELb0EE3runINS_7ProductINS_3MapINS_6MatrixIdLin1ELin1ELi1ELin1ELin1EEELi16ENS_6StrideILi0ELi0EEEEENS_15DiagonalWrapperIKNS6_IdLin1ELi1ELi0ELin1ELi1EEEEELi1EEENS_5BlockIKSA_Lin1ELi1ELb0EEENSG_INS6_IdLin1ELin1ELi0ELin1ELin1EEELin1ELi1ELb1EEEEEvRKT_RKT0_RT1_RKNSR_6ScalarE
       2687  A7E 0039A340 _ZN5Eigen8internal19gemv_dense_selectorILi2ELi1ELb0EE3runINS_7ProductINS_3MapINS_6MatrixIdLin1ELin1ELi1ELin1ELin1EEELi16ENS_6StrideILi0ELi0EEEEENS_15DiagonalWrapperIKNS_13MatrixWrapperINS_5ArrayIdLin1ELi1ELi0ELin1ELi1EEEEEEELi1EEENS_5BlockIKSA_Lin1ELi1ELb0EEENSJ_INS6_IdLin1ELin1ELi0ELin1ELin1EEELin1ELi1ELb1EEEEEvRKT_RKT0_RT1_RKNSU_6ScalarE
       2688  A7F 0039A5E0 _ZN5Eigen8internal19gemv_dense_selectorILi2ELi1ELb1EE3runINS_3MapINS_6MatrixIdLin1ELin1ELi1ELin1ELin1EEELi0ENS_6StrideILi0ELi0EEEEENS_5BlockIKNS5_IdLin1ELin1ELi0ELin1ELin1EEELin1ELi1ELb1EEENSA_ISB_Lin1ELi1ELb1EEEEEvRKT_RKT0_RT1_RKNSL_6ScalarE
       2689  A80 0039A790 _ZN5Eigen8internal19gemv_dense_selectorILi2ELi1ELb1EE3runINS_3MapINS_6MatrixIdLin1ELin1ELi1ELin1ELin1EEELi0ENS_6StrideILi0ELi0EEEEENS_5BlockIKS9_Lin1ELi1ELb0EEENSA_INS5_IdLin1ELin1ELi0ELin1ELin1EEELin1ELi1ELb1EEEEEvRKT_RKT0_RT1_RKNSL_6ScalarE
       2690  A81 0039AB60 _ZN5Eigen8internal19gemv_dense_selectorILi2ELi1ELb1EE3runINS_3RefINS_6MatrixIdLin1ELin1ELi1ELin1ELin1EEELi0ENS_11OuterStrideILin1EEEEENS_5BlockIKS9_Lin1ELi1ELb0EEENSA_IS9_Lin1ELi1ELb0EEEEEvRKT_RKT0_RT1_RKNSK_6ScalarE
       2691  A82 0039AF40 _ZN5Eigen8internal19gemv_dense_selectorILi2ELi1ELb1EE3runINS_6MatrixIdLin1ELin1ELi1ELin1ELin1EEENS_5BlockIKS5_Lin1ELi1ELb0EEENS6_INS4_IdLin1ELin1ELi0ELin1ELin1EEELin1ELi1ELb1EEEEEvRKT_RKT0_RT1_RKNSH_6ScalarE
       2692  A83 0039B310 _ZN5Eigen8internal19gemv_dense_selectorILi2ELi1ELb1EE3runINS_6MatrixIdLin1ELin1ELi1ELin1ELin1EEENS_5BlockIKS5_Lin1ELi1ELb0EEENS6_IS5_Lin1ELi1ELb0EEEEEvRKT_RKT0_RT1_RKNSG_6ScalarE
       2693  A84 0039B6F0 _ZN5Eigen8internal19gemv_dense_selectorILi2ELi1ELb1EE3runINS_9TransposeIKNS_3MapINS_6MatrixISt7complexIdELin1ELin1ELi0ELin1ELin1EEELi0ENS_6StrideILi0ELi0EEEEEEENS4_IKNS_5BlockIKNS_7ProductISC_NS_15DiagonalWrapperIKNS6_IS8_Lin1ELi1ELi0ELin1ELi1EEEEELi1EEELi1ELin1ELb0EEEEENS4_INSF_IS9_Li1ELin1ELb0EEEEEEEvRKT_RKT0_RT1_RKNSY_6ScalarE
       2694  A85 0039BB90 _ZN5Eigen8internal19gemv_dense_selectorILi2ELi1ELb1EE3runINS_9TransposeIKNS_3MapINS_6MatrixISt7complexIdELin1ELin1ELi0ELin1ELin1EEELi16ENS_6StrideILi0ELi0EEEEEEENS4_IKNS_5BlockIKNS_7ProductISC_NS_15DiagonalWrapperIKNS6_IS8_Lin1ELi1ELi0ELin1ELi1EEEEELi1EEELi1ELin1ELb0EEEEENS4_INSF_IS9_Li1ELin1ELb0EEEEEEEvRKT_RKT0_RT1_RKNSY_6ScalarE
       2695  A86 0039C030 _ZN5Eigen8internal19gemv_dense_selectorILi2ELi1ELb1EE3runINS_9TransposeIKNS_3RefINS_6MatrixIdLin1ELin1ELi0ELin1ELin1EEELi0ENS_11OuterStrideILin1EEEEEEENS4_IKNS_5BlockISB_Li1ELin1ELb0EEEEENS4_INSD_ISA_Li1ELin1ELb0EEEEEEEvRKT_RKT0_RT1_RKNSP_6ScalarE
       2696  A87 0039C3F0 _ZN5Eigen8internal19gemv_dense_selectorILi2ELi1ELb1EE3runINS_9TransposeIKNS_5BlockINS5_INS_6MatrixIdLin1ELin1ELi0ELin1ELin1EEELin1ELin1ELb0EEELin1ELin1ELb0EEEEENS4_IKNS4_IKNS5_IKS7_Lin1ELi1ELb0EEEEEEENS4_INS_3MapINS6_IdLi1ELin1ELi1ELi1ELin1EEELi0ENS_6StrideILi0ELi0EEEEEEEEEvRKT_RKT0_RT1_RKNSU_6ScalarE
       2697  A88 0039C5C0 _ZN5Eigen8internal19gemv_dense_selectorILi2ELi1ELb1EE3runINS_9TransposeIKNS_5BlockINS5_INS_6MatrixIdLin1ELin1ELi0ELin1ELin1EEELin1ELin1ELb0EEELin1ELin1ELb0EEEEENS4_IKNS4_IKNS5_INS5_IS7_Lin1ELi1ELb1EEELin1ELi1ELb0EEEEEEENS4_INS_3MapINS6_IdLi1ELin1ELi1ELi1ELin1EEELi0ENS_6StrideILi0ELi0EEEEEEEEEvRKT_RKT0_RT1_RKNSU_6ScalarE
       2698  A89 0039C790 _ZN5Eigen8internal19gemv_dense_selectorILi2ELi1ELb1EE3runINS_9TransposeIKNS_5BlockINS_6MatrixISt7complexIdELin1ELin1ELi0ELin1ELin1EEELin1ELin1ELb0EEEEENS4_IKNS5_IKNS5_IKS9_Lin1ELin1ELb0EEELi1ELin1ELb0EEEEENS4_INS5_IS9_Li1ELin1ELb0EEEEEEEvRKT_RKT0_RT1_RKNSR_6ScalarE
       2699  A8A 0039CB70 _ZN5Eigen8internal19gemv_dense_selectorILi2ELi1ELb1EE3runINS_9TransposeIKNS_5BlockINS_6MatrixIdLin1ELin1ELi0ELin1ELin1EEELin1ELin1ELb0EEEEENS4_IKNS5_IKNS5_IKS7_Lin1ELin1ELb0EEELi1ELin1ELb0EEEEENS4_INS5_IS7_Li1ELin1ELb0EEEEEEEvRKT_RKT0_RT1_RKNSP_6ScalarE
       2700  A8B 0039CFA0 _ZN5Eigen8internal19gemv_dense_selectorILi2ELi1ELb1EE3runINS_9TransposeIKNS_6MatrixIdLin1ELin1ELi0ELin1ELin1EEEEENS4_IKNS4_INS5_IdLin1ELi1ELi0ELin1ELi1EEEEEEENS4_INS5_IdLi1ELin1ELi1ELi1ELin1EEEEEEEvRKT_RKT0_RT1_RKNSL_6ScalarE
       2701  A8C 0039D160 _ZN5Eigen8internal19gemv_dense_selectorILi2ELi1ELb1EE3runINS_9TransposeIKNS_6MatrixIdLin1ELin1ELi0ELin1ELin1EEEEENS4_IKNS_5BlockIKNS_3MapINS5_IdLin1ELin1ELi1ELin1ELin1EEELi0ENS_6StrideILi0ELi0EEEEELi1ELin1ELb1EEEEENS4_INS9_IS6_Li1ELin1ELb0EEEEEEEvRKT_RKT0_RT1_RKNSR_6ScalarE
       2702  A8D 0039D320 _ZN5Eigen8internal19gemv_dense_selectorILi2ELi1ELb1EE3runINS_9TransposeIKNS_6MatrixIdLin1ELin1ELi0ELin1ELin1EEEEENS4_IKNS_5BlockIS7_Li1ELin1ELb0EEEEENS4_INS9_IS6_Li1ELin1ELb0EEEEEEEvRKT_RKT0_RT1_RKNSL_6ScalarE
       2703  A8E 0039D6E0 _ZN5Eigen8internal19general_det3_helperINS_3MapINS_6MatrixISt7complexIdELi4ELi4ELi0ELi4ELi4EEELi16ENS_6StrideILi0ELi0EEEEEEEKNT_6ScalarERKNS_10MatrixBaseISA_EEiiiiii
       2704  A8F 0039D900 _ZN5Eigen8internal20generic_product_implIKNS_5BlockIKNS2_IKNS_6MatrixISt7complexIdELin1ELin1ELi0ELin1ELin1EEELin1ELin1ELb0EEELi1ELin1ELb0EEENS2_IS6_Lin1ELin1ELb0EEENS_10DenseShapeESD_Li7EE13scaleAndAddToINS2_IS6_Li1ELin1ELb0EEEEEvRT_RSB_RKSC_RKS5_
       2705  A90 0039DBB0 _ZN5Eigen8internal20generic_product_implIKNS_5BlockIKNS2_IKNS_6MatrixIdLin1ELin1ELi0ELin1ELin1EEELin1ELin1ELb0EEELi1ELin1ELb0EEENS2_IS4_Lin1ELin1ELb0EEENS_10DenseShapeESB_Li7EE13scaleAndAddToINS2_IS4_Li1ELin1ELb0EEEEEvRT_RS9_RKSA_RKd
       2706  A91 0039DE50 _ZN5Eigen8internal20generic_product_implIKNS_5BlockIKNS_3MapINS_6MatrixIdLin1ELin1ELi1ELin1ELin1EEELi0ENS_6StrideILi0ELi0EEEEELi1ELin1ELb1EEENS4_IdLin1ELin1ELi0ELin1ELin1EEENS_10DenseShapeESD_Li7EE13scaleAndAddToINS2_ISC_Li1ELin1ELb0EEEEEvRT_RSB_RKSC_RKd
       2707  A92 0039E100 _ZN5Eigen8internal20generic_product_implIKNS_5BlockIKNS_3MapINS_6MatrixIdLin1ELin1ELi1ELin1ELin1EEELi0ENS_6StrideILi0ELi0EEEEELi1ELin1ELb1EEES8_NS_10DenseShapeESC_Li7EE13scaleAndAddToINS2_INS4_IdLin1ELin1ELi0ELin1ELin1EEELi1ELin1ELb0EEEEEvRT_RSB_RS9_RKd
       2708  A93 0039E330 _ZN5Eigen8internal20generic_product_implIKNS_5BlockIKNS_3RefINS_6MatrixIdLin1ELin1ELi0ELin1ELin1EEELi0ENS_11OuterStrideILin1EEEEELi1ELin1ELb0EEES8_NS_10DenseShapeESC_Li7EE13scaleAndAddToINS2_IS8_Li1ELin1ELb0EEEEEvRT_RSB_RS9_RKd
       2709  A94 0039E580 _ZN5Eigen8internal20generic_product_implIKNS_5BlockIKNS_3RefINS_6MatrixIdLin1ELin1ELi1ELin1ELin1EEELi0ENS_11OuterStrideILin1EEEEELi1ELin1ELb1EEES8_NS_10DenseShapeESC_Li7EE13scaleAndAddToINS2_IS8_Li1ELin1ELb1EEEEEvRT_RSB_RS9_RKd
       2710  A95 0039E7B0 _ZN5Eigen8internal20generic_product_implIKNS_5BlockIKNS_6MatrixIdLin1ELin1ELi0ELin1ELin1EEELi1ELin1ELb0EEES4_NS_10DenseShapeES8_Li7EE13scaleAndAddToINS2_IS4_Li1ELin1ELb0EEEEEvRT_RS7_RS5_RKd
       2711  A96 0039EA00 _ZN5Eigen8internal20generic_product_implIKNS_5BlockIKNS_6MatrixIdLin1ELin1ELi1ELin1ELin1EEELi1ELin1ELb1EEES4_NS_10DenseShapeES8_Li7EE13scaleAndAddToINS2_INS3_IdLin1ELin1ELi0ELin1ELin1EEELi1ELin1ELb0EEEEEvRT_RS7_RS5_RKd
       2712  A97 0039EC00 _ZN5Eigen8internal20generic_product_implIKNS_5BlockIKNS_6MatrixIdLin1ELin1ELi1ELin1ELin1EEELi1ELin1ELb1EEES4_NS_10DenseShapeES8_Li7EE13scaleAndAddToINS2_IS4_Li1ELin1ELb1EEEEEvRT_RS7_RS5_RKd
       2713  A98 0039EDE0 _ZN5Eigen8internal20generic_product_implIKNS_5BlockIKNS_7ProductINS_3MapINS_6MatrixISt7complexIdELin1ELin1ELi0ELin1ELin1EEELi0ENS_6StrideILi0ELi0EEEEENS_15DiagonalWrapperIKNS5_IS7_Lin1ELi1ELi0ELin1ELi1EEEEELi1EEELi1ELin1ELb0EEESB_NS_10DenseShapeESK_Li7EE13scaleAndAddToINS2_IS8_Li1ELin1ELb0EEEEEvRT_RSJ_RKSB_RKS7_
       2714  A99 0039F0C0 _ZN5Eigen8internal20generic_product_implIKNS_5BlockIKNS_7ProductINS_3MapINS_6MatrixISt7complexIdELin1ELin1ELi0ELin1ELin1EEELi16ENS_6StrideILi0ELi0EEEEENS_15DiagonalWrapperIKNS5_IS7_Lin1ELi1ELi0ELin1ELi1EEEEELi1EEELi1ELin1ELb0EEESB_NS_10DenseShapeESK_Li7EE13scaleAndAddToINS2_IS8_Li1ELin1ELb0EEEEEvRT_RSJ_RKSB_RKS7_
       2715  A9A 0039F3A0 _ZN5Eigen8internal20generic_product_implIKNS_5BlockIKNS_7ProductINS_3MapINS_6MatrixIdLin1ELin1ELi1ELin1ELin1EEELi16ENS_6StrideILi0ELi0EEEEENS_15DiagonalWrapperIKNS5_IdLin1ELi1ELi0ELin1ELi1EEEEELi1EEELi1ELin1ELb1EEES9_NS_10DenseShapeESI_Li7EE13scaleAndAddToINS2_INS5_IdLin1ELin1ELi0ELin1ELin1EEELi1ELin1ELb0EEEEEvRT_RSH_RKS9_RKd
       2716  A9B 0039F5D0 _ZN5Eigen8internal20generic_product_implIKNS_5BlockIKNS_7ProductINS_3MapINS_6MatrixIdLin1ELin1ELi1ELin1ELin1EEELi16ENS_6StrideILi0ELi0EEEEENS_15DiagonalWrapperIKNS_13MatrixWrapperINS_5ArrayIdLin1ELi1ELi0ELin1ELi1EEEEEEELi1EEELi1ELin1ELb1EEES9_NS_10DenseShapeESL_Li7EE13scaleAndAddToINS2_INS5_IdLin1ELin1ELi0ELin1ELin1EEELi1ELin1ELb0EEEEEvRT_RSK_RKS9_RKd
       2717  A9C 0039F800 _ZN5Eigen8internal20generic_product_implINS_3MapINS_6MatrixIdLin1ELin1ELi1ELin1ELin1EEELi0ENS_6StrideILi0ELi0EEEEEKNS_5BlockIKS7_Lin1ELi1ELb0EEENS_10DenseShapeESC_Li7EE13scaleAndAddToINS8_INS3_IdLin1ELin1ELi0ELin1ELin1EEELin1ELi1ELb1EEEEEvRT_RS9_RSB_RKd
       2718  A9D 0039FA40 _ZN5Eigen8internal20generic_product_implINS_3MapINS_6MatrixIdLin1ELin1ELi1ELin1ELin1EEELi0ENS_6StrideILi0ELi0EEEEENS3_IdLin1ELin1ELi0ELin1ELin1EEENS_10DenseShapeES9_Li8EE13scaleAndAddToIS8_EEvRT_RKS7_RKS8_RKd
       2719  A9E 0039FEC0 _ZN5Eigen8internal20generic_product_implINS_3MapINS_6MatrixIdLin1ELin1ELi1ELin1ELin1EEELi0ENS_6StrideILi0ELi0EEEEENS3_IdLin1ELin1ELi0ELin1ELin1EEENS_10DenseShapeES9_Li8EE6evalToIS8_EEvRT_RKS7_RKS8_
       2720  A9F 0039FFB0 _ZN5Eigen8internal20generic_product_implINS_3MapINS_6MatrixIdLin1ELin1ELi1ELin1ELin1EEELi0ENS_6StrideILi0ELi0EEEEES7_NS_10DenseShapeES8_Li8EE13scaleAndAddToINS3_IdLin1ELin1ELi0ELin1ELin1EEEEEvRT_RKS7_SF_RKd
       2721  AA0 003A0260 _ZN5Eigen8internal20generic_product_implINS_3MapINS_6MatrixIdLin1ELin1ELi1ELin1ELin1EEELi0ENS_6StrideILi0ELi0EEEEES7_NS_10DenseShapeES8_Li8EE6evalToINS3_IdLin1ELin1ELi0ELin1ELin1EEEEEvRT_RKS7_SF_
       2722  AA1 003A0360 _ZN5Eigen8internal20generic_product_implINS_3RefINS_6MatrixIdLin1ELin1ELi0ELin1ELin1EEELi0ENS_11OuterStrideILin1EEEEEKNS_5BlockIKS7_Lin1ELi1ELb1EEENS_10DenseShapeESC_Li7EE13scaleAndAddToINS8_IS7_Lin1ELi1ELb1EEEEEvRT_RS9_RSB_RKd
       2723  AA2 003A0590 _ZN5Eigen8internal20generic_product_implINS_3RefINS_6MatrixIdLin1ELin1ELi0ELin1ELin1EEELi0ENS_11OuterStrideILin1EEEEES7_NS_10DenseShapeES8_Li8EE13scaleAndAddToIS7_EEvRT_RKS7_SE_RKd
       2724  AA3 003A0810 _ZN5Eigen8internal20generic_product_implINS_3RefINS_6MatrixIdLin1ELin1ELi0ELin1ELin1EEELi0ENS_11OuterStrideILin1EEEEES7_NS_10DenseShapeES8_Li8EE5subToIS7_EEvRT_RKS7_SE_
       2725  AA4 003A0940 _ZN5Eigen8internal20generic_product_implINS_3RefINS_6MatrixIdLin1ELin1ELi1ELin1ELin1EEELi0ENS_11OuterStrideILin1EEEEEKNS_5BlockIKS7_Lin1ELi1ELb0EEENS_10DenseShapeESC_Li7EE13scaleAndAddToINS8_IS7_Lin1ELi1ELb0EEEEEvRT_RS9_RSB_RKd
       2726  AA5 003A0B60 _ZN5Eigen8internal20generic_product_implINS_3RefINS_6MatrixIdLin1ELin1ELi1ELin1ELin1EEELi0ENS_11OuterStrideILin1EEEEES7_NS_10DenseShapeES8_Li8EE13scaleAndAddToIS7_EEvRT_RKS7_SE_RKd
       2727  AA6 003A0DE0 _ZN5Eigen8internal20generic_product_implINS_3RefINS_6MatrixIdLin1ELin1ELi1ELin1ELin1EEELi0ENS_11OuterStrideILin1EEEEES7_NS_10DenseShapeES8_Li8EE5subToIS7_EEvRT_RKS7_SE_
       2728  AA7 003A0F10 _ZN5Eigen8internal20generic_product_implINS_5BlockIKNS_6MatrixISt7complexIdELin1ELin1ELi0ELin1ELin1EEELin1ELin1ELb0EEEKNS2_IKNS2_IS6_Lin1ELin1ELb0EEELin1ELi1ELb1EEENS_10DenseShapeESD_Li7EE13scaleAndAddToINS2_IS6_Lin1ELi1ELb1EEEEEvRT_RKS8_RSC_RKS5_
       2729  AA8 003A1240 _ZN5Eigen8internal20generic_product_implINS_5BlockIKNS_6MatrixISt7complexIdELin1ELin1ELi0ELin1ELin1EEELin1ELin1ELb0EEENS2_IS6_Lin1ELin1ELb0EEENS_10DenseShapeESA_Li8EE13scaleAndAddToIS6_EEvRT_RKS8_RKS9_RKS5_
       2730  AA9 003A1620 _ZN5Eigen8internal20generic_product_implINS_5BlockIKNS_6MatrixISt7complexIdELin1ELin1ELi0ELin1ELin1EEELin1ELin1ELb0EEENS2_IS6_Lin1ELin1ELb0EEENS_10DenseShapeESA_Li8EE6evalToIS6_EEvRT_RKS8_RKS9_
       2731  AAA 003A1750 _ZN5Eigen8internal20generic_product_implINS_5BlockIKNS_6MatrixIdLin1ELin1ELi0ELin1ELin1EEELin1ELin1ELb0EEEKNS2_IKNS2_IS4_Lin1ELin1ELb0EEELin1ELi1ELb1EEENS_10DenseShapeESB_Li7EE13scaleAndAddToINS2_IS4_Lin1ELi1ELb1EEEEEvRT_RKS6_RSA_RKd
       2732  AAB 003A1980 _ZN5Eigen8internal20generic_product_implINS_5BlockIKNS_6MatrixIdLin1ELin1ELi0ELin1ELin1EEELin1ELin1ELb0EEENS2_IS4_Lin1ELin1ELb0EEENS_10DenseShapeES8_Li8EE13scaleAndAddToIS4_EEvRT_RKS6_RKS7_RKd
       2733  AAC 003A1C70 _ZN5Eigen8internal20generic_product_implINS_5BlockIKNS_6MatrixIdLin1ELin1ELi0ELin1ELin1EEELin1ELin1ELb0EEENS2_IS4_Lin1ELin1ELb0EEENS_10DenseShapeES8_Li8EE6evalToIS4_EEvRT_RKS6_RKS7_
       2734  AAD 003A1DA0 _ZN5Eigen8internal20generic_product_implINS_5BlockINS2_INS_6MatrixIdLin1ELin1ELi0ELin1ELin1EEELin1ELin1ELb0EEELin1ELin1ELb0EEENS2_IKS4_Lin1ELi1ELb0EEENS_10DenseShapeES9_Li7EE13scaleAndAddToINS_3MapINS3_IdLin1ELi1ELi0ELin1ELi1EEELi0ENS_6StrideILi0ELi0EEEEEEEvRT_RKS6_RKS8_RKd
       2735  AAE 003A1FD0 _ZN5Eigen8internal20generic_product_implINS_5BlockINS2_INS_6MatrixIdLin1ELin1ELi0ELin1ELin1EEELin1ELin1ELb1EEELin1ELin1ELb0EEENS2_INS2_IS4_Lin1ELi1ELb1EEELin1ELi1ELb0EEENS_10DenseShapeES9_Li7EE13scaleAndAddToINS_3MapINS3_IdLin1ELi1ELi0ELin1ELi1EEELi0ENS_6StrideILi0ELi0EEEEEEEvRT_RKS6_RKS8_RKd
       2736  AAF 003A2200 _ZN5Eigen8internal20generic_product_implINS_5BlockINS_6MatrixIdLin1ELin1ELi0ELin1ELin1EEELin1ELin1ELb1EEENS2_INS2_IS4_Lin1ELi1ELb1EEELin1ELi1ELb0EEENS_10DenseShapeES8_Li7EE13scaleAndAddToINS3_IdLin1ELi1ELi0ELin1ELi1EEEEEvRT_RKS5_RKS7_RKd
       2737  AB0 003A2430 _ZN5Eigen8internal20generic_product_implINS_6MatrixIdLin1ELin1ELi0ELin1ELin1EEEKNS_5BlockIKS3_Lin1ELi1ELb1EEENS_10DenseShapeES8_Li7EE13scaleAndAddToINS4_IS3_Lin1ELi1ELb1EEEEEvRT_RS5_RS7_RKd
       2738  AB1 003A2610 _ZN5Eigen8internal20generic_product_implINS_6MatrixIdLin1ELin1ELi0ELin1ELin1EEES3_NS_10DenseShapeES4_Li8EE13scaleAndAddToIS3_EEvRT_RKS3_SA_RKd
       2739  AB2 003A2880 _ZN5Eigen8internal20generic_product_implINS_6MatrixIdLin1ELin1ELi0ELin1ELin1EEES3_NS_10DenseShapeES4_Li8EE6evalToIS3_EEvRT_RKS3_SA_
       2740  AB3 003A2970 _ZN5Eigen8internal20generic_product_implINS_6MatrixIdLin1ELin1ELi1ELin1ELin1EEEKNS_5BlockIKS3_Lin1ELi1ELb0EEENS_10DenseShapeES8_Li7EE13scaleAndAddToINS4_INS2_IdLin1ELin1ELi0ELin1ELin1EEELin1ELi1ELb1EEEEEvRT_RS5_RS7_RKd
       2741  AB4 003A2B90 _ZN5Eigen8internal20generic_product_implINS_6MatrixIdLin1ELin1ELi1ELin1ELin1EEEKNS_5BlockIKS3_Lin1ELi1ELb0EEENS_10DenseShapeES8_Li7EE13scaleAndAddToINS4_IS3_Lin1ELi1ELb0EEEEEvRT_RS5_RS7_RKd
       2742  AB5 003A2DB0 _ZN5Eigen8internal20generic_product_implINS_6MatrixIdLin1ELin1ELi1ELin1ELin1EEES3_NS_10DenseShapeES4_Li8EE13scaleAndAddToINS2_IdLin1ELin1ELi0ELin1ELin1EEEEEvRT_RKS3_SB_RKd
       2743  AB6 003A3020 _ZN5Eigen8internal20generic_product_implINS_6MatrixIdLin1ELin1ELi1ELin1ELin1EEES3_NS_10DenseShapeES4_Li8EE13scaleAndAddToIS3_EEvRT_RKS3_SA_RKd
       2744  AB7 003A32A0 _ZN5Eigen8internal20generic_product_implINS_6MatrixIdLin1ELin1ELi1ELin1ELin1EEES3_NS_10DenseShapeES4_Li8EE6evalToINS2_IdLin1ELin1ELi0ELin1ELin1EEEEEvRT_RKS3_SB_
       2745  AB8 003A3390 _ZN5Eigen8internal20generic_product_implINS_6MatrixIdLin1ELin1ELi1ELin1ELin1EEES3_NS_10DenseShapeES4_Li8EE6evalToIS3_EEvRT_RKS3_SA_
       2746  AB9 003A3480 _ZN5Eigen8internal20generic_product_implINS_7ProductINS_3MapINS_6MatrixISt7complexIdELin1ELin1ELi0ELin1ELin1EEELi0ENS_6StrideILi0ELi0EEEEENS_15DiagonalWrapperIKNS4_IS6_Lin1ELi1ELi0ELin1ELi1EEEEELi1EEEKNS_5BlockIKSA_Lin1ELi1ELb1EEENS_10DenseShapeESK_Li7EE13scaleAndAddToINSG_IS7_Lin1ELi1ELb1EEEEEvRT_RKSF_RSJ_RKS6_
       2747  ABA 003A3750 _ZN5Eigen8internal20generic_product_implINS_7ProductINS_3MapINS_6MatrixISt7complexIdELin1ELin1ELi0ELin1ELin1EEELi0ENS_6StrideILi0ELi0EEEEENS_15DiagonalWrapperIKNS4_IS6_Lin1ELi1ELi0ELin1ELi1EEEEELi1EEESA_NS_10DenseShapeESG_Li8EE13scaleAndAddToIS7_EEvRT_RKSF_RKSA_RKS6_
       2748  ABB 003A3B20 _ZN5Eigen8internal20generic_product_implINS_7ProductINS_3MapINS_6MatrixISt7complexIdELin1ELin1ELi0ELin1ELin1EEELi0ENS_6StrideILi0ELi0EEEEENS_15DiagonalWrapperIKNS4_IS6_Lin1ELi1ELi0ELin1ELi1EEEEELi1EEESA_NS_10DenseShapeESG_Li8EE6evalToIS7_EEvRT_RKSF_RKSA_
       2749  ABC 003A3C30 _ZN5Eigen8internal20generic_product_implINS_7ProductINS_3MapINS_6MatrixISt7complexIdELin1ELin1ELi0ELin1ELin1EEELi16ENS_6StrideILi0ELi0EEEEENS_15DiagonalWrapperIKNS4_IS6_Lin1ELi1ELi0ELin1ELi1EEEEELi1EEEKNS_5BlockIKSA_Lin1ELi1ELb1EEENS_10DenseShapeESK_Li7EE13scaleAndAddToINSG_IS7_Lin1ELi1ELb1EEEEEvRT_RKSF_RSJ_RKS6_
       2750  ABD 003A3F00 _ZN5Eigen8internal20generic_product_implINS_7ProductINS_3MapINS_6MatrixISt7complexIdELin1ELin1ELi0ELin1ELin1EEELi16ENS_6StrideILi0ELi0EEEEENS_15DiagonalWrapperIKNS4_IS6_Lin1ELi1ELi0ELin1ELi1EEEEELi1EEESA_NS_10DenseShapeESG_Li8EE13scaleAndAddToIS7_EEvRT_RKSF_RKSA_RKS6_
       2751  ABE 003A42D0 _ZN5Eigen8internal20generic_product_implINS_7ProductINS_3MapINS_6MatrixISt7complexIdELin1ELin1ELi0ELin1ELin1EEELi16ENS_6StrideILi0ELi0EEEEENS_15DiagonalWrapperIKNS4_IS6_Lin1ELi1ELi0ELin1ELi1EEEEELi1EEESA_NS_10DenseShapeESG_Li8EE6evalToIS7_EEvRT_RKSF_RKSA_
       2752  ABF 003A43E0 _ZN5Eigen8internal20generic_product_implINS_7ProductINS_3MapINS_6MatrixIdLin1ELin1ELi1ELin1ELin1EEELi16ENS_6StrideILi0ELi0EEEEENS_15DiagonalWrapperIKNS4_IdLin1ELi1ELi0ELin1ELi1EEEEELi1EEEKNS_5BlockIKS8_Lin1ELi1ELb0EEENS_10DenseShapeESI_Li7EE13scaleAndAddToINSE_INS4_IdLin1ELin1ELi0ELin1ELin1EEELin1ELi1ELb1EEEEEvRT_RKSD_RSH_RKd
       2753  AC0 003A45D0 _ZN5Eigen8internal20generic_product_implINS_7ProductINS_3MapINS_6MatrixIdLin1ELin1ELi1ELin1ELin1EEELi16ENS_6StrideILi0ELi0EEEEENS_15DiagonalWrapperIKNS4_IdLin1ELi1ELi0ELin1ELi1EEEEELi1EEES8_NS_10DenseShapeESE_Li8EE13scaleAndAddToINS4_IdLin1ELin1ELi0ELin1ELin1EEEEEvRT_RKSD_RKS8_RKd
       2754  AC1 003A48C0 _ZN5Eigen8internal20generic_product_implINS_7ProductINS_3MapINS_6MatrixIdLin1ELin1ELi1ELin1ELin1EEELi16ENS_6StrideILi0ELi0EEEEENS_15DiagonalWrapperIKNS4_IdLin1ELi1ELi0ELin1ELi1EEEEELi1EEES8_NS_10DenseShapeESE_Li8EE6evalToINS4_IdLin1ELin1ELi0ELin1ELin1EEEEEvRT_RKSD_RKS8_
       2755  AC2 003A49D0 _ZN5Eigen8internal20generic_product_implINS_7ProductINS_3MapINS_6MatrixIdLin1ELin1ELi1ELin1ELin1EEELi16ENS_6StrideILi0ELi0EEEEENS_15DiagonalWrapperIKNS_13MatrixWrapperINS_5ArrayIdLin1ELi1ELi0ELin1ELi1EEEEEEELi1EEEKNS_5BlockIKS8_Lin1ELi1ELb0EEENS_10DenseShapeESL_Li7EE13scaleAndAddToINSH_INS4_IdLin1ELin1ELi0ELin1ELin1EEELin1ELi1ELb1EEEEEvRT_RKSG_RSK_RKd
       2756  AC3 003A4BC0 _ZN5Eigen8internal20generic_product_implINS_7ProductINS_3MapINS_6MatrixIdLin1ELin1ELi1ELin1ELin1EEELi16ENS_6StrideILi0ELi0EEEEENS_15DiagonalWrapperIKNS_13MatrixWrapperINS_5ArrayIdLin1ELi1ELi0ELin1ELi1EEEEEEELi1EEES8_NS_10DenseShapeESH_Li8EE13scaleAndAddToINS4_IdLin1ELin1ELi0ELin1ELin1EEEEEvRT_RKSG_RKS8_RKd
       2757  AC4 003A4EB0 _ZN5Eigen8internal20generic_product_implINS_7ProductINS_3MapINS_6MatrixIdLin1ELin1ELi1ELin1ELin1EEELi16ENS_6StrideILi0ELi0EEEEENS_15DiagonalWrapperIKNS_13MatrixWrapperINS_5ArrayIdLin1ELi1ELi0ELin1ELi1EEEEEEELi1EEES8_NS_10DenseShapeESH_Li8EE6evalToINS4_IdLin1ELin1ELi0ELin1ELin1EEEEEvRT_RKSG_RKS8_
       2758  AC5 003A4FC0 _ZN5Eigen8internal20generic_product_implINS_7ProductINS_9TransposeINS_6MatrixIdLin1ELi1ELi0ELin1ELi1EEEEENS_7InverseINS_9FullPivLUINS4_IdLin1ELin1ELi0ELin1ELin1EEEEEEELi0EEES5_NS_10DenseShapeESD_Li6EE6evalToINS4_IdLi1ELi1ELi0ELi1ELi1EEEEEvRT_RKSC_RKS5_
       2759  AC6 003A52E0 _ZN5Eigen8internal20generic_product_implINS_9TransposeINS_6MatrixIdLin1ELi1ELi0ELin1ELi1EEEEENS_7InverseINS_9FullPivLUINS3_IdLin1ELin1ELi0ELin1ELin1EEEEEEENS_10DenseShapeESB_Li7EE13scaleAndAddToINS3_IdLi1ELin1ELi1ELi1ELin1EEEEEvRT_RKS5_RKSA_RKd
       2760  AC7 003A55B0 _ZN5Eigen8internal20matrix_exp_computeUVINS_6MatrixIdLin1ELin1ELi0ELin1ELin1EEEdE3runIS3_EEvRKT_RS3_S9_Ri
       2761  AC8 003A5700 _ZN5Eigen8internal20matrix_exp_computeUVINS_6MatrixIdLin1ELin1ELi1ELin1ELin1EEEdE3runIS3_EEvRKT_RS3_S9_Ri
       2762  AC9 003A5850 _ZN5Eigen8internal20redux_novec_unrollerINS0_13scalar_sum_opISt7complexIdES4_EENS0_15redux_evaluatorINS_13CwiseBinaryOpINS0_17scalar_product_opIS4_S4_EEKNS_5BlockIKNS_3MapINS_6MatrixIS4_Li4ELi4ELi0ELi4ELi4EEELi16ENS_6StrideILi0ELi0EEEEELi4ELi1ELb1EEEKNS_9TransposeINSA_ISG_Li1ELi4ELb0EEEEEEEEELi0ELi4EE3runERKSP_RKS5_
       2763  ACA 003A5AC0 _ZN5Eigen8internal21compute_inverse_size4ILi1ESt7complexIdENS_3MapINS_6MatrixIS3_Li4ELi4ELi0ELi4ELi4EEELi16ENS_6StrideILi0ELi0EEEEES9_E3runERKS9_RS9_
       2764  ACB 003A69F0 _ZN5Eigen8internal21dense_assignment_loopINS0_31generic_dense_assignment_kernelINS0_9evaluatorINS_3MapINS_6MatrixIdLi1ELin1ELi1ELi1ELi1EEELi0ENS_6StrideILi0ELi0EEEEEEENS3_INS_7ProductINS_9TransposeIKNS_5BlockIKNS5_IdLin1ELin1ELi0ELin1ELin1EEELin1ELi1ELb0EEEEENSD_INSD_INS5_IdLin1ELi1ELi0ELin1ELi1EEELin1ELin1ELb0EEELin1ELin1ELb0EEELi1EEEEENS0_9assign_opIddEELi0EEELi0ELi0EE3runERSQ_
       2765  ACC 003A6D00 _ZN5Eigen8internal21dense_assignment_loopINS0_31generic_dense_assignment_kernelINS0_9evaluatorINS_3MapINS_6MatrixIdLi1ELin1ELi1ELi1ELi4EEELi0ENS_6StrideILi0ELi0EEEEEEENS3_INS_7ProductINS_9TransposeIKNS_5BlockIKNS5_IdLi4ELi4ELi0ELi4ELi4EEELin1ELi1ELb0EEEEENSD_INSD_ISE_Lin1ELin1ELb0EEELin1ELin1ELb0EEELi1EEEEENS0_9assign_opIddEELi0EEELi1ELi0EE3runERSP_
       2766  ACD 003A7110 _ZN5Eigen8internal21dense_assignment_loopINS0_31generic_dense_assignment_kernelINS0_9evaluatorINS_3MapINS_6MatrixIdLi1ELin1ELi1ELi1ELi4EEELi0ENS_6StrideILi0ELi0EEEEEEENS3_INS_7ProductINS_9TransposeIKNS_5BlockINSD_INS5_IdLi4ELi4ELi0ELi4ELi4EEELi4ELi1ELb1EEELin1ELi1ELb0EEEEENSD_INSD_ISE_Lin1ELin1ELb0EEELin1ELin1ELb0EEELi1EEEEENS0_9assign_opIddEELi0EEELi1ELi0EE3runERSP_
       2767  ACE 003A7520 _ZN5Eigen8internal21dense_assignment_loopINS0_31generic_dense_assignment_kernelINS0_9evaluatorINS_3MapINS_6MatrixIdLin1ELi1ELi0ELi4ELi1EEELi0ENS_6StrideILi0ELi0EEEEEEENS3_INS_7ProductINS_5BlockINSC_INS5_IdLi4ELi4ELi0ELi4ELi4EEELin1ELin1ELb0EEELin1ELi1ELb0EEENS5_IdLi1ELi1ELi0ELi1ELi1EEELi1EEEEENS0_9assign_opIddEELi0EEELi3ELi0EE3runERSL_
       2768  ACF 003A7650 _ZN5Eigen8internal21dense_assignment_loopINS0_31generic_dense_assignment_kernelINS0_9evaluatorINS_3MapINS_6MatrixIdLin1ELi1ELi0ELi4ELi1EEELi0ENS_6StrideILi0ELi0EEEEEEENS3_INS_7ProductINS_5BlockINSC_INS5_IdLi4ELi4ELi0ELi4ELi4EEELin1ELin1ELb0EEELin1ELi2ELb0EEENS5_IdLi2ELi1ELi0ELi2ELi1EEELi1EEEEENS0_9assign_opIddEELi0EEELi3ELi0EE3runERSL_
       2769  AD0 003A77D0 _ZN5Eigen8internal21dense_assignment_loopINS0_31generic_dense_assignment_kernelINS0_9evaluatorINS_3MapINS_6MatrixIdLin1ELi1ELi0ELin1ELi1EEELi0ENS_6StrideILi0ELi0EEEEEEENS3_INS_7ProductINS_5BlockINSC_INS5_IdLin1ELin1ELi0ELin1ELin1EEELin1ELin1ELb0EEELin1ELi1ELb0EEENS5_IdLi1ELi1ELi0ELi1ELi1EEELi1EEEEENS0_9assign_opIddEELi0EEELi3ELi0EE3runERSL_
       2770  AD1 003A7900 _ZN5Eigen8internal21dense_assignment_loopINS0_31generic_dense_assignment_kernelINS0_9evaluatorINS_3MapINS_6MatrixIdLin1ELi1ELi0ELin1ELi1EEELi0ENS_6StrideILi0ELi0EEEEEEENS3_INS_7ProductINS_5BlockINSC_INS5_IdLin1ELin1ELi0ELin1ELin1EEELin1ELin1ELb0EEELin1ELi2ELb0EEENS5_IdLi2ELi1ELi0ELi2ELi1EEELi1EEEEENS0_9assign_opIddEELi0EEELi3ELi0EE3runERSL_
       2771  AD2 003A7AA0 _ZN5Eigen8internal21dense_assignment_loopINS0_31generic_dense_assignment_kernelINS0_9evaluatorINS_5BlockINS4_INS_6MatrixIdLi4ELi4ELi0ELi4ELi4EEELin1ELin1ELb0EEELin1ELi1ELb0EEEEENS3_INS_7ProductINS_13CwiseBinaryOpINS0_17scalar_product_opIddEEKNS_14CwiseNullaryOpINS0_18scalar_constant_opIdEEKNS5_IdLin1ELi1ELi0ELi4ELi1EEEEEKNS_3MapISH_Li0ENS_6StrideILi0ELi0EEEEEEENS_9TransposeIKNS5_IdLi1ELi1ELi0ELi1ELi1EEEEELi1EEEEENS0_13sub_assign_opIddEELi0EEELi3ELi0EE3runERSZ_
       2772  AD3 003A7C00 _ZN5Eigen8internal21dense_assignment_loopINS0_31generic_dense_assignment_kernelINS0_9evaluatorINS_5BlockINS4_INS_6MatrixIdLi4ELi4ELi0ELi4ELi4EEELin1ELin1ELb0EEELin1ELi2ELb0EEEEENS3_INS_7ProductINS_13CwiseBinaryOpINS0_17scalar_product_opIddEEKNS_14CwiseNullaryOpINS0_18scalar_constant_opIdEEKNS5_IdLin1ELi1ELi0ELi4ELi1EEEEEKNS_3MapISH_Li0ENS_6StrideILi0ELi0EEEEEEENS_9TransposeIKNS5_IdLi2ELi1ELi0ELi2ELi1EEEEELi1EEEEENS0_13sub_assign_opIddEELi0EEELi4ELi0EE3runERSZ_
       2773  AD4 003A7EE0 _ZN5Eigen8internal21dense_assignment_loopINS0_31generic_dense_assignment_kernelINS0_9evaluatorINS_5BlockINS4_INS_6MatrixIdLi4ELi4ELi0ELi4ELi4EEELin1ELin1ELb0EEELin1ELin1ELb0EEEEENS3_INS_7ProductINS_13CwiseBinaryOpINS0_17scalar_product_opIddEEKNS_14CwiseNullaryOpINS0_18scalar_constant_opIdEEKNS5_IdLin1ELi1ELi0ELi4ELi1EEEEEKNS4_IKS6_Lin1ELi1ELb0EEEEENS_3MapINS5_IdLi1ELin1ELi1ELi1ELi4EEELi0ENS_6StrideILi0ELi0EEEEELi1EEEEENS0_13sub_assign_opIddEELi0EEELi4ELi0EE3runERSY_
       2774  AD5 003A8120 _ZN5Eigen8internal21dense_assignment_loopINS0_31generic_dense_assignment_kernelINS0_9evaluatorINS_5BlockINS4_INS_6MatrixIdLi4ELi4ELi0ELi4ELi4EEELin1ELin1ELb0EEELin1ELin1ELb0EEEEENS3_INS_7ProductINS_13CwiseBinaryOpINS0_17scalar_product_opIddEEKNS_14CwiseNullaryOpINS0_18scalar_constant_opIdEEKNS5_IdLin1ELi1ELi0ELi4ELi1EEEEEKNS4_INS4_IS6_Li4ELi1ELb1EEELin1ELi1ELb0EEEEENS_3MapINS5_IdLi1ELin1ELi1ELi1ELi4EEELi0ENS_6StrideILi0ELi0EEEEELi1EEEEENS0_13sub_assign_opIddEELi0EEELi4ELi0EE3runERSY_
       2775  AD6 003A8360 _ZN5Eigen8internal21dense_assignment_loopINS0_31generic_dense_assignment_kernelINS0_9evaluatorINS_5BlockINS4_INS_6MatrixIdLi4ELi4ELi0ELi4ELi4EEELin1ELin1ELb0EEELin1ELin1ELb0EEEEENS3_INS_7ProductINS_13CwiseBinaryOpINS0_17scalar_product_opIddEEKNS_14CwiseNullaryOpINS0_18scalar_constant_opIdEEKNS5_IdLin1ELi1ELi0ELi4ELi1EEEEEKNS_3MapISH_Li0ENS_6StrideILi0ELi0EEEEEEENS_9TransposeIKNS4_IKS6_Lin1ELi1ELb0EEEEELi1EEEEENS0_13sub_assign_opIddEELi0EEELi4ELi0EE3runERS10_
       2776  AD7 003A85A0 _ZN5Eigen8internal21dense_assignment_loopINS0_31generic_dense_assignment_kernelINS0_9evaluatorINS_5BlockINS4_INS_6MatrixIdLin1ELi1ELi0ELin1ELi1EEELin1ELin1ELb0EEELin1ELin1ELb0EEEEENS3_INS_7ProductINS_13CwiseBinaryOpINS0_17scalar_product_opIddEEKNS_14CwiseNullaryOpINS0_18scalar_constant_opIdEEKS6_EEKNS4_IKNS5_IdLin1ELin1ELi0ELin1ELin1EEELin1ELi1ELb0EEEEENS_3MapINS5_IdLi1ELin1ELi1ELi1ELi1EEELi0ENS_6StrideILi0ELi0EEEEELi1EEEEENS0_13sub_assign_opIddEELi0EEELi4ELi0EE3runERSY_
       2777  AD8 003A8800 _ZN5Eigen8internal21dense_assignment_loopINS0_31generic_dense_assignment_kernelINS0_9evaluatorINS_5BlockINS4_INS_6MatrixIdLin1ELin1ELi0ELin1ELin1EEELin1ELin1ELb0EEELin1ELi1ELb0EEEEENS3_INS_7ProductINS_13CwiseBinaryOpINS0_17scalar_product_opIddEEKNS_14CwiseNullaryOpINS0_18scalar_constant_opIdEEKNS5_IdLin1ELi1ELi0ELin1ELi1EEEEEKNS_3MapISH_Li0ENS_6StrideILi0ELi0EEEEEEENS_9TransposeIKNS5_IdLi1ELi1ELi0ELi1ELi1EEEEELi1EEEEENS0_13sub_assign_opIddEELi0EEELi3ELi0EE3runERSZ_
       2778  AD9 003A8960 _ZN5Eigen8internal21dense_assignment_loopINS0_31generic_dense_assignment_kernelINS0_9evaluatorINS_5BlockINS4_INS_6MatrixIdLin1ELin1ELi0ELin1ELin1EEELin1ELin1ELb0EEELin1ELi2ELb0EEEEENS3_INS_7ProductINS_13CwiseBinaryOpINS0_17scalar_product_opIddEEKNS_14CwiseNullaryOpINS0_18scalar_constant_opIdEEKNS5_IdLin1ELi1ELi0ELin1ELi1EEEEEKNS_3MapISH_Li0ENS_6StrideILi0ELi0EEEEEEENS_9TransposeIKNS5_IdLi2ELi1ELi0ELi2ELi1EEEEELi1EEEEENS0_13sub_assign_opIddEELi0EEELi4ELi0EE3runERSZ_
       2779  ADA 003A8C80 _ZN5Eigen8internal21dense_assignment_loopINS0_31generic_dense_assignment_kernelINS0_9evaluatorINS_5BlockINS_6MatrixIdLi4ELi4ELi0ELi4ELi4EEELin1ELin1ELb0EEEEENS3_INS_14CwiseNullaryOpINS0_18scalar_constant_opIdEENS5_IdLin1ELin1ELi0ELi4ELi4EEEEEEENS0_13div_assign_opIddEELi0EEELi4ELi0EE3runERSH_
       2780  ADB 003A9070 _ZN5Eigen8internal21dense_assignment_loopINS0_31generic_dense_assignment_kernelINS0_9evaluatorINS_5BlockINS_6MatrixIdLi4ELi4ELi0ELi4ELi4EEELin1ELin1ELb0EEEEENS3_INS_14CwiseNullaryOpINS0_18scalar_constant_opIdEENS5_IdLin1ELin1ELi0ELi4ELi4EEEEEEENS0_13mul_assign_opIddEELi0EEELi4ELi0EE3runERSH_
       2781  ADC 003A94A0 _ZN5Eigen8internal21dense_assignment_loopINS0_31generic_dense_assignment_kernelINS0_9evaluatorINS_5BlockINS_6MatrixIdLin1ELi1ELi0ELin1ELi1EEELin1ELin1ELb0EEEEENS3_INS_14CwiseNullaryOpINS0_18scalar_constant_opIdEENS5_IdLin1ELin1ELi0ELin1ELi1EEEEEEENS0_13mul_assign_opIddEELi0EEELi4ELi0EE3runERSH_
       2782  ADD 003A98E0 _ZN5Eigen8internal21dense_assignment_loopINS0_31generic_dense_assignment_kernelINS0_9evaluatorINS_5BlockINS_6MatrixIdLin1ELin1ELi0ELin1ELin1EEELin1ELin1ELb0EEEEENS3_INS_14CwiseNullaryOpINS0_18scalar_constant_opIdEES6_EEEENS0_13div_assign_opIddEELi0EEELi4ELi0EE3runERSG_
       2783  ADE 003A9CD0 _ZN5Eigen8internal21dense_assignment_loopINS0_31generic_dense_assignment_kernelINS0_9evaluatorINS_5BlockINS_6MatrixIdLin1ELin1ELi0ELin1ELin1EEELin1ELin1ELb0EEEEENS3_INS_14CwiseNullaryOpINS0_18scalar_constant_opIdEES6_EEEENS0_13mul_assign_opIddEELi0EEELi4ELi0EE3runERSG_
       2784  ADF 003AA110 _ZN5Eigen8internal21dense_assignment_loopINS0_31generic_dense_assignment_kernelINS0_9evaluatorINS_5BlockINS_6MatrixIdLin1ELin1ELi0ELin1ELin1EEELin1ELin1ELb0EEEEENS3_INS_14CwiseNullaryOpINS0_18scalar_constant_opIdEES6_EEEENS0_9assign_opIddEELi0EEELi4ELi0EE3runERSG_
       2785  AE0 003AA530 _ZN5Eigen8internal21dense_assignment_loopINS0_31generic_dense_assignment_kernelINS0_9evaluatorINS_5BlockINS_6MatrixIdLin1ELin1ELi0ELin1ELin1EEELin1ELin1ELb0EEEEENS3_INS_3MapIS6_Li0ENS_6StrideILi0ELi0EEEEEEENS0_9assign_opIddEELi0EEELi4ELi0EE3runERSG_
       2786  AE1 003AAA60 _ZN5Eigen8internal21dense_assignment_loopINS0_31generic_dense_assignment_kernelINS0_9evaluatorINS_5BlockINS_6MatrixIdLin1ELin1ELi0ELin1ELin1EEELin1ELin1ELb0EEEEENS3_IS6_EENS0_13sub_assign_opIddEELi0EEELi4ELi0EE3runERSC_
       2787  AE2 003AB010 _ZN5Eigen8internal21dense_assignment_loopINS0_31generic_dense_assignment_kernelINS0_9evaluatorINS_6MatrixISt7complexIdELi4ELi4ELi0ELi4ELi4EEEEENS3_INS_7ProductINS9_INS_3MapIS7_Li16ENS_6StrideILi0ELi0EEEEENS4_IdLi4ELi4ELi0ELi4ELi4EEELi0EEESD_Li1EEEEENS0_9assign_opIS6_S6_EELi0EEELi2ELi0EE3runERSK_
       2788  AE3 003AB330 _ZN5Eigen8internal21dense_assignment_loopINS0_31generic_dense_assignment_kernelINS0_9evaluatorINS_6MatrixISt7complexIdELi4ELi4ELi0ELi4ELi4EEEEENS3_INS_7ProductINS_3MapIS7_Li16ENS_6StrideILi0ELi0EEEEENS4_IdLi4ELi4ELi0ELi4ELi4EEELi1EEEEENS0_9assign_opIS6_S6_EELi0EEELi0ELi0EE3runERSJ_
       2789  AE4 003AB550 _ZN5Eigen8internal21dense_assignment_loopINS0_31generic_dense_assignment_kernelINS0_9evaluatorINS_6MatrixIdLin1ELi1ELi0ELin1ELi1EEEEENS3_INS_16PartialReduxExprINS_3MapINS4_IdLin1ELin1ELi1ELin1ELin1EEELi0ENS_6StrideILi0ELi0EEEEENS0_10member_sumIddEELi1EEEEENS0_9assign_opIddEELi0EEELi1ELi0EE3runERSJ_
       2790  AE5 003AB880 _ZN5Eigen8internal21dense_assignment_loopINS0_31generic_dense_assignment_kernelINS0_9evaluatorINS_6MatrixIdLin1ELin1ELi0ELin1ELin1EEEEENS3_INS_7ProductINS7_INS_15DiagonalWrapperIKNS_13MatrixWrapperINS_5ArrayIdLin1ELi1ELi0ELin1ELi1EEEEEEES5_Li1EEENS8_IKNS9_IKNS_12CwiseUnaryOpINS0_17scalar_inverse_opIdEEKSB_EEEEEELi1EEEEENS0_9assign_opIddEELi0EEELi4ELi0EE3runERST_
       2791  AE6 003ABBB0 _ZN5Eigen8internal21dense_assignment_loopINS0_31generic_dense_assignment_kernelINS0_9evaluatorINS_9TransposeINS_6MatrixIdLin1ELi1ELi0ELin1ELi1EEEEEEENS3_INS_5BlockIKNS_16PartialReduxExprINS5_IdLin1ELin1ELi0ELin1ELin1EEENS0_10member_sumIddEELi0EEELi1ELin1ELb0EEEEENS0_9assign_opIddEELi0EEELi1ELi0EE3runERSK_
       2792  AE7 003ABF20 _ZN5Eigen8internal21dense_assignment_loopINS0_41restricted_packet_dense_assignment_kernelINS0_9evaluatorINS_3RefINS_6MatrixIdLin1ELin1ELi0ELin1ELin1EEELi0ENS_11OuterStrideILin1EEEEEEENS3_INS_7ProductIS9_S9_Li1EEEEENS0_13sub_assign_opIddEEEELi0ELi0EE3runERSG_
       2793  AE8 003AC330 _ZN5Eigen8internal21dense_assignment_loopINS0_41restricted_packet_dense_assignment_kernelINS0_9evaluatorINS_3RefINS_6MatrixIdLin1ELin1ELi0ELin1ELin1EEELi0ENS_11OuterStrideILin1EEEEEEENS3_INS_7ProductIS9_S9_Li1EEEEENS0_13sub_assign_opIddEEEELi4ELi0EE3runERSG_
       2794  AE9 003AC980 _ZN5Eigen8internal21dense_assignment_loopINS0_41restricted_packet_dense_assignment_kernelINS0_9evaluatorINS_3RefINS_6MatrixIdLin1ELin1ELi1ELin1ELin1EEELi0ENS_11OuterStrideILin1EEEEEEENS3_INS_7ProductIS9_S9_Li1EEEEENS0_13sub_assign_opIddEEEELi0ELi0EE3runERSG_
       2795  AEA 003ACDD0 _ZN5Eigen8internal21dense_assignment_loopINS0_41restricted_packet_dense_assignment_kernelINS0_9evaluatorINS_3RefINS_6MatrixIdLin1ELin1ELi1ELin1ELin1EEELi0ENS_11OuterStrideILin1EEEEEEENS3_INS_7ProductIS9_S9_Li1EEEEENS0_13sub_assign_opIddEEEELi4ELi0EE3runERSG_
       2796  AEB 003AD3E0 _ZN5Eigen8internal21dense_assignment_loopINS0_41restricted_packet_dense_assignment_kernelINS0_9evaluatorINS_6MatrixIdLin1ELin1ELi0ELin1ELin1EEEEENS3_INS_7ProductINS4_IdLin1ELin1ELi1ELin1ELin1EEES8_Li1EEEEENS0_9assign_opIddEEEELi0ELi0EE3runERSD_
       2797  AEC 003AD810 _ZN5Eigen8internal21dense_assignment_loopINS0_41restricted_packet_dense_assignment_kernelINS0_9evaluatorINS_6MatrixIdLin1ELin1ELi0ELin1ELin1EEEEENS3_INS_7ProductINS7_INS_3MapINS4_IdLin1ELin1ELi1ELin1ELin1EEELi16ENS_6StrideILi0ELi0EEEEENS_15DiagonalWrapperIKNS4_IdLin1ELi1ELi0ELin1ELi1EEEEELi1EEESC_Li1EEEEENS0_9assign_opIddEEEELi0ELi0EE3runERSM_
       2798  AED 003ADC20 _ZN5Eigen8internal21dense_assignment_loopINS0_41restricted_packet_dense_assignment_kernelINS0_9evaluatorINS_6MatrixIdLin1ELin1ELi0ELin1ELin1EEEEENS3_INS_7ProductINS7_INS_3MapINS4_IdLin1ELin1ELi1ELin1ELin1EEELi16ENS_6StrideILi0ELi0EEEEENS_15DiagonalWrapperIKNS_13MatrixWrapperINS_5ArrayIdLin1ELi1ELi0ELin1ELi1EEEEEEELi1EEESC_Li1EEEEENS0_9assign_opIddEEEELi0ELi0EE3runERSP_
       2799  AEE 003AE030 _ZN5Eigen8internal21dense_assignment_loopINS0_41restricted_packet_dense_assignment_kernelINS0_9evaluatorINS_6MatrixIdLin1ELin1ELi0ELin1ELin1EEEEENS3_INS_7ProductINS_3MapINS4_IdLin1ELin1ELi1ELin1ELin1EEELi0ENS_6StrideILi0ELi0EEEEES5_Li1EEEEENS0_9assign_opIddEEEELi0ELi0EE3runERSH_
       2800  AEF 003AE490 _ZN5Eigen8internal21dense_assignment_loopINS0_41restricted_packet_dense_assignment_kernelINS0_9evaluatorINS_6MatrixIdLin1ELin1ELi0ELin1ELin1EEEEENS3_INS_7ProductINS_3MapINS4_IdLin1ELin1ELi1ELin1ELin1EEELi0ENS_6StrideILi0ELi0EEEEESC_Li1EEEEENS0_9assign_opIddEEEELi0ELi0EE3runERSH_
       2801  AF0 003AE8A0 _ZN5Eigen8internal21dense_assignment_loopINS0_41restricted_packet_dense_assignment_kernelINS0_9evaluatorINS_6MatrixIdLin1ELin1ELi0ELin1ELin1EEEEENS3_INS_7ProductINS_5BlockIKS5_Lin1ELin1ELb0EEENS8_IS5_Lin1ELin1ELb0EEELi1EEEEENS0_9assign_opIddEEEELi4ELi0EE3runERSG_
       2802  AF1 003AEEA0 _ZN5Eigen8internal21dense_assignment_loopINS0_41restricted_packet_dense_assignment_kernelINS0_9evaluatorINS_6MatrixIdLin1ELin1ELi0ELin1ELin1EEEEENS3_INS_7ProductIS5_S5_Li1EEEEENS0_9assign_opIddEEEELi4ELi0EE3runERSC_
       2803  AF2 003AF4B0 _ZN5Eigen8internal21dense_assignment_loopINS0_41restricted_packet_dense_assignment_kernelINS0_9evaluatorINS_6MatrixIdLin1ELin1ELi1ELin1ELin1EEEEENS3_INS_7ProductIS5_S5_Li1EEEEENS0_9assign_opIddEEEELi4ELi0EE3runERSC_
       2804  AF3 003AFA90 _ZN5Eigen8internal22lhs_process_one_packetILi4ELx1ELx1ESt7complexIdES3_S3_NS0_12DoublePacketIDv2_dEES5_S6_NS0_9Packet1cdENS0_11gebp_traitsIS3_S3_Lb0ELb0ELi1ELi0EEENS0_16BlasLinearMapperIS3_xLi0ELi1EEENS0_16blas_data_mapperIS3_xLi0ELi0ELi1EEEEclERKSD_PKS3_SI_S3_xxxxxxixxxxx
       2805  AF4 003B0850 _ZN5Eigen8internal22lhs_process_one_packetILi4ELx2ELx1EdddDv2_dS2_S2_S2_NS0_11gebp_traitsIddLb0ELb0ELi1ELi0EEENS0_16BlasLinearMapperIdxLi0ELi1EEENS0_16blas_data_mapperIdxLi0ELi0ELi1EEEEclERKS8_PKdSD_dxxxxxxixxxxx
       2806  AF5 003B1160 _ZN5Eigen8internal23triangular_product_implILi1ELb1EKNS_9TransposeIKNS_6MatrixIdLin1ELin1ELi1ELin1ELin1EEEEELb0ENS3_IdLin1ELin1ELi0ELi4ELi4EEELb0EE3runINS3_IdLin1ELin1ELi0ELin1ELi4EEEEEvRT_RS7_RKS8_RKNSC_6ScalarE
       2807  AF6 003B12B0 _ZN5Eigen8internal23triangular_product_implILi1ELb1EKNS_9TransposeIKNS_6MatrixIdLin1ELin1ELi1ELin1ELin1EEEEELb0ENS3_IdLin1ELin1ELi0ELin1ELin1EEELb0EE3runIS8_EEvRT_RS7_RKS8_RKNSB_6ScalarE
       2808  AF7 003B13F0 _ZN5Eigen8internal23triangular_product_implILi2ELb1ENS_6MatrixIdLin1ELin1ELi1ELin1ELin1EEELb0ENS2_IdLin1ELin1ELi0ELi4ELi4EEELb0EE3runINS2_IdLin1ELin1ELi0ELin1ELi4EEEEEvRT_RKS3_RKS4_RKNS8_6ScalarE
       2809  AF8 003B1540 _ZN5Eigen8internal23triangular_product_implILi2ELb1ENS_6MatrixIdLin1ELin1ELi1ELin1ELin1EEELb0ENS2_IdLin1ELin1ELi0ELin1ELin1EEELb0EE3runIS4_EEvRT_RKS3_RKS4_RKNS7_6ScalarE
       2810  AF9 003B1680 _ZN5Eigen8internal23triangular_product_implILi5ELb1EKNS_5BlockINS_6MatrixIdLin1ELin1ELi0ELin1ELin1EEELin1ELin1ELb0EEELb0ES4_Lb0EE3runIS5_EEvRT_RS6_RKS4_RKNS9_6ScalarE
       2811  AFA 003B17D0 _ZN5Eigen8internal23triangular_product_implILi6ELb1EKNS_9TransposeIKNS_5BlockINS_6MatrixIdLin1ELin1ELi0ELin1ELin1EEELin1ELin1ELb0EEEEELb0ES6_Lb0EE3runIS5_EEvRT_RS9_RS7_RKNSC_6ScalarE
       2812  AFB 003B1930 _ZN5Eigen8internal23triangular_solve_matrixISt7complexIdExLi1ELi2ELb0ELi0ELi0ELi1EE3runExxPKS3_xPS3_xxRNS0_15level3_blockingIS3_S3_EE
       2813  AFC 003B28A0 _ZN5Eigen8internal23triangular_solve_matrixISt7complexIdExLi1ELi5ELb0ELi0ELi0ELi1EE3runExxPKS3_xPS3_xxRNS0_15level3_blockingIS3_S3_EE
       2814  AFD 003B3670 _ZN5Eigen8internal23triangular_solve_matrixIdxLi1ELi2ELb0ELi0ELi0ELi1EE3runExxPKdxPdxxRNS0_15level3_blockingIddEE
       2815  AFE 003B4AA0 _ZN5Eigen8internal23triangular_solve_matrixIdxLi1ELi5ELb0ELi0ELi0ELi1EE3runExxPKdxPdxxRNS0_15level3_blockingIddEE
       2816  AFF 003B5C00 _ZN5Eigen8internal23triangular_solve_matrixIdxLi2ELi1ELb0ELi0ELi0ELi1EE3runExxPKdxPdxxRNS0_15level3_blockingIddEE
       2817  B00 003B6E30 _ZN5Eigen8internal23triangular_solve_matrixIdxLi2ELi6ELb0ELi0ELi0ELi1EE3runExxPKdxPdxxRNS0_15level3_blockingIddEE
       2818  B01 003B7C90 _ZN5Eigen8internal23triangular_solve_vectorIddxLi1ELi2ELb0ELi0EE3runExPKdxPd
       2819  B02 003B8540 _ZN5Eigen8internal24selfadjoint_product_implINS_5BlockINS_6MatrixIdLin1ELin1ELi0ELin1ELin1EEELin1ELin1ELb0EEELi17ELb0ENS_13CwiseBinaryOpINS0_17scalar_product_opIddEEKNS_14CwiseNullaryOpINS0_18scalar_constant_opIdEEKNS3_IdLin1ELi1ELi0ELin1ELi1EEEEEKNS2_INS2_IS4_Lin1ELi1ELb1EEELin1ELi1ELb0EEEEELi0ELb1EE3runINS2_ISC_Lin1ELi1ELb0EEEEEvRT_RKS5_RKSJ_RKd
       2820  B03 003B8870 _ZN5Eigen8internal25generic_product_impl_baseINS_13CwiseBinaryOpINS0_17scalar_product_opIddEEKNS_14CwiseNullaryOpINS0_18scalar_constant_opIdEEKNS_6MatrixIdLi1ELin1ELi1ELi1ELi4EEEEEKNS_9TransposeIKNS_5BlockIKNSE_IKNSE_INS8_IdLi4ELi4ELi0ELi4ELi4EEELin1ELin1ELb0EEELin1ELi1ELb1EEELin1ELi1ELb0EEEEEEENS_14TriangularViewIKNSE_ISH_Lin1ELin1ELb0EEELj5EEENS0_20generic_product_implISO_SS_NS_10DenseShapeENS_15TriangularShapeELi3EEEE6evalToINSE_INSE_INS8_IdLin1ELin1ELi1ELin1ELin1EEELi1ELin1ELb1EEELi1ELin1ELb0EEEEEvRT_RKSO_RKSS_
       2821  B04 003B8A90 _ZN5Eigen8internal25generic_product_impl_baseINS_13CwiseBinaryOpINS0_17scalar_product_opIddEEKNS_14CwiseNullaryOpINS0_18scalar_constant_opIdEEKNS_6MatrixIdLi1ELin1ELi1ELi1ELin1EEEEEKNS_9TransposeIKNS_5BlockIKNSE_IKNSE_INS8_IdLin1ELin1ELi0ELin1ELin1EEELin1ELin1ELb0EEELin1ELi1ELb1EEELin1ELi1ELb0EEEEEEENS_14TriangularViewIKNSE_ISH_Lin1ELin1ELb0EEELj5EEENS0_20generic_product_implISO_SS_NS_10DenseShapeENS_15TriangularShapeELi7EEEE6evalToINSE_INSE_INS8_IdLin1ELin1ELi1ELin1ELin1EEELi1ELin1ELb1EEELi1ELin1ELb0EEEEEvRT_RKSO_RKSS_
       2822  B05 003B8CB0 _ZN5Eigen8internal25local_nested_eval_wrapperINS_13CwiseBinaryOpINS0_17scalar_product_opIddEEKNS_14CwiseNullaryOpINS0_18scalar_constant_opIdEEKNS_6MatrixIdLin1ELi1ELi0ELin1ELi1EEEEEKNS_3MapIS9_Li0ENS_6StrideILi0ELi0EEEEEEELin1ELb1EEC2ERKSI_Pd
       2823  B06 003B8FB0 _ZN5Eigen8internal25local_nested_eval_wrapperINS_13CwiseBinaryOpINS0_17scalar_product_opIddEEKNS_14CwiseNullaryOpINS0_18scalar_constant_opIdEEKNS_6MatrixIdLin1ELi1ELi0ELin1ELi1EEEEEKNS_5BlockIKNS8_IdLin1ELin1ELi0ELin1ELin1EEELin1ELi1ELb0EEEEELin1ELb1EEC2ERKSI_Pd
       2824  B07 003B92B0 _ZN5Eigen8internal25local_nested_eval_wrapperINS_13CwiseBinaryOpINS0_17scalar_product_opIddEEKNS_14CwiseNullaryOpINS0_18scalar_constant_opIdEEKNS_6MatrixIdLin1ELi1ELi0ELin1ELi1EEEEEKNS_5BlockINSD_INS8_IdLin1ELin1ELi0ELin1ELin1EEELin1ELi1ELb1EEELin1ELi1ELb0EEEEELin1ELb1EEC2ERKSI_Pd
       2825  B08 003B95B0 _ZN5Eigen8internal26call_dense_assignment_loopINS_3MapINS_6MatrixIdLin1ELi1ELi0ELi4ELi1EEELi0ENS_6StrideILi0ELi0EEEEENS_7ProductINS_5BlockINS9_INS3_IdLi4ELi4ELi0ELi4ELi4EEELin1ELin1ELb0EEELin1ELin1ELb0EEENS9_IKSA_Lin1ELi1ELb0EEELi1EEENS0_9assign_opIddEEEEvRT_RKT0_RKT1_
       2826  B09 003B9820 _ZN5Eigen8internal26call_dense_assignment_loopINS_3MapINS_6MatrixIdLin1ELin1ELi0ELin1ELin1EEELi0ENS_6StrideILi0ELi0EEEEENS_9TransposeIKNS_13ReturnByValueINS_28MatrixExponentialReturnValueINS_13CwiseBinaryOpINS0_17scalar_product_opIddEEKNS8_IS7_EEKNS_14CwiseNullaryOpINS0_18scalar_constant_opIdEEKNS3_IdLin1ELin1ELi1ELin1ELin1EEEEEEEEEEEEENS0_9assign_opIddEEEEvRT_RKT0_RKT1_
       2827  B0A 003B9C30 _ZN5Eigen8internal26call_dense_assignment_loopINS_6MatrixISt7complexIdELin1ELin1ELi0ELin1ELin1EEEEEvRT_RKNS_14CwiseNullaryOpINS0_18scalar_constant_opINS6_6ScalarEEES6_EERKNS0_9assign_opISA_SA_EE
       2828  B0B 003B9D50 _ZN5Eigen8internal26call_dense_assignment_loopINS_6MatrixISt7complexIdELin1ELin1ELi0ELin1ELin1EEENS_3MapIS5_Li16ENS_6StrideILi0ELi0EEEEENS0_9assign_opIS4_S4_EEEEvRT_RKT0_RKT1_
       2829  B0C 003B9EE0 _ZN5Eigen8internal26call_dense_assignment_loopINS_6MatrixISt7complexIdELin1ELin1ELi0ELin1ELin1EEES5_NS0_9assign_opIS4_S4_EEEEvRT_RKT0_RKT1_
       2830  B0D 003BA070 _ZN5Eigen8internal26call_dense_assignment_loopINS_6MatrixIdLin1ELi1ELi0ELin1ELi1EEENS_16PartialReduxExprINS2_IdLin1ELin1ELi0ELin1ELin1EEENS0_10member_sumIddEELi1EEENS0_9assign_opIddEEEEvRT_RKT0_RKT1_
       2831  B0E 003BA360 _ZN5Eigen8internal26call_dense_assignment_loopINS_6MatrixIdLin1ELi1ELi0ELin1ELi1EEENS_5BlockIKNS_16PartialReduxExprINS2_IdLin1ELin1ELi0ELin1ELin1EEENS0_10member_sumIddEELi1EEELin1ELi1ELb0EEENS0_9assign_opIddEEEEvRT_RKT0_RKT1_
       2832  B0F 003BA670 _ZN5Eigen8internal26call_dense_assignment_loopINS_6MatrixIdLin1ELin1ELi0ELin1ELi4EEEEEvRT_RKNS_14CwiseNullaryOpINS0_18scalar_constant_opINS4_6ScalarEEES4_EERKNS0_9assign_opIS8_S8_EE
       2833  B10 003BA8C0 _ZN5Eigen8internal26call_dense_assignment_loopINS_6MatrixIdLin1ELin1ELi0ELin1ELin1EEEEEvRT_RKNS_14CwiseNullaryOpINS0_18scalar_constant_opINS4_6ScalarEEES4_EERKNS0_9assign_opIS8_S8_EE
       2834  B11 003BAB00 _ZN5Eigen8internal26call_dense_assignment_loopINS_6MatrixIdLin1ELin1ELi0ELin1ELin1EEENS_12CwiseUnaryOpINS0_26MatrixExponentialScalingOpIdEEKS3_EENS0_9assign_opIddEEEEvRT_RKT0_RKT1_
       2835  B12 003BAC30 _ZN5Eigen8internal26call_dense_assignment_loopINS_6MatrixIdLin1ELin1ELi0ELin1ELin1EEENS_13CwiseBinaryOpINS0_13scalar_sum_opIddEEKNS4_INS0_17scalar_product_opIddEEKNS_14CwiseNullaryOpINS0_18scalar_constant_opIdEEKS3_EESC_EEKNS4_IS8_SE_KNS9_INS0_18scalar_identity_opIdEES3_EEEEEENS0_9assign_opIddEEEEvRT_RKT0_RKT1_
       2836  B13 003BB0B0 _ZN5Eigen8internal26call_dense_assignment_loopINS_6MatrixIdLin1ELin1ELi0ELin1ELin1EEENS_13CwiseBinaryOpINS0_13scalar_sum_opIddEEKNS4_IS6_KNS4_INS0_17scalar_product_opIddEEKNS_14CwiseNullaryOpINS0_18scalar_constant_opIdEEKS3_EESC_EESG_EEKNS4_IS8_SE_KNS9_INS0_18scalar_identity_opIdEES3_EEEEEENS0_9assign_opIddEEEEvRT_RKT0_RKT1_
       2837  B14 003BB4A0 _ZN5Eigen8internal26call_dense_assignment_loopINS_6MatrixIdLin1ELin1ELi0ELin1ELin1EEENS_13CwiseBinaryOpINS0_13scalar_sum_opIddEEKNS4_IS6_KNS4_IS6_KNS4_INS0_17scalar_product_opIddEEKNS_14CwiseNullaryOpINS0_18scalar_constant_opIdEEKS3_EESC_EESG_EESG_EEKNS4_IS8_SE_KNS9_INS0_18scalar_identity_opIdEES3_EEEEEENS0_9assign_opIddEEEEvRT_RKT0_RKT1_
       2838  B15 003BB990 _ZN5Eigen8internal26call_dense_assignment_loopINS_6MatrixIdLin1ELin1ELi0ELin1ELin1EEENS_13CwiseBinaryOpINS0_13scalar_sum_opIddEEKNS4_IS6_KNS4_IS6_KNS4_IS6_KNS4_INS0_17scalar_product_opIddEEKNS_14CwiseNullaryOpINS0_18scalar_constant_opIdEEKS3_EESC_EESG_EESG_EESG_EEKNS4_IS8_SE_KNS9_INS0_18scalar_identity_opIdEES3_EEEEEENS0_9assign_opIddEEEEvRT_RKT0_RKT1_
       2839  B16 003BBFA0 _ZN5Eigen8internal26call_dense_assignment_loopINS_6MatrixIdLin1ELin1ELi0ELin1ELin1EEENS_13CwiseBinaryOpINS0_13scalar_sum_opIddEEKNS_12CwiseUnaryOpINS0_18scalar_opposite_opIdEEKS3_EESA_EENS0_9assign_opIddEEEEvRT_RKT0_RKT1_
       2840  B17 003BC2F0 _ZN5Eigen8internal26call_dense_assignment_loopINS_6MatrixIdLin1ELin1ELi0ELin1ELin1EEENS_13CwiseBinaryOpINS0_13scalar_sum_opIddEEKS3_S7_EENS0_9assign_opIddEEEEvRT_RKT0_RKT1_
       2841  B18 003BC640 _ZN5Eigen8internal26call_dense_assignment_loopINS_6MatrixIdLin1ELin1ELi0ELin1ELin1EEENS_13CwiseBinaryOpINS0_17scalar_product_opIddEEKS3_KNS_14CwiseNullaryOpINS0_18scalar_constant_opIdEES7_EEEENS0_9assign_opIddEEEEvRT_RKT0_RKT1_
       2842  B19 003BC910 _ZN5Eigen8internal26call_dense_assignment_loopINS_6MatrixIdLin1ELin1ELi0ELin1ELin1EEENS_13CwiseBinaryOpINS0_18scalar_quotient_opIddEEKS3_KNS_14CwiseNullaryOpINS0_18scalar_constant_opIdEES7_EEEENS0_9assign_opIddEEEEvRT_RKT0_RKT1_
       2843  B1A 003BCB80 _ZN5Eigen8internal26call_dense_assignment_loopINS_6MatrixIdLin1ELin1ELi0ELin1ELin1EEENS_14CwiseNullaryOpINS0_18scalar_identity_opIdEES3_EENS0_9assign_opIddEEEEvRT_RKT0_RKT1_
       2844  B1B 003BCD60 _ZN5Eigen8internal26call_dense_assignment_loopINS_6MatrixIdLin1ELin1ELi0ELin1ELin1EEENS_3MapINS2_IdLin1ELin1ELi1ELin1ELin1EEELi0ENS_6StrideILi0ELi0EEEEENS0_9assign_opIddEEEEvRT_RKT0_RKT1_
       2845  B1C 003BD090 _ZN5Eigen8internal26call_dense_assignment_loopINS_6MatrixIdLin1ELin1ELi0ELin1ELin1EEENS_3MapINS2_IdLin1ELin1ELi1ELin1ELin1EEELi16ENS_6StrideILi0ELi0EEEEENS0_9assign_opIddEEEEvRT_RKT0_RKT1_
       2846  B1D 003BD3C0 _ZN5Eigen8internal26call_dense_assignment_loopINS_6MatrixIdLin1ELin1ELi0ELin1ELin1EEENS_7ProductINS4_INS_15DiagonalWrapperIKNS_13MatrixWrapperINS_5ArrayIdLin1ELi1ELi0ELin1ELi1EEEEEEES3_Li1EEENS5_IKNS6_IKNS_12CwiseUnaryOpINS0_17scalar_inverse_opIdEEKS8_EEEEEELi1EEENS0_9assign_opIddEEEEvRT_RKT0_RKT1_
       2847  B1E 003BD510 _ZN5Eigen8internal26call_dense_assignment_loopINS_6MatrixIdLin1ELin1ELi0ELin1ELin1EEENS_7ProductINS_15DiagonalWrapperIKNS_13MatrixWrapperIKNS_12CwiseUnaryOpINS0_17scalar_inverse_opIdEEKNS_5ArrayIdLin1ELi1ELi0ELin1ELi1EEEEEEEEES3_Li1EEENS0_9assign_opIddEEEEvRT_RKT0_RKT1_
       2848  B1F 003BD910 _ZN5Eigen8internal26call_dense_assignment_loopINS_6MatrixIdLin1ELin1ELi0ELin1ELin1EEENS_7ProductINS_9TransposeIKS3_EENS_15DiagonalWrapperIKNS_13MatrixWrapperINS_5ArrayIdLin1ELi1ELi0ELin1ELi1EEEEEEELi1EEENS0_9assign_opIddEEEEvRT_RKT0_RKT1_
       2849  B20 003BDD00 _ZN5Eigen8internal26call_dense_assignment_loopINS_6MatrixIdLin1ELin1ELi0ELin1ELin1EEENS_7ProductIS3_NS_15DiagonalWrapperIKNS2_IdLin1ELi1ELi0ELin1ELi1EEEEELi1EEENS0_9assign_opIddEEEEvRT_RKT0_RKT1_
       2850  B21 003BE0E0 _ZN5Eigen8internal26call_dense_assignment_loopINS_6MatrixIdLin1ELin1ELi0ELin1ELin1EEES3_NS0_9assign_opIddEEEEvRT_RKT0_RKT1_
       2851  B22 003BE3B0 _ZN5Eigen8internal26call_dense_assignment_loopINS_6MatrixIdLin1ELin1ELi1ELin1ELin1EEEEEvRT_RKNS_14CwiseNullaryOpINS0_18scalar_constant_opINS4_6ScalarEEES4_EERKNS0_9assign_opIS8_S8_EE
       2852  B23 003BE5F0 _ZN5Eigen8internal26call_dense_assignment_loopINS_6MatrixIdLin1ELin1ELi1ELin1ELin1EEENS2_IdLin1ELin1ELi0ELin1ELin1EEENS0_9assign_opIddEEEEvRT_RKT0_RKT1_
       2853  B24 003BE920 _ZN5Eigen8internal26call_dense_assignment_loopINS_6MatrixIdLin1ELin1ELi1ELin1ELin1EEENS_12CwiseUnaryOpINS0_26MatrixExponentialScalingOpIdEEKS3_EENS0_9assign_opIddEEEEvRT_RKT0_RKT1_
       2854  B25 003BEA50 _ZN5Eigen8internal26call_dense_assignment_loopINS_6MatrixIdLin1ELin1ELi1ELin1ELin1EEENS_13CwiseBinaryOpINS0_13scalar_sum_opIddEEKNS4_INS0_17scalar_product_opIddEEKNS_14CwiseNullaryOpINS0_18scalar_constant_opIdEEKS3_EESC_EEKNS4_IS8_SE_KNS9_INS0_18scalar_identity_opIdEES3_EEEEEENS0_9assign_opIddEEEEvRT_RKT0_RKT1_
       2855  B26 003BEED0 _ZN5Eigen8internal26call_dense_assignment_loopINS_6MatrixIdLin1ELin1ELi1ELin1ELin1EEENS_13CwiseBinaryOpINS0_13scalar_sum_opIddEEKNS4_IS6_KNS4_INS0_17scalar_product_opIddEEKNS_14CwiseNullaryOpINS0_18scalar_constant_opIdEEKS3_EESC_EESG_EEKNS4_IS8_SE_KNS9_INS0_18scalar_identity_opIdEES3_EEEEEENS0_9assign_opIddEEEEvRT_RKT0_RKT1_
       2856  B27 003BF2C0 _ZN5Eigen8internal26call_dense_assignment_loopINS_6MatrixIdLin1ELin1ELi1ELin1ELin1EEENS_13CwiseBinaryOpINS0_13scalar_sum_opIddEEKNS4_IS6_KNS4_IS6_KNS4_INS0_17scalar_product_opIddEEKNS_14CwiseNullaryOpINS0_18scalar_constant_opIdEEKS3_EESC_EESG_EESG_EEKNS4_IS8_SE_KNS9_INS0_18scalar_identity_opIdEES3_EEEEEENS0_9assign_opIddEEEEvRT_RKT0_RKT1_
       2857  B28 003BF7C0 _ZN5Eigen8internal26call_dense_assignment_loopINS_6MatrixIdLin1ELin1ELi1ELin1ELin1EEENS_13CwiseBinaryOpINS0_13scalar_sum_opIddEEKNS4_IS6_KNS4_IS6_KNS4_IS6_KNS4_INS0_17scalar_product_opIddEEKNS_14CwiseNullaryOpINS0_18scalar_constant_opIdEEKS3_EESC_EESG_EESG_EESG_EEKNS4_IS8_SE_KNS9_INS0_18scalar_identity_opIdEES3_EEEEEENS0_9assign_opIddEEEEvRT_RKT0_RKT1_
       2858  B29 003BFDE0 _ZN5Eigen8internal26call_dense_assignment_loopINS_6MatrixIdLin1ELin1ELi1ELin1ELin1EEENS_13CwiseBinaryOpINS0_13scalar_sum_opIddEEKNS_12CwiseUnaryOpINS0_18scalar_opposite_opIdEEKS3_EESA_EENS0_9assign_opIddEEEEvRT_RKT0_RKT1_
       2859  B2A 003C0130 _ZN5Eigen8internal26call_dense_assignment_loopINS_6MatrixIdLin1ELin1ELi1ELin1ELin1EEENS_13CwiseBinaryOpINS0_13scalar_sum_opIddEEKS3_S7_EENS0_9assign_opIddEEEEvRT_RKT0_RKT1_
       2860  B2B 003C0480 _ZN5Eigen8internal26call_dense_assignment_loopINS_6MatrixIdLin1ELin1ELi1ELin1ELin1EEENS_13CwiseBinaryOpINS0_17scalar_product_opIddEEKNS_9TransposeINS_3MapINS2_IdLin1ELin1ELi0ELin1ELin1EEELi0ENS_6StrideILi0ELi0EEEEEEEKNS_14CwiseNullaryOpINS0_18scalar_constant_opIdEEKS3_EEEENS0_9assign_opIddEEEEvRT_RKT0_RKT1_
       2861  B2C 003C0750 _ZN5Eigen8internal26call_dense_assignment_loopINS_6MatrixIdLin1ELin1ELi1ELin1ELin1EEENS_7ProductINS_3MapIS3_Li16ENS_6StrideILi0ELi0EEEEENS_15DiagonalWrapperIKNS2_IdLin1ELi1ELi0ELin1ELi1EEEEELi1EEENS0_9assign_opIddEEEEvRT_RKT0_RKT1_
       2862  B2D 003C0BC0 _ZN5Eigen8internal26call_dense_assignment_loopINS_6MatrixIdLin1ELin1ELi1ELin1ELin1EEENS_7ProductINS_3MapIS3_Li16ENS_6StrideILi0ELi0EEEEENS_15DiagonalWrapperIKNS_13MatrixWrapperINS_5ArrayIdLin1ELi1ELi0ELin1ELi1EEEEEEELi1EEENS0_9assign_opIddEEEEvRT_RKT0_RKT1_
       2863  B2E 003C1030 _ZN5Eigen8internal26call_dense_assignment_loopINS_6MatrixIdLin1ELin1ELi1ELin1ELin1EEES3_NS0_9assign_opIddEEEEvRT_RKT0_RKT1_
       2864  B2F 003C1300 _ZN5Eigen8internal26outer_product_selector_runINS_5BlockINS2_INS_6MatrixIdLin1ELin1ELi0ELin1ELin1EEELin1ELin1ELb0EEELin1ELin1ELb0EEENS_13CwiseBinaryOpINS0_17scalar_product_opIddEEKNS_14CwiseNullaryOpINS0_18scalar_constant_opIdEEKNS3_IdLin1ELi1ELi0ELin1ELi1EEEEEKNS2_IKS4_Lin1ELi1ELb0EEEEENS_3MapINS3_IdLi1ELin1ELi1ELi1ELin1EEELi0ENS_6StrideILi0ELi0EEEEENS0_20generic_product_implISK_SP_NS_10DenseShapeESR_Li5EE3subEEEvRT_RKT0_RKT1_RKT2_RKNS0_10false_typeE
       2865  B30 003C1960 _ZN5Eigen8internal26outer_product_selector_runINS_5BlockINS2_INS_6MatrixIdLin1ELin1ELi0ELin1ELin1EEELin1ELin1ELb0EEELin1ELin1ELb0EEENS_13CwiseBinaryOpINS0_17scalar_product_opIddEEKNS_14CwiseNullaryOpINS0_18scalar_constant_opIdEEKNS3_IdLin1ELi1ELi0ELin1ELi1EEEEEKNS2_INS2_IS4_Lin1ELi1ELb1EEELin1ELi1ELb0EEEEENS_3MapINS3_IdLi1ELin1ELi1ELi1ELin1EEELi0ENS_6StrideILi0ELi0EEEEENS0_20generic_product_implISK_SP_NS_10DenseShapeESR_Li5EE3subEEEvRT_RKT0_RKT1_RKT2_RKNS0_10false_typeE
       2866  B31 003C1FC0 _ZN5Eigen8internal26outer_product_selector_runINS_5BlockINS2_INS_6MatrixIdLin1ELin1ELi0ELin1ELin1EEELin1ELin1ELb0EEELin1ELin1ELb0EEENS_13CwiseBinaryOpINS0_17scalar_product_opIddEEKNS_14CwiseNullaryOpINS0_18scalar_constant_opIdEEKNS3_IdLin1ELi1ELi0ELin1ELi1EEEEEKNS_3MapISD_Li0ENS_6StrideILi0ELi0EEEEEEENS_9TransposeIKNS2_IKS4_Lin1ELi1ELb0EEEEENS0_20generic_product_implISM_SR_NS_10DenseShapeEST_Li5EE3subEEEvRT_RKT0_RKT1_RKT2_RKNS0_10false_typeE
       2867  B32 003C2620 _ZN5Eigen8internal26outer_product_selector_runINS_5BlockINS2_INS_6MatrixIdLin1ELin1ELi0ELin1ELin1EEELin1ELin1ELb1EEELin1ELin1ELb0EEENS_13CwiseBinaryOpINS0_17scalar_product_opIddEEKNS_14CwiseNullaryOpINS0_18scalar_constant_opIdEEKNS3_IdLin1ELi1ELi0ELin1ELi1EEEEEKNS_3MapISD_Li0ENS_6StrideILi0ELi0EEEEEEENS_9TransposeIKNS2_INS2_IS4_Lin1ELi1ELb1EEELin1ELi1ELb0EEEEENS0_20generic_product_implISM_SR_NS_10DenseShapeEST_Li5EE3subEEEvRT_RKT0_RKT1_RKT2_RKNS0_10false_typeE
       2868  B33 003C2C80 _ZN5Eigen8internal26outer_product_selector_runINS_5BlockINS_3RefINS_6MatrixIdLin1ELin1ELi0ELin1ELin1EEELi0ENS_11OuterStrideILin1EEEEELin1ELin1ELb0EEENS2_INS2_IS8_Lin1ELi1ELb1EEELin1ELi1ELb0EEENS2_INS2_IS8_Li1ELin1ELb0EEELi1ELin1ELb0EEENS0_20generic_product_implISB_SD_NS_10DenseShapeESF_Li5EE3subEEEvRT_RKT0_RKT1_RKT2_RKNS0_10false_typeE
       2869  B34 003C3270 _ZN5Eigen8internal26outer_product_selector_runINS_5BlockINS_3RefINS_6MatrixIdLin1ELin1ELi1ELin1ELin1EEELi0ENS_11OuterStrideILin1EEEEELin1ELin1ELb0EEENS2_INS2_IS8_Lin1ELi1ELb0EEELin1ELi1ELb0EEENS2_INS2_IS8_Li1ELin1ELb1EEELi1ELin1ELb0EEENS0_20generic_product_implISB_SD_NS_10DenseShapeESF_Li5EE3subEEEvRT_RKT0_RKT1_RKT2_RKNS0_9true_typeE
       2870  B35 003C3860 _ZN5Eigen8internal26outer_product_selector_runINS_5BlockINS_6MatrixIdLin1ELin1ELi0ELin1ELin1EEELin1ELin1ELb0EEENS2_INS2_IS4_Lin1ELi1ELb1EEELin1ELi1ELb0EEENS2_INS2_IS4_Li1ELin1ELb0EEELi1ELin1ELb0EEENS0_20generic_product_implIS7_S9_NS_10DenseShapeESB_Li5EE3subEEEvRT_RKT0_RKT1_RKT2_RKNS0_10false_typeE
       2871  B36 003C3E50 _ZN5Eigen8internal26permutation_matrix_productINS_14CwiseNullaryOpINS0_18scalar_identity_opISt7complexIdEEENS_6MatrixIS5_Lin1ELin1ELi0ELin1ELin1EEEEELi1ELb0ENS_10DenseShapeEE3runIS8_NS_17PermutationMatrixILin1ELin1EiEEEEvRT_RKT0_RKS9_
       2872  B37 003C4030 _ZN5Eigen8internal26permutation_matrix_productINS_6MatrixIdLin1ELin1ELi0ELin1ELin1EEELi1ELb0ENS_10DenseShapeEE3runIS3_NS_17PermutationMatrixILin1ELin1EiEEEEvRT_RKT0_RKS3_
       2873  B38 003C4A60 _ZN5Eigen8internal26permutation_matrix_productINS_6MatrixIdLin1ELin1ELi1ELin1ELin1EEELi1ELb0ENS_10DenseShapeEE3runIS3_NS_17PermutationMatrixILin1ELin1EiEEEEvRT_RKT0_RKS3_
       2874  B39 003C56D0 _ZN5Eigen8internal26triangular_solver_selectorIKNS_5BlockIKNS_6MatrixISt7complexIdELin1ELin1ELi0ELin1ELin1EEELin1ELin1ELb0EEENS2_IS6_Lin1ELin1ELb0EEELi1ELi2ELi0ELin1EE3runERS9_RSA_
       2875  B3A 003C57D0 _ZN5Eigen8internal26triangular_solver_selectorIKNS_5BlockIKNS_6MatrixISt7complexIdELin1ELin1ELi0ELin1ELin1EEELin1ELin1ELb0EEENS2_IS6_Lin1ELin1ELb0EEELi1ELi5ELi0ELin1EE3runERS9_RSA_
       2876  B3B 003C58D0 _ZN5Eigen8internal26triangular_solver_selectorIKNS_5BlockIKNS_6MatrixIdLin1ELin1ELi0ELin1ELin1EEELin1ELin1ELb0EEENS2_INS3_IdLin1ELi1ELi0ELin1ELi1EEELin1ELi1ELb0EEELi1ELi2ELi0ELi1EE3runERS7_RS9_
       2877  B3C 003C5A10 _ZN5Eigen8internal26triangular_solver_selectorIKNS_5BlockIKNS_6MatrixIdLin1ELin1ELi0ELin1ELin1EEELin1ELin1ELb0EEENS2_IS4_Lin1ELin1ELb0EEELi1ELi2ELi0ELin1EE3runERS7_RS8_
       2878  B3D 003C5B10 _ZN5Eigen8internal26triangular_solver_selectorIKNS_5BlockIKNS_6MatrixIdLin1ELin1ELi0ELin1ELin1EEELin1ELin1ELb0EEENS2_IS4_Lin1ELin1ELb0EEELi1ELi5ELi0ELin1EE3runERS7_RS8_
       2879  B3E 003C5C10 _ZN5Eigen8internal26triangular_solver_selectorIKNS_6MatrixIdLin1ELin1ELi0ELin1ELin1EEES3_Li1ELi2ELi0ELin1EE3runERS4_RS3_
       2880  B3F 003C5D00 _ZN5Eigen8internal26triangular_solver_selectorIKNS_6MatrixIdLin1ELin1ELi0ELin1ELin1EEES3_Li1ELi5ELi0ELin1EE3runERS4_RS3_
       2881  B40 003C5DF0 _ZN5Eigen8internal26triangular_solver_selectorIKNS_6MatrixIdLin1ELin1ELi1ELin1ELin1EEES3_Li1ELi2ELi0ELin1EE3runERS4_RS3_
       2882  B41 003C5EE0 _ZN5Eigen8internal26triangular_solver_selectorIKNS_6MatrixIdLin1ELin1ELi1ELin1ELin1EEES3_Li1ELi5ELi0ELin1EE3runERS4_RS3_
       2883  B42 003C5FD0 _ZN5Eigen8internal26triangular_solver_selectorINS_3RefINS_6MatrixIdLin1ELin1ELi0ELin1ELin1EEELi0ENS_11OuterStrideILin1EEEEES7_Li1ELi5ELi0ELin1EE3runERKS7_RS7_
       2884  B43 003C60C0 _ZN5Eigen8internal26triangular_solver_selectorINS_3RefINS_6MatrixIdLin1ELin1ELi1ELin1ELin1EEELi0ENS_11OuterStrideILin1EEEEES7_Li1ELi5ELi0ELin1EE3runERKS7_RS7_
       2885  B44 003C61B0 _ZN5Eigen8internal26tridiagonalization_inplaceINS_6MatrixIdLin1ELin1ELi0ELin1ELin1EEENS2_IdLin1ELi1ELi0ELin1ELi1EEEEEvRT_RT0_
       2886  B45 003C7180 _ZN5Eigen8internal27computeFromTridiagonal_implINS_6MatrixIdLin1ELin1ELi0ELin1ELin1EEENS2_IdLin1ELi1ELi0ELin1ELi1EEES4_EENS_15ComputationInfoERT0_RT1_xbRT_
       2887  B46 003C8280 _ZN5Eigen8internal27queryCacheSizes_intel_codesERiS1_S1_
       2888  B47 003C8960 _ZN5Eigen8internal29general_matrix_matrix_productIxSt7complexIdELi0ELb0ES3_Li0ELb0ELi0ELi1EE3runExxxPKS3_xS6_xPS3_xxS3_RNS0_15level3_blockingIS3_S3_EEPNS0_16GemmParallelInfoIxEE
       2889  B48 003C97B0 _ZN5Eigen8internal29general_matrix_matrix_productIxdLi0ELb0EdLi0ELb0ELi0ELi1EE3runExxxPKdxS4_xPdxxdRNS0_15level3_blockingIddEEPNS0_16GemmParallelInfoIxEE
       2890  B49 003CA560 _ZN5Eigen8internal29general_matrix_matrix_productIxdLi1ELb0EdLi0ELb0ELi0ELi1EE3runExxxPKdxS4_xPdxxdRNS0_15level3_blockingIddEEPNS0_16GemmParallelInfoIxEE
       2891  B4A 003CB320 _ZN5Eigen8internal29general_matrix_matrix_productIxdLi1ELb0EdLi1ELb0ELi0ELi1EE3runExxxPKdxS4_xPdxxdRNS0_15level3_blockingIddEEPNS0_16GemmParallelInfoIxEE
       2892  B4B 003CC100 _ZN5Eigen8internal29general_matrix_vector_productIxSt7complexIdENS0_22const_blas_data_mapperIS3_xLi0EEELi0ELb0ES3_NS4_IS3_xLi1EEELb0ELi0EE3runExxRKS5_RKS6_PS3_xS3_
       2893  B4C 003CCCD0 _ZN5Eigen8internal29general_matrix_vector_productIxSt7complexIdENS0_22const_blas_data_mapperIS3_xLi1EEELi1ELb0ES3_NS4_IS3_xLi0EEELb0ELi0EE3runExxRKS5_RKS6_PS3_xS3_
       2894  B4D 003CE1B0 _ZN5Eigen8internal29general_matrix_vector_productIxdNS0_22const_blas_data_mapperIdxLi0EEELi0ELb0EdNS2_IdxLi1EEELb0ELi0EE3runExxRKS3_RKS4_Pdxd
       2895  B4E 003CEA00 _ZN5Eigen8internal29general_matrix_vector_productIxdNS0_22const_blas_data_mapperIdxLi0EEELi0ELb0EdS3_Lb0ELi0EE3runExxRKS3_S6_Pdxd
       2896  B4F 003CF170 _ZN5Eigen8internal29general_matrix_vector_productIxdNS0_22const_blas_data_mapperIdxLi1EEELi1ELb0EdNS2_IdxLi0EEELb0ELi0EE3runExxRKS3_RKS4_Pdxd
       2897  B50 003CFBD0 _ZN5Eigen8internal29general_matrix_vector_productIxdNS0_22const_blas_data_mapperIdxLi1EEELi1ELb0EdS3_Lb0ELi1EE3runExxRKS3_S6_Pdxd
       2898  B51 003D0690 _ZN5Eigen8internal31call_triangular_assignment_loopILi1ELb1ENS_6MatrixIdLin1ELin1ELi0ELin1ELin1EEENS_14TriangularViewIKS3_Lj1EEENS0_9assign_opIddEEEEvRT1_RKT2_RKT3_
       2899  B52 003D0A40 _ZN5Eigen8internal31unaligned_dense_assignment_loopILb0EE3runINS0_31generic_dense_assignment_kernelINS0_9evaluatorINS_6MatrixIdLin1ELi1ELi0ELin1ELi1EEEEENS5_INS_16PartialReduxExprINS6_IdLin1ELin1ELi0ELin1ELin1EEENS0_10member_sumIddEELi1EEEEENS0_9assign_opIddEELi0EEEEEvRT_xx
       2900  B53 003D0C70 _ZN5Eigen8internal31unaligned_dense_assignment_loopILb0EE3runINS0_31generic_dense_assignment_kernelINS0_9evaluatorINS_6MatrixIdLin1ELi1ELi0ELin1ELi1EEEEENS5_INS_5BlockIKNS_16PartialReduxExprINS6_IdLin1ELin1ELi0ELin1ELin1EEENS0_10member_sumIddEELi1EEELin1ELi1ELb0EEEEENS0_9assign_opIddEELi0EEEEEvRT_xx
       2901  B54 003D0EA0 _ZN5Eigen8internal32product_triangular_matrix_matrixIdxLi1ELb1ELi0ELb0ELi0ELb0ELi0ELi1ELi0EE3runExxxPKdxS4_xPdxxRS3_RNS0_15level3_blockingIddEE
       2902  B55 003D18E0 _ZN5Eigen8internal32product_triangular_matrix_matrixIdxLi2ELb1ELi1ELb0ELi0ELb0ELi0ELi1ELi0EE3runExxxPKdxS4_xPdxxRS3_RNS0_15level3_blockingIddEE
       2903  B56 003D23D0 _ZN5Eigen8internal32product_triangular_matrix_matrixIdxLi5ELb1ELi0ELb0ELi0ELb0ELi0ELi1ELi0EE3runExxxPKdxS4_xPdxxRS3_RNS0_15level3_blockingIddEE
       2904  B57 003D2FE0 _ZN5Eigen8internal32product_triangular_matrix_matrixIdxLi6ELb1ELi1ELb0ELi0ELb0ELi0ELi1ELi0EE3runExxxPKdxS4_xPdxxRS3_RNS0_15level3_blockingIddEE
       2905  B58 003D3A90 _ZN5Eigen8internal32triangular_matrix_vector_productIxLi6EdLb0EdLb0ELi1ELi0EE3runExxPKdxS4_xPdxRS3_
       2906  B59 003D4080 _ZN5Eigen8internal33selfadjoint_matrix_vector_productIdxLi0ELi1ELb0ELb0ELi0EE3runExPKdxS4_Pdd
       2907  B5A 003D45E0 _ZN5Eigen8internal33selfadjoint_rank2_update_selectorIdxNS_5BlockINS2_INS_6MatrixIdLin1ELin1ELi0ELin1ELin1EEELin1ELi1ELb1EEELin1ELi1ELb0EEENS2_INS3_IdLin1ELi1ELi0ELin1ELi1EEELin1ELi1ELb0EEELi1EE3runEPdxRKS6_RKS8_RKd
       2908  B5B 003D4D40 _ZN5Eigen8internal35apply_block_householder_on_the_leftINS_5BlockINS_6MatrixIdLi4ELi4ELi0ELi4ELi4EEELin1ELin1ELb0EEES5_NS_11VectorBlockIKNS3_IdLi3ELi1ELi0ELi3ELi1EEELin1EEEEEvRT_RKT0_RKT1_b
       2909  B5C 003D51A0 _ZN5Eigen8internal35apply_block_householder_on_the_leftINS_5BlockINS_6MatrixIdLin1ELin1ELi0ELin1ELin1EEELin1ELin1ELb0EEES5_NS_11VectorBlockIKNS3_IdLin1ELi1ELi0ELin1ELi1EEELin1EEEEEvRT_RKT0_RKT1_b
       2910  B5D 003D5540 _ZN5Eigen8internal35tridiagonalization_inplace_selectorINS_6MatrixIdLin1ELin1ELi0ELin1ELin1EEELin1ELb0EE3runINS2_IdLin1ELi1ELi0ELin1ELi1EEES6_EEvRS3_RT_RT0_RS6_b
       2911  B5E 003D58D0 _ZN5Eigen8internal37evaluateProductBlockingSizesHeuristicISt7complexIdES3_Li1ExEEvRT2_S5_S5_S4_
       2912  B5F 003D5D90 _ZN5Eigen8internal37evaluateProductBlockingSizesHeuristicISt7complexIdES3_Li4ExEEvRT2_S5_S5_S4_
       2913  B60 003D6250 _ZN5Eigen8internal37evaluateProductBlockingSizesHeuristicIddLi1ExEEvRT2_S3_S3_S2_
       2914  B61 003D6710 _ZN5Eigen8internal37evaluateProductBlockingSizesHeuristicIddLi4ExEEvRT2_S3_S3_S2_
       2915  B62 003D6BD0 _ZN5Eigen8internal40make_block_householder_triangular_factorINS_6MatrixIdLin1ELin1ELi1ELin1ELin1EEENS_5BlockINS2_IdLi4ELi4ELi0ELi4ELi4EEELin1ELin1ELb0EEENS4_IKNS2_IdLi3ELi1ELi0ELi3ELi1EEELin1ELi1ELb0EEEEEvRT_RKT0_RKT1_
       2916  B63 003D77B0 _ZN5Eigen8internal40make_block_householder_triangular_factorINS_6MatrixIdLin1ELin1ELi1ELin1ELin1EEENS_5BlockINS2_IdLi4ELi4ELi0ELi4ELi4EEELin1ELin1ELb0EEENS_11VectorBlockIKNS2_IdLi3ELi1ELi0ELi3ELi1EEELin1EEEEEvRT_RKT0_RKT1_
       2917  B64 003D8390 _ZN5Eigen8internal40make_block_householder_triangular_factorINS_6MatrixIdLin1ELin1ELi1ELin1ELin1EEENS_5BlockINS2_IdLin1ELin1ELi0ELin1ELin1EEELin1ELin1ELb0EEENS4_IKNS2_IdLin1ELi1ELi0ELin1ELi1EEELin1ELi1ELb0EEEEEvRT_RKT0_RKT1_
       2918  B65 003D8F50 _ZN5Eigen8internal40make_block_householder_triangular_factorINS_6MatrixIdLin1ELin1ELi1ELin1ELin1EEENS_5BlockINS2_IdLin1ELin1ELi0ELin1ELin1EEELin1ELin1ELb0EEENS_11VectorBlockIKNS2_IdLin1ELi1ELi0ELin1ELi1EEELin1EEEEEvRT_RKT0_RKT1_
       2919  B66 003D9B10 _ZN5Eigen8internal42call_restricted_packet_assignment_no_aliasINS_6MatrixISt7complexIdELin1ELin1ELi0ELin1ELin1EEENS_7ProductINS6_INS_3MapIS5_Li0ENS_6StrideILi0ELi0EEEEENS_15DiagonalWrapperIKNS2_IS4_Lin1ELi1ELi0ELin1ELi1EEEEELi1EEESA_Li1EEENS0_9assign_opIS4_S4_EEEEvRT_RKT0_RKT1_
       2920  B67 003D9D30 _ZN5Eigen8internal42call_restricted_packet_assignment_no_aliasINS_6MatrixISt7complexIdELin1ELin1ELi0ELin1ELin1EEENS_7ProductINS6_INS_3MapIS5_Li16ENS_6StrideILi0ELi0EEEEENS_15DiagonalWrapperIKNS2_IS4_Lin1ELi1ELi0ELin1ELi1EEEEELi1EEESA_Li1EEENS0_9assign_opIS4_S4_EEEEvRT_RKT0_RKT1_
       2921  B68 003D9F50 _ZN5Eigen8internal42call_restricted_packet_assignment_no_aliasINS_6MatrixISt7complexIdELin1ELin1ELi0ELin1ELin1EEENS_7ProductINS_5BlockIKS5_Lin1ELin1ELb0EEENS7_IS5_Lin1ELin1ELb0EEELi1EEENS0_9assign_opIS4_S4_EEEEvRT_RKT0_RKT1_
       2922  B69 003DA240 _ZN5Eigen8internal42call_restricted_packet_assignment_no_aliasINS_6MatrixIdLin1ELin1ELi0ELin1ELin1EEENS_7ProductINS2_IdLin1ELin1ELi1ELin1ELin1EEES5_Li1EEENS0_9assign_opIddEEEEvRT_RKT0_RKT1_
       2923  B6A 003DA3A0 _ZN5Eigen8internal42call_restricted_packet_assignment_no_aliasINS_6MatrixIdLin1ELin1ELi0ELin1ELin1EEENS_7ProductINS4_INS_3MapINS2_IdLin1ELin1ELi1ELin1ELin1EEELi16ENS_6StrideILi0ELi0EEEEENS_15DiagonalWrapperIKNS2_IdLin1ELi1ELi0ELin1ELi1EEEEELi1EEES9_Li1EEENS0_9assign_opIddEEEEvRT_RKT0_RKT1_
       2924  B6B 003DA560 _ZN5Eigen8internal42call_restricted_packet_assignment_no_aliasINS_6MatrixIdLin1ELin1ELi0ELin1ELin1EEENS_7ProductINS4_INS_3MapINS2_IdLin1ELin1ELi1ELin1ELin1EEELi16ENS_6StrideILi0ELi0EEEEENS_15DiagonalWrapperIKNS_13MatrixWrapperINS_5ArrayIdLin1ELi1ELi0ELin1ELi1EEEEEEELi1EEES9_Li1EEENS0_9assign_opIddEEEEvRT_RKT0_RKT1_
       2925  B6C 003DA720 _ZN5Eigen8internal42call_restricted_packet_assignment_no_aliasINS_6MatrixIdLin1ELin1ELi0ELin1ELin1EEENS_7ProductINS_3MapINS2_IdLin1ELin1ELi1ELin1ELin1EEELi0ENS_6StrideILi0ELi0EEEEES3_Li1EEENS0_9assign_opIddEEEEvRT_RKT0_RKT1_
       2926  B6D 003DA890 _ZN5Eigen8internal42call_restricted_packet_assignment_no_aliasINS_6MatrixIdLin1ELin1ELi0ELin1ELin1EEENS_7ProductINS_3MapINS2_IdLin1ELin1ELi1ELin1ELin1EEELi0ENS_6StrideILi0ELi0EEEEES9_Li1EEENS0_9assign_opIddEEEEvRT_RKT0_RKT1_
       2927  B6E 003DAA20 _ZN5Eigen8internal42call_restricted_packet_assignment_no_aliasINS_6MatrixIdLin1ELin1ELi0ELin1ELin1EEENS_7ProductINS_5BlockIKS3_Lin1ELin1ELb0EEENS5_IS3_Lin1ELin1ELb0EEELi1EEENS0_9assign_opIddEEEEvRT_RKT0_RKT1_
       2928  B6F 003DABF0 _ZN5Eigen8internal42call_restricted_packet_assignment_no_aliasINS_6MatrixIdLin1ELin1ELi0ELin1ELin1EEENS_7ProductIS3_S3_Li1EEENS0_9assign_opIddEEEEvRT_RKT0_RKT1_
       2929  B70 003DAD50 _ZN5Eigen8internal42call_restricted_packet_assignment_no_aliasINS_6MatrixIdLin1ELin1ELi1ELin1ELin1EEENS_7ProductIS3_S3_Li1EEENS0_9assign_opIddEEEEvRT_RKT0_RKT1_
       2930  B71 003DAEB0 _ZN5Eigen8internal9evaluatorINS_13ReturnByValueINS_28MatrixExponentialReturnValueINS_13CwiseBinaryOpINS0_17scalar_product_opIddEEKNS_9TransposeINS_3MapINS_6MatrixIdLin1ELin1ELi0ELin1ELin1EEELi0ENS_6StrideILi0ELi0EEEEEEEKNS_14CwiseNullaryOpINS0_18scalar_constant_opIdEEKNS9_IdLin1ELin1ELi1ELin1ELin1EEEEEEEEEEEEC2ERKSP_
       2931  B72 003DAFF0 _ZN5Eigen9FullPivLUINS_6MatrixISt7complexIdELin1ELin1ELi0ELin1ELin1EEEE14computeInPlaceEv
       2932  B73 003DBDD0 _ZN5Eigen9FullPivLUINS_6MatrixISt7complexIdELin1ELin1ELi0ELin1ELin1EEEEC2ERKS5_
       2933  B74 003DBE80 _ZN5Eigen9FullPivLUINS_6MatrixISt7complexIdELin1ELin1ELi0ELin1ELin1EEEEC2INS_3MapIS4_Li16ENS_6StrideILi0ELi0EEEEEEERNS_9EigenBaseIT_EE
       2934  B75 003DC030 _ZN5Eigen9FullPivLUINS_6MatrixISt7complexIdELin1ELin1ELi0ELin1ELin1EEEEC2IS4_EERNS_9EigenBaseIT_EE
       2935  B76 003DC1B0 _ZN5Eigen9FullPivLUINS_6MatrixISt7complexIdELin1ELin1ELi0ELin1ELin1EEEED2Ev
       2936  B77 003DC1F0 _ZN5Eigen9FullPivLUINS_6MatrixIdLin1ELin1ELi0ELin1ELin1EEEE14computeInPlaceEv
       2937  B78 003DDB10 _ZN5Eigen9FullPivLUINS_6MatrixIdLin1ELin1ELi0ELin1ELin1EEEEC2ERKS3_
       2938  B79 003DDBC0 _ZN5Eigen9FullPivLUINS_6MatrixIdLin1ELin1ELi0ELin1ELin1EEEEC2IS2_EERNS_9EigenBaseIT_EE
       2939  B7A 003DDD40 _ZN5Eigen9FullPivLUINS_6MatrixIdLin1ELin1ELi0ELin1ELin1EEEED2Ev
       2940  B7B 003DDD80 _ZN5Eigen9RealSchurINS_6MatrixIdLi4ELi4ELi0ELi4ELi4EEEE15splitOffTwoRowsExbRKd
       2941  B7C 003DE350 _ZN5Eigen9RealSchurINS_6MatrixIdLi4ELi4ELi0ELi4ELi4EEEE20performFrancisQRStepExxxbRKNS1_IdLi3ELi1ELi0ELi3ELi1EEEPd
       2942  B7D 003DED90 _ZN5Eigen9RealSchurINS_6MatrixIdLi4ELi4ELi0ELi4ELi4EEEE21computeFromHessenbergINS_8internal40HessenbergDecompositionMatrixHReturnTypeIS2_EES2_EERS3_RKT_RKT0_b
       2943  B7E 003DF610 _ZN5Eigen9RealSchurINS_6MatrixIdLi4ELi4ELi0ELi4ELi4EEEE7computeIS2_EERS3_RKNS_9EigenBaseIT_EEb
       2944  B7F 003DF910 _ZN5Eigen9RealSchurINS_6MatrixIdLin1ELin1ELi0ELin1ELin1EEEE15splitOffTwoRowsExbRKd
       2945  B80 003E0260 _ZN5Eigen9RealSchurINS_6MatrixIdLin1ELin1ELi0ELin1ELin1EEEE20performFrancisQRStepExxxbRKNS1_IdLi3ELi1ELi0ELi3ELi1EEEPd
       2946  B81 003E0BD0 _ZN5Eigen9RealSchurINS_6MatrixIdLin1ELin1ELi0ELin1ELin1EEEE21computeFromHessenbergINS_8internal40HessenbergDecompositionMatrixHReturnTypeIS2_EES2_EERS3_RKT_RKT0_b
       2947  B82 003E1580 _ZN5Eigen9RealSchurINS_6MatrixIdLin1ELin1ELi0ELin1ELin1EEEE7computeIS2_EERS3_RKNS_9EigenBaseIT_EEb
       2948  B83 003E1AB0 _ZN5Eigen9RealSchurINS_6MatrixIdLin1ELin1ELi0ELin1ELin1EEEEC2Ex
       2949  B84 003E1C40 _ZN5Eigen9RealSchurINS_6MatrixIdLin1ELin1ELi0ELin1ELin1EEEED2Ev
       2950  B85 003E1C90 _ZN5Eigen9TransposeIKNS_7ProductINS0_INS_6MatrixIdLin1ELi1ELi0ELin1ELi1EEEEENS_7InverseINS_9FullPivLUINS2_IdLin1ELin1ELi0ELin1ELin1EEEEEEELi0EEEED2Ev
       2951  B86 003E1CD0 _ZN5EigenlsINS_3MapINS_6MatrixIdLin1ELi1ELi0ELin1ELi1EEELi16ENS_6StrideILi0ELi0EEEEEEERSoS7_RKNS_9DenseBaseIT_EE
       2952  B87 003E2320 _ZN5EigenlsINS_6MatrixIdLin1ELi1ELi0ELin1ELi1EEEEERSoS3_RKNS_9DenseBaseIT_EE
       2953  B88 003E2680 _ZN5EigenlsINS_6MatrixIdLin1ELin1ELi0ELin1ELin1EEEEERSoS3_RKNS_9DenseBaseIT_EE
       2954  B89 003E29E0 _ZN5MTree10findNodeIDEiP4NodeS1_
       2955  B8A 003E2A60 _ZN5MTree10getNumTaxaEP4NodeS1_
       2956  B8B 003E2AE0 _ZN5MTree10insertTaxaERSt6vectorINSt7__cxx1112basic_stringIcSt11char_traitsIcESaIcEEESaIS6_EES9_
       2957  B8C 003E2F90 _ZN5MTree10printNexusENSt7__cxx1112basic_stringIcSt11char_traitsIcESaIcEEEiS5_
       2958  B8D 003E3470 _ZN5MTree10removeNodeEP4NodeS1_
       2959  B8E 003E3500 _ZN5MTree10removeTaxaERSt6vectorINSt7__cxx1112basic_stringIcSt11char_traitsIcESaIcEEESaIS6_EE
       2960  B8F 003E3960 _ZN5MTree10treeLengthEP4NodeS1_
       2961  B90 003E39F0 _ZN5MTree11getBranchIDB5cxx11EP4NodeS1_
       2962  B91 003E3F60 _ZN5MTree11getBranchesERSt6vectorIP4NodeSaIS2_EES5_RS0_IiSaIiEES2_S2_b
       2963  B92 003E4890 _ZN5MTree11getBranchesERSt6vectorIP4NodeSaIS2_EES5_S2_S2_b
       2964  B93 003E4FE0 _ZN5MTree11getBranchesERSt6vectorISt4pairIP4NodeS3_ESaIS4_EES3_S3_b
       2965  B94 003E52A0 _ZN5MTree11getBranchesEiRSt6vectorIP4NodeSaIS2_EES5_S2_S2_
       2966  B95 003E56D0 _ZN5MTree11getNodeNameERSt3setINSt7__cxx1112basic_stringIcSt11char_traitsIcESaIcEEESt4lessIS6_ESaIS6_EEP4NodeSD_
       2967  B96 003E5760 _ZN5MTree11getTaxaNameERSt6vectorINSt7__cxx1112basic_stringIcSt11char_traitsIcESaIcEEESaIS6_EEP4NodeSB_
       2968  B97 003E5810 _ZN5MTree11scaleLengthEdbP4NodeS1_
       2969  B98 003E5920 _ZN5MTree11treeLengthsERSt6vectorIdSaIdEEP4NodeS5_
       2970  B99 003E5930 _ZN5MTree12assignLeafIDEP4NodeS1_
       2971  B9A 003E5A40 _ZN5MTree12findLeafNameERNSt7__cxx1112basic_stringIcSt11char_traitsIcESaIcEEEP4NodeS8_
       2972  B9B 003E5AF0 _ZN5MTree12findNodeNameERNSt7__cxx1112basic_stringIcSt11char_traitsIcESaIcEEEP4NodeS8_
       2973  B9C 003E5B90 _ZN5MTree12printSubTreeERSoRSt6vectorIP4NodeSaIS3_EE
       2974  B9D 003E5BF0 _ZN5MTree12printSubTreeERSoRSt6vectorIP4NodeSaIS3_EES3_S3_
       2975  B9E 003E5E50 _ZN5MTree12readNextCharERSic
       2976  B9F 003E60D0 _ZN5MTree13computeRFDistEPKcRSt6vectorIdSaIdEEi
       2977  BA0 003E6340 _ZN5MTree13computeRFDistERSiRSt6vectorIdSaIdEEib
       2978  BA1 003E7800 _ZN5MTree13convertSplitsER10SplitGraphP5SplitPSt6vectorIP4NodeSaIS6_EES6_S6_
       2979  BA2 003E7BB0 _ZN5MTree13convertSplitsER10SplitGraphP5SplitPSt6vectorISt4pairIP4NodeS7_ESaIS8_EES7_S7_
       2980  BA3 003E7F70 _ZN5MTree13convertSplitsER10SplitGraphPSt6vectorIP4NodeSaIS4_EES4_S4_
       2981  BA4 003E8050 _ZN5MTree13convertSplitsERSt6vectorINSt7__cxx1112basic_stringIcSt11char_traitsIcESaIcEEESaIS6_EER10SplitGraphPS0_IP4NodeSaISD_EESD_SD_
       2982  BA5 003E8240 _ZN5MTree13convertToTreeER10SplitGraph
       2983  BA6 003E9210 _ZN5MTree13equalTopologyEPS_
       2984  BA7 003E95B0 _ZN5MTree13findNodeNamesERSt13unordered_setINSt7__cxx1112basic_stringIcSt11char_traitsIcESaIcEEESt4hashIS6_ESt8equal_toIS6_ESaIS6_EERSt4pairIP4NodeP8NeighborESG_SG_
       2985  BA8 003E9A00 _ZN5MTree13isBifurcatingEP4NodeS1_
       2986  BA9 003E9AB0 _ZN5MTree13isInnerBranchEP4NodeS1_
       2987  BAA 003E9B10 _ZN5MTree14buildNodeSplitEP5SplitP4NodeS3_
       2988  BAB 003E9CD0 _ZN5MTree14checkValidTreeERbP4NodeS2_
       2989  BAC 003E9DD0 _ZN5MTree14containsSplitsER10SplitGraph
       2990  BAD 003E9E80 _ZN5MTree14findFirstTaxonEP4NodeS1_
       2991  BAE 003E9F20 _ZN5MTree14getOrderedTaxaERSt6vectorIP4NodeSaIS2_EES2_S2_
       2992  BAF 003E9FC0 _ZN5MTree14initializeTreeEP4NodeS1_
       2993  BB0 003EA070 _ZN5MTree15read_TreeStringENSt7__cxx1112basic_stringIcSt11char_traitsIcESaIcEEEb
       2994  BB1 003EA190 _ZN5MTree15reportInputInfoB5cxx11Ev
       2995  BB2 003EA5F0 _ZN5MTree16findFarthestLeafEP4NodeS1_
       2996  BB3 003EA6C0 _ZN5MTree16getBranchLengthsERSt6vectorIS0_IdSaIdEESaIS2_EEP4NodeS7_
       2997  BB4 003EA7F0 _ZN5MTree16getInnerBranchesERSt3mapIiSt4pairIP4NodeS3_ESt4lessIiESaIS1_IKiS4_EEES3_S3_
       2998  BB5 003EA930 _ZN5MTree16getInnerBranchesERSt6vectorISt4pairIP4NodeS3_ESaIS4_EES3_S3_b
       2999  BB6 003EAC30 _ZN5MTree16getInternalNodesERSt6vectorIP4NodeSaIS2_EES2_S2_
       3000  BB7 003EADA0 _ZN5MTree16setBranchLengthsERSt6vectorIS0_IdSaIdEESaIS2_EEP4NodeS7_
       3001  BB8 003EAF10 _ZN5MTree17convertToUnrootedEv
       3002  BB9 003EB1E0 _ZN5MTree17countLongBranchesEP4NodeS1_d
       3003  BBA 003EB270 _ZN5MTree17countZeroBranchesEP4NodeS1_d
       3004  BBB 003EB300 _ZN5MTree17parseBranchLengthERNSt7__cxx1112basic_stringIcSt11char_traitsIcESaIcEEERSt6vectorIdSaIdEE
       3005  BBC 003EB990 _ZN5MTree17printBranchLengthERSoibP8Neighbor
       3006  BBD 003EBC50 _ZN5MTree17scaleCladeSupportEdbP4NodeS1_
       3007  BBE 003EBE90 _ZN5MTree18assignLeafNameByIDEP4NodeS1_
       3008  BBF 003EBFE0 _ZN5MTree18generateNNIBrachesERSt6vectorIP4NodeSaIS2_EES5_P10SplitGraphS2_S2_
       3009  BC0 003EC440 _ZN5MTree18getNonCherryLeavesERSt6vectorIP4NodeSaIS2_EES5_S2_S2_
       3010  BC1 003EC6B0 _ZN5MTree18initializeSplitMapEP5SplitP4NodeS3_
       3011  BC2 003EC800 _ZN5MTree18printBranchLengthsERSoP4NodeS2_
       3012  BC3 003EC980 _ZN5MTree18setExtendedFigCharEv
       3013  BC4 003EC9A0 _ZN5MTree18treeLengthInternalEdP4NodeS1_
       3014  BC5 003ECAC0 _ZN5MTree19extractQuadSubtreesERSt6vectorIP5SplitSaIS2_EERS0_ISt4pairIP4NodeS8_ESaIS9_EES8_S8_
       3015  BC6 003EF0F0 _ZN5MTree19getPreOrderBranchesERSt6vectorIP4NodeSaIS2_EES5_S2_S2_
       3016  BC7 003EF420 _ZN5MTree20collapseZeroBranchesEP4NodeS1_d
       3017  BC8 003EF5E0 _ZN5MTree20getAllNodesInSubtreeEP4NodeS1_RSt6vectorIS1_SaIS1_EE
       3018  BC9 003EF7D0 _ZN5MTree20getUnorderedTaxaNameERSt6vectorINSt7__cxx1112basic_stringIcSt11char_traitsIcESaIcEEESaIS6_EEP4NodeSB_
       3019  BCA 003EF8E0 _ZN5MTree20reportDisagreedTreesERSt6vectorINSt7__cxx1112basic_stringIcSt11char_traitsIcESaIcEEESaIS6_EER8MTreeSetR5Split
       3020  BCB 003EFA10 _ZN5MTree21resolveMultifurcationEv
       3021  BCC 003EFE20 _ZN5MTree21transformBranchLenRAXEdP4NodeS1_
       3022  BCD 003EFEF0 _ZN5MTree22createBootstrapSupportERSt6vectorINSt7__cxx1112basic_stringIcSt11char_traitsIcESaIcEEESaIS6_EER8MTreeSetR11SplitIntMapPcP4NodeSG_
       3023  BCE 003F07F0 _ZN5MTree22getMultifurcatingNodesERSt6vectorIP4NodeSaIS2_EES2_S2_
       3024  BCF 003F0990 _ZN5MTree22writeInternalNodeNamesERNSt7__cxx1112basic_stringIcSt11char_traitsIcESaIcEEE
       3025  BD0 003F0C00 _ZN5MTree23getMapOfTaxonNameToNodeEP4NodeS1_RSt3mapINSt7__cxx1112basic_stringIcSt11char_traitsIcESaIcEEES1_St4lessIS8_ESaISt4pairIKS8_S1_EEE
       3026  BD1 003F0C90 _ZN5MTree24collapseInternalBranchesEP4NodeS1_d
       3027  BD2 003F0E60 _ZN5MTree24parseKeyValueFromCommentERNSt7__cxx1112basic_stringIcSt11char_traitsIcESaIcEEEP4NodeS8_
       3028  BD3 003F19D0 _ZN5MTree25countZeroInternalBranchesEP4NodeS1_d
       3029  BD4 003F1A80 _ZN5MTree25extractBifurcatingSubTreeEP4NodeS1_
       3030  BD5 003F1C90 _ZN5MTree27getSurroundingInnerBranchesEP4NodeS1_iRSt3mapIiSt4pairIS1_S1_ESt4lessIiESaIS3_IKiS4_EEE
       3031  BD6 003F1E00 _ZN5MTree4initEPKcRb
       3032  BD7 003F1EB0 _ZN5MTree4initERS_
       3033  BD8 003F1F00 _ZN5MTree7getTaxaER5SplitP4NodeS3_
       3034  BD9 003F1F90 _ZN5MTree7getTaxaERSt6vectorIP4NodeSaIS2_EES2_S2_
       3035  BDA 003F20F0 _ZN5MTree7newNodeEiPKc
       3036  BDB 003F2140 _ZN5MTree7newNodeEii
       3037  BDC 009503A8 _ZN5MTree8ANTT_MUTB5cxx11E
       3038  BDD 003F2190 _ZN5MTree8calcDistEP4NodedRPdS1_S1_
       3039  BDE 003F2280 _ZN5MTree8calcDistEPc
       3040  BDF 003F2640 _ZN5MTree8calcDistERPdP4NodeS3_
       3041  BE0 003F26E0 _ZN5MTree8copyTreeEPS_
       3042  BE1 003F2800 _ZN5MTree8copyTreeEPS_RNSt7__cxx1112basic_stringIcSt11char_traitsIcESaIcEEE
       3043  BE2 003F2A90 _ZN5MTree8copyTreeEPS_RNSt7__cxx1112basic_stringIcSt11char_traitsIcESaIcEEERdP4NodeSA_
       3044  BE3 003F3050 _ZN5MTree8drawTreeERSoid
       3045  BE4 003F31E0 _ZN5MTree8freeNodeEP4NodeS1_
       3046  BE5 003F3270 _ZN5MTree8getSplitEP4NodeS1_
       3047  BE6 003F3290 _ZN5MTree8readTreeEPKcRbi
       3048  BE7 003F3A80 _ZN5MTree8readTreeERSiRb
       3049  BE8 003F41F0 _ZN5MTree8sortTaxaEP4NodeS1_
       3050  BE9 003F4400 _ZN5MTree9_getSplitEP4NodeS1_
       3051  BEA 003F4480 _ZN5MTree9assignIDsERSt6vectorINSt7__cxx1112basic_stringIcSt11char_traitsIcESaIcEEESaIS6_EE
       3052  BEB 003F4C20 _ZN5MTree9drawTree2ERSoidRSt6vectorIiSaIiEEdP4NodeS6_
       3053  BEC 003F5870 _ZN5MTree9getSplitsER10SplitGraphP4NodeS3_
       3054  BED 003F5A20 _ZN5MTree9getTaxaIDERSt6vectorIiSaIiEEP4NodeS5_
       3055  BEE 003F5B90 _ZN5MTree9isABranchEP4NodeS1_
       3056  BEF 003F5BD0 _ZN5MTree9parseFileERSiRcRP4NodeRSt6vectorIdSaIdEE
       3057  BF0 003F6940 _ZN5MTree9printTaxaEPKc
       3058  BF1 003F6BA0 _ZN5MTree9printTaxaERSoP4NodeS2_
       3059  BF2 003F6C80 _ZN5MTree9printTaxaERSoRSt6vectorIP4NodeSaIS3_EE
       3060  BF3 003F6D40 _ZN5MTree9printTreeEPKci
       3061  BF4 003F6FC0 _ZN5MTree9printTreeERSoi
       3062  BF5 003F7150 _ZN5MTree9printTreeERSoiP4NodeS2_
       3063  BF6 003F7860 _ZN5MTree9setParamsEP6Params
       3064  BF7 003F7870 _ZN5MTree9treeDepthEP4NodeS1_
       3065  BF8 003F7910 _ZN5MTreeC1EPKcRb
       3066  BF9 003F7AA0 _ZN5MTreeC1ERNSt7__cxx1112basic_stringIcSt11char_traitsIcESaIcEEERSt6vectorIS5_SaIS5_EEb
       3067  BFA 003F7CA0 _ZN5MTreeC1ERNSt7__cxx1112basic_stringIcSt11char_traitsIcESaIcEEEb
       3068  BFB 003F7E90 _ZN5MTreeC1ERS_
       3069  BFC 003F7FC0 _ZN5MTreeC1Ev
       3070  BFD 003F7910 _ZN5MTreeC2EPKcRb
       3071  BFE 003F7AA0 _ZN5MTreeC2ERNSt7__cxx1112basic_stringIcSt11char_traitsIcESaIcEEERSt6vectorIS5_SaIS5_EEb
       3072  BFF 003F7CA0 _ZN5MTreeC2ERNSt7__cxx1112basic_stringIcSt11char_traitsIcESaIcEEEb
       3073  C00 003F7E90 _ZN5MTreeC2ERS_
       3074  C01 003F7FC0 _ZN5MTreeC2Ev
       3075  C02 003F8140 _ZN5MTreeD0Ev
       3076  C03 003F8160 _ZN5MTreeD1Ev
       3077  C04 003F8160 _ZN5MTreeD2Ev
       3078  C05 003F8250 _ZN5Split10compatibleERS_
       3079  C06 003F83C0 _ZN5Split10containAnyERSt6vectorIiSaIiEE
       3080  C07 003F8410 _ZN5Split10firstTaxonEv
       3081  C08 003F8740 _ZN5Split11getTaxaListERSt6vectorIiSaIiEE
       3082  C09 003F88E0 _ZN5Split11getTaxaListERSt6vectorIiSaIiEES3_
       3083  C0A 003F8B50 _ZN5Split11removeTaxonEi
       3084  C0B 003F8C10 _ZN5Split12containTaxonEi
       3085  C0C 003F8CC0 _ZN5Split12shouldInvertEv
       3086  C0D 003F8D00 _ZN5Split15extractSubSplitERS_
       3087  C0E 003F8F40 _ZN5Split6invertEv
       3088  C0F 003F9090 _ZN5Split6reportERSo
       3089  C10 003F91C0 _ZN5Split7isEmptyEv
       3090  C11 003F91F0 _ZN5Split7overlapERS_
       3091  C12 003F92C0 _ZN5Split7trivialEv
       3092  C13 003F93B0 _ZN5Split8addTaxonEi
       3093  C14 003F9470 _ZN5Split8setNTaxaEi
       3094  C15 003F9500 _ZN5Split8subsetOfERS_
       3095  C16 003F95E0 _ZN5Split9preservedERS_
       3096  C17 003F9700 _ZN5Split9randomizeEi
       3097  C18 003F99E0 _ZN5SplitC1ERKS_
       3098  C19 003F9AA0 _ZN5SplitC1Eid
       3099  C1A 003F9B60 _ZN5SplitC1EidSt6vectorIiSaIiEE
       3100  C1B 003F9DB0 _ZN5SplitC1Ev
       3101  C1C 003F99E0 _ZN5SplitC2ERKS_
       3102  C1D 003F9AA0 _ZN5SplitC2Eid
       3103  C1E 003F9B60 _ZN5SplitC2EidSt6vectorIiSaIiEE
       3104  C1F 003F9DB0 _ZN5SplitC2Ev
       3105  C20 003F9DF0 _ZN5SplitD1Ev
       3106  C21 003F9DF0 _ZN5SplitD2Ev
       3107  C22 003F9E30 _ZN5SplitaSERKS_
       3108  C23 003F9EF0 _ZN5SplitmIERS_
       3109  C24 003FA0D0 _ZN5SplitmLERS_
       3110  C25 003FA2B0 _ZN5SplitpLERS_
       3111  C26 003FA490 _ZN5boost10wrapexceptINS_4math14rounding_errorEEC2ERKS2_
       3112  C27 003FA4F0 _ZN5boost10wrapexceptINS_4math14rounding_errorEEC2ERKS3_
       3113  C28 003FA590 _ZN5boost10wrapexceptINS_4math14rounding_errorEED0Ev
       3114  C29 003FA5E0 _ZN5boost10wrapexceptINS_4math14rounding_errorEED2Ev
       3115  C2A 003FA630 _ZN5boost10wrapexceptINS_4math16evaluation_errorEEC2ERKS2_
       3116  C2B 003FA690 _ZN5boost10wrapexceptINS_4math16evaluation_errorEEC2ERKS3_
       3117  C2C 003FA730 _ZN5boost10wrapexceptINS_4math16evaluation_errorEED0Ev
       3118  C2D 003FA780 _ZN5boost10wrapexceptINS_4math16evaluation_errorEED2Ev
       3119  C2E 003FA7D0 _ZN5boost10wrapexceptISt12domain_errorEC2ERKS1_
       3120  C2F 003FA830 _ZN5boost10wrapexceptISt12domain_errorEC2ERKS2_
       3121  C30 003FA8D0 _ZN5boost10wrapexceptISt12domain_errorED0Ev
       3122  C31 003FA920 _ZN5boost10wrapexceptISt12domain_errorED2Ev
       3123  C32 003FA970 _ZN5boost10wrapexceptISt14overflow_errorEC2ERKS1_
       3124  C33 003FA9D0 _ZN5boost10wrapexceptISt14overflow_errorEC2ERKS2_
       3125  C34 003FAA70 _ZN5boost10wrapexceptISt14overflow_errorED0Ev
       3126  C35 003FAAC0 _ZN5boost10wrapexceptISt14overflow_errorED2Ev
       3127  C36 003FAB10 _ZN5boost15throw_exceptionINS_4math14rounding_errorEEEvRKT_
       3128  C37 003FAB60 _ZN5boost15throw_exceptionINS_4math16evaluation_errorEEEvRKT_
       3129  C38 003FABB0 _ZN5boost15throw_exceptionISt12domain_errorEEvRKT_
       3130  C39 003FAC00 _ZN5boost15throw_exceptionISt14overflow_errorEEvRKT_
       3131  C3A 003FAC50 _ZN5boost16exception_detail10clone_baseD0Ev
       3132  C3B 003FAC60 _ZN5boost16exception_detail10clone_baseD2Ev
       3133  C3C 003FAC70 _ZN5boost16exception_detail20copy_boost_exceptionEPNS_9exceptionEPKS1_
       3134  C3D 003FAD60 _ZN5boost4math14rounding_errorD0Ev
       3135  C3E 003FAD80 _ZN5boost4math16evaluation_errorD0Ev
       3136  C3F 003FADA0 _ZN5boost4math20binomial_coefficientIeNS0_8policies6policyINS2_13promote_floatILb0EEENS2_14promote_doubleILb0EEENS2_14default_policyES8_S8_S8_S8_S8_S8_S8_S8_S8_S8_EEEET_jjRKT0_
       3137  C40 008D6BF0 _ZN5boost4math24unchecked_factorial_dataIeLb1EE10factorialsE
       3138  C41 003FAF80 _ZN5boost4math3cdfIdNS0_8policies6policyINS2_14default_policyES4_S4_S4_S4_S4_S4_S4_S4_S4_S4_S4_S4_EEEET_RKNS0_18complemented2_typeINS0_21binomial_distributionIS6_T0_EES6_EE
       3139  C42 003FB180 _ZN5boost4math4betaIeeNS0_8policies6policyINS2_13promote_floatILb0EEENS2_14promote_doubleILb0EEENS2_14default_policyES8_S8_S8_S8_S8_S8_S8_S8_S8_S8_EEEENS0_5tools12promote_argsIT_T0_T1_fffE4typeESC_SD_SE_
       3140  C43 003FB200 _ZN5boost4math5expm1IeNS0_8policies6policyINS2_13promote_floatILb0EEENS2_14promote_doubleILb0EEENS2_14default_policyES8_S8_S8_S8_S8_S8_S8_S8_S8_S8_EEEENS0_5tools12promote_argsIT_fffffE4typeESC_RKT0_
       3141  C44 003FB370 _ZN5boost4math5log1pIeNS0_8policies6policyINS2_13promote_floatILb0EEENS2_14promote_doubleILb0EEENS2_14default_policyES8_S8_S8_S8_S8_S8_S8_S8_S8_S8_EEEENS0_5tools12promote_argsIT_fffffE4typeESC_RKT0_
       3142  C45 003FB3E0 _ZN5boost4math5tools19evaluate_polynomialILy7EeeEET1_RAT__KT0_RKS3_
       3143  C46 003FB430 _ZN5boost4math5tools19evaluate_polynomialILy9EeeEET1_RAT__KT0_RKS3_
       3144  C47 003FB490 _ZN5boost4math5tools6detail23evaluate_rational_c_impIeyeEET1_PKT_PKT0_RKS4_PKSt17integral_constantIiLi17EE
       3145  C48 003FBAE0 _ZN5boost4math6detail10lgamma_impIeNS0_8policies6policyINS3_13promote_floatILb0EEENS3_14promote_doubleILb0EEENS3_14default_policyES9_S9_S9_S9_S9_S9_S9_S9_S9_S9_EENS0_7lanczos12lanczos17m64EEET_SD_RKT0_RKT1_Pi
       3146  C49 003FBF90 _ZN5boost4math6detail12ibeta_a_stepIeNS0_8policies6policyINS3_13promote_floatILb0EEENS3_14promote_doubleILb0EEENS3_14default_policyES9_S9_S9_S9_S9_S9_S9_S9_S9_S9_EEEET_SB_SB_SB_SB_iRKT0_bPSB_
       3147  C4A 003FC250 _ZN5boost4math6detail12ibeta_seriesIeNS0_7lanczos12lanczos17m64ENS0_8policies6policyINS5_13promote_floatILb0EEENS5_14promote_doubleILb0EEENS5_14default_policyESB_SB_SB_SB_SB_SB_SB_SB_SB_SB_EEEET_SD_SD_SD_SD_RKT0_bPSD_SD_RKT1_
       3148  C4B 003FC900 _ZN5boost4math6detail13binomial_ccdfIeNS0_8policies6policyINS3_13promote_floatILb0EEENS3_14promote_doubleILb0EEENS3_14default_policyES9_S9_S9_S9_S9_S9_S9_S9_S9_S9_EEEET_SB_SB_SB_SB_RKT0_
       3149  C4C 003FD340 _ZN5boost4math6detail14finite_gamma_qIeNS0_8policies6policyINS3_13promote_floatILb0EEENS3_14promote_doubleILb0EEENS3_14default_policyES9_S9_S9_S9_S9_S9_S9_S9_S9_S9_EEEET_SB_SB_RKT0_PSB_
       3150  C4D 003FD560 _ZN5boost4math6detail14tgammap1m1_impIeNS0_8policies6policyINS3_13promote_floatILb0EEENS3_14promote_doubleILb0EEENS3_14default_policyES9_S9_S9_S9_S9_S9_S9_S9_S9_S9_EENS0_7lanczos12lanczos17m64EEET_SD_RKT0_RKT1_
       3151  C4E 009503C8 _ZN5boost4math6detail15erf_initializerIeNS0_8policies6policyINS3_13promote_floatILb0EEENS3_14promote_doubleILb0EEENS3_14default_policyES9_S9_S9_S9_S9_S9_S9_S9_S9_S9_EESt17integral_constantIiLi64EEE11initializerE
       3152  C4F 003FDA30 _ZN5boost4math6detail15erf_initializerIeNS0_8policies6policyINS3_13promote_floatILb0EEENS3_14promote_doubleILb0EEENS3_14default_policyES9_S9_S9_S9_S9_S9_S9_S9_S9_S9_EESt17integral_constantIiLi64EEE4init7do_initERKSC_
       3153  C50 003FDC10 _ZN5boost4math6detail15ibeta_fraction2IeNS0_8policies6policyINS3_13promote_floatILb0EEENS3_14promote_doubleILb0EEENS3_14default_policyES9_S9_S9_S9_S9_S9_S9_S9_S9_S9_EEEET_SB_SB_SB_SB_RKT0_bPSB_
       3154  C51 003FDF70 _ZN5boost4math6detail16lgamma_small_impIeNS0_8policies6policyINS3_13promote_floatILb0EEENS3_14promote_doubleILb0EEENS3_14default_policyES9_S9_S9_S9_S9_S9_S9_S9_S9_S9_EENS0_7lanczos12lanczos17m64EEET_SD_SD_SD_RKSt17integral_constantIiLi64EERKT0_RKT1_
       3155  C52 009503C9 _ZN5boost4math6detail17expm1_initializerIeNS0_8policies6policyINS3_13promote_floatILb0EEENS3_14promote_doubleILb0EEENS3_14default_policyES9_S9_S9_S9_S9_S9_S9_S9_S9_S9_EESt17integral_constantIiLi64EEE11initializerE
       3156  C53 003FE320 _ZN5boost4math6detail17ibeta_power_termsIeNS0_7lanczos12lanczos17m64ENS0_8policies6policyINS5_13promote_floatILb0EEENS5_14promote_doubleILb0EEENS5_14default_policyESB_SB_SB_SB_SB_SB_SB_SB_SB_SB_EEEET_SD_SD_SD_SD_RKT0_bRKT1_SD_PKc
       3157  C54 009503CA _ZN5boost4math6detail17log1p_initializerIdNS0_8policies6policyINS3_13promote_floatILb0EEENS3_14promote_doubleILb0EEENS3_14default_policyES9_S9_S9_S9_S9_S9_S9_S9_S9_S9_EESt17integral_constantIiLi53EEE11initializerE
       3158  C55 009503CB _ZN5boost4math6detail17log1p_initializerIeNS0_8policies6policyINS3_13promote_floatILb0EEENS3_14promote_doubleILb0EEENS3_14default_policyES9_S9_S9_S9_S9_S9_S9_S9_S9_S9_EESt17integral_constantIiLi64EEE11initializerE
       3159  C56 003FF260 _ZN5boost4math6detail18full_igamma_prefixIeNS0_8policies6policyINS3_13promote_floatILb0EEENS3_14promote_doubleILb0EEENS3_14default_policyES9_S9_S9_S9_S9_S9_S9_S9_S9_S9_EEEET_SB_SB_RKT0_
       3160  C57 009503CC _ZN5boost4math6detail18igamma_initializerIeNS0_8policies6policyINS3_13promote_floatILb0EEENS3_14promote_doubleILb0EEENS3_14default_policyES9_S9_S9_S9_S9_S9_S9_S9_S9_S9_EEE11initializerE
       3161  C58 003FF460 _ZN5boost4math6detail18igamma_temme_largeIeNS0_8policies6policyINS3_13promote_floatILb0EEENS3_14promote_doubleILb0EEENS3_14default_policyES9_S9_S9_S9_S9_S9_S9_S9_S9_S9_EEEET_SB_SB_RKT0_PKSt17integral_constantIiLi64EE
       3162  C59 009503CD _ZN5boost4math6detail18lgamma_initializerIeNS0_8policies6policyINS3_13promote_floatILb0EEENS3_14promote_doubleILb0EEENS3_14default_policyES9_S9_S9_S9_S9_S9_S9_S9_S9_S9_EEE11initializerE
       3163  C5A 003FFC40 _ZN5boost4math6detail18lgamma_initializerIeNS0_8policies6policyINS3_13promote_floatILb0EEENS3_14promote_doubleILb0EEENS3_14default_policyES9_S9_S9_S9_S9_S9_S9_S9_S9_S9_EEE4init7do_initERKSt17integral_constantIiLi64EE
       3164  C5B 003FFD50 _ZN5boost4math6detail18lower_gamma_seriesIeNS0_8policies6policyINS3_13promote_floatILb0EEENS3_14promote_doubleILb0EEENS3_14default_policyES9_S9_S9_S9_S9_S9_S9_S9_S9_S9_EEEET_SB_SB_RKT0_SB_
       3165  C5C 003FFE80 _ZN5boost4math6detail19finite_half_gamma_qIeNS0_8policies6policyINS3_13promote_floatILb0EEENS3_14promote_doubleILb0EEENS3_14default_policyES9_S9_S9_S9_S9_S9_S9_S9_S9_S9_EEEET_SB_SB_PSB_RKT0_
       3166  C5D 004000B0 _ZN5boost4math6detail20gamma_incomplete_impIeNS0_8policies6policyINS3_13promote_floatILb0EEENS3_14promote_doubleILb0EEENS3_14default_policyES9_S9_S9_S9_S9_S9_S9_S9_S9_S9_EEEET_SB_SB_bbRKT0_PSB_
       3167  C5E 00401210 _ZN5boost4math6detail20upper_gamma_fractionIeEET_S3_S3_S3_
       3168  C5F 00401320 _ZN5boost4math6detail22tgamma_delta_ratio_impIeNS0_8policies6policyINS3_13promote_floatILb0EEENS3_14promote_doubleILb0EEENS3_14default_policyES9_S9_S9_S9_S9_S9_S9_S9_S9_S9_EEEET_SB_SB_RKT0_
       3169  C60 00401830 _ZN5boost4math6detail23tgamma_small_upper_partIeNS0_8policies6policyINS3_13promote_floatILb0EEENS3_14promote_doubleILb0EEENS3_14default_policyES9_S9_S9_S9_S9_S9_S9_S9_S9_S9_EEEET_SB_SB_RKT0_PSB_bSF_
       3170  C61 00401A80 _ZN5boost4math6detail24regularised_gamma_prefixIeNS0_8policies6policyINS3_13promote_floatILb0EEENS3_14promote_doubleILb0EEENS3_14default_policyES9_S9_S9_S9_S9_S9_S9_S9_S9_S9_EENS0_7lanczos12lanczos17m64EEET_SD_SD_RKT0_RKT1_
       3171  C62 00401FF0 _ZN5boost4math6detail25incomplete_tgamma_large_xIeNS0_8policies6policyINS3_13promote_floatILb0EEENS3_14promote_doubleILb0EEENS3_14default_policyES9_S9_S9_S9_S9_S9_S9_S9_S9_S9_EEEET_RKSB_SD_RKT0_
       3172  C63 00402120 _ZN5boost4math6detail27beta_small_b_large_a_seriesIeNS0_8policies6policyINS3_13promote_floatILb0EEENS3_14promote_doubleILb0EEENS3_14default_policyES9_S9_S9_S9_S9_S9_S9_S9_S9_S9_EEEET_SB_SB_SB_SB_SB_SB_RKT0_b
       3173  C64 004026D0 _ZN5boost4math6detail30tgamma_delta_ratio_imp_lanczosIeNS0_8policies6policyINS3_13promote_floatILb0EEENS3_14promote_doubleILb0EEENS3_14default_policyES9_S9_S9_S9_S9_S9_S9_S9_S9_S9_EENS0_7lanczos12lanczos17m64EEET_SD_SD_RKT0_RKT1_
       3174  C65 004029F0 _ZN5boost4math6detail7erf_impIeNS0_8policies6policyINS3_13promote_floatILb0EEENS3_14promote_doubleILb0EEENS3_14default_policyES9_S9_S9_S9_S9_S9_S9_S9_S9_S9_EEEET_SB_bRKT0_RKSt17integral_constantIiLi64EE
       3175  C66 00403070 _ZN5boost4math6detail8beta_impIeNS0_7lanczos12lanczos17m64ENS0_8policies6policyINS5_13promote_floatILb0EEENS5_14promote_doubleILb0EEENS5_14default_policyESB_SB_SB_SB_SB_SB_SB_SB_SB_SB_EEEET_SD_SD_RKT0_RKT1_
       3176  C67 004033C0 _ZN5boost4math6detail9gamma_impIeNS0_8policies6policyINS3_13promote_floatILb0EEENS3_14promote_doubleILb0EEENS3_14default_policyES9_S9_S9_S9_S9_S9_S9_S9_S9_S9_EENS0_7lanczos12lanczos17m64EEET_SD_RKT0_RKT1_
       3177  C68 00403A30 _ZN5boost4math6detail9ibeta_impIeNS0_8policies6policyINS3_13promote_floatILb0EEENS3_14promote_doubleILb0EEENS3_14default_policyES9_S9_S9_S9_S9_S9_S9_S9_S9_S9_EEEET_SB_SB_SB_RKT0_bbPSB_
       3178  C69 00405E50 _ZN5boost4math6detail9log1p_impIeNS0_8policies6policyINS3_13promote_floatILb0EEENS3_14promote_doubleILb0EEENS3_14default_policyES9_S9_S9_S9_S9_S9_S9_S9_S9_S9_EEEET_RKSB_RKT0_RKSt17integral_constantIiLi64EE
       3179  C6A 00405FE0 _ZN5boost4math6detail9powm1_impIeNS0_8policies6policyINS3_13promote_floatILb0EEENS3_14promote_doubleILb0EEENS3_14default_policyES9_S9_S9_S9_S9_S9_S9_S9_S9_S9_EEEET_SB_SB_RKT0_
       3180  C6B 00406530 _ZN5boost4math6itruncIeNS0_8policies6policyINS2_13promote_floatILb0EEENS2_14promote_doubleILb0EEENS2_14default_policyES8_S8_S8_S8_S8_S8_S8_S8_S8_S8_EEEEiRKT_RKT0_
       3181  C6C 00406610 _ZN5boost4math6lgammaIeNS0_8policies6policyINS2_13promote_floatILb0EEENS2_14promote_doubleILb0EEENS2_14default_policyES8_S8_S8_S8_S8_S8_S8_S8_S8_S8_EEEENS0_5tools12promote_argsIT_fffffE4typeESC_RKT0_
       3182  C6D 00406680 _ZN5boost4math6tgammaIeNS0_8policies6policyINS2_13promote_floatILb0EEENS2_14promote_doubleILb0EEENS2_14default_policyES8_S8_S8_S8_S8_S8_S8_S8_S8_S8_EEEENS0_5tools12promote_argsIT_T0_ffffE4typeESC_SD_
       3183  C6E 004066F0 _ZN5boost4math7lanczos12lanczos17m6418lanczos_sum_near_2IeEET_RKS4_
       3184  C6F 009503CE _ZN5boost4math7lanczos19lanczos_initializerINS1_12lanczos17m64EeE11initializerE
       3185  C70 00406920 _ZN5boost4math7log1pmxIeNS0_8policies6policyINS2_13promote_floatILb0EEENS2_14promote_doubleILb0EEENS2_14default_policyES8_S8_S8_S8_S8_S8_S8_S8_S8_S8_EEEENS0_5tools12promote_argsIT_fffffE4typeESC_RKT0_
       3186  C71 00406AB0 _ZN5boost4math8policies6detail11prec_formatIdEENSt7__cxx1112basic_stringIcSt11char_traitsIcESaIcEEERKT_
       3187  C72 00406C10 _ZN5boost4math8policies6detail11prec_formatIeEENSt7__cxx1112basic_stringIcSt11char_traitsIcESaIcEEERKT_
       3188  C73 00406D80 _ZN5boost4math8policies6detail11prec_formatIjEENSt7__cxx1112basic_stringIcSt11char_traitsIcESaIcEEERKT_
       3189  C74 00406EE0 _ZN5boost4math8policies6detail11raise_errorINS0_14rounding_errorEeEEvPKcS6_RKT0_
       3190  C75 00407210 _ZN5boost4math8policies6detail11raise_errorINS0_14rounding_errorEjEEvPKcS6_RKT0_
       3191  C76 00407550 _ZN5boost4math8policies6detail11raise_errorINS0_16evaluation_errorEeEEvPKcS6_RKT0_
       3192  C77 00407880 _ZN5boost4math8policies6detail11raise_errorISt12domain_errordEEvPKcS6_RKT0_
       3193  C78 00407BA0 _ZN5boost4math8policies6detail11raise_errorISt12domain_erroreEEvPKcS6_RKT0_
       3194  C79 00407EC0 _ZN5boost4math8policies6detail11raise_errorISt14overflow_errordEEvPKcS6_
       3195  C7A 004080E0 _ZN5boost4math8policies6detail11raise_errorISt14overflow_erroreEEvPKcS6_
       3196  C7B 00408300 _ZN5boost4math8policies6detail21replace_all_in_stringERNSt7__cxx1112basic_stringIcSt11char_traitsIcESaIcEEEPKcSB_
       3197  C7C 004083D0 _ZN6IQTree10raiseBonusEP8NeighborP4Noded
       3198  C7D 004084C0 _ZN6IQTree10saveUFBootEP10Checkpoint
       3199  C7E 00408E40 _ZN6IQTree11computeLogLEv
       3200  C7F 00408ED0 _ZN6IQTree11doNNISearchEb
       3201  C80 00409320 _ZN6IQTree11optimizeNNIEb
       3202  C81 0040A9D0 _ZN6IQTree12deleteLeavesERSt6vectorIP9PhyloNodeSaIS2_EE
       3203  C82 0040ACA0 _ZN6IQTree12doRandomNNIsB5cxx11Eb
       3204  C83 0040B410 _ZN6IQTree12doTreeSearchEv
       3205  C84 0040C9C0 _ZN6IQTree12evaluateNNIsERSt3mapIiSt4pairIP4NodeS3_ESt4lessIiESaIS1_IKiS4_EEERSt6vectorI7NNIMoveSaISD_EE
       3206  C85 0040CB30 _ZN6IQTree12getAvgNumNNIEv
       3207  C86 0040CBD0 _ZN6IQTree12getBestScoreEv
       3208  C87 0040CBE0 _ZN6IQTree12getBestTreesB5cxx11Ei
       3209  C88 0040CC00 _ZN6IQTree12initSettingsER6Params
       3210  C89 0040DEB0 _ZN6IQTree12resetKDeleteEv
       3211  C8A 0040DED0 _ZN6IQTree12saveNNITreesEP9PhyloNodeS1_
       3212  C8B 0040E020 _ZN6IQTree13assessQuartetEP4NodeS1_S1_S1_
       3213  C8C 0040E160 _ZN6IQTree13findBestBonusERdRSt6vectorIP4NodeSaIS3_EES6_S3_S3_
       3214  C8D 0040E430 _ZN6IQTree13getProbDeleteEv
       3215  C8E 0040E450 _ZN6IQTree13initializePLLER6Params
       3216  C8F 0040E890 _ZN6IQTree13inputTree2PLLENSt7__cxx1112basic_stringIcSt11char_traitsIcESaIcEEEb
       3217  C90 0040E910 _ZN6IQTree13restoreUFBootEP10Checkpoint
       3218  C91 0040EE40 _ZN6IQTree13setCheckpointEP10Checkpoint
       3219  C92 0040EEC0 _ZN6IQTree14assessQuartetsERSt6vectorIPSt8multisetIP7RepLeaf13nodeheightcmpSaIS3_EESaIS7_EEP9PhyloNodeSC_
       3220  C93 0040F460 _ZN6IQTree14estDeltaMedianEv
       3221  C94 0040F500 _ZN6IQTree14getNNIBranchesER11SplitIntMapS1_RSt3mapIiSt4pairIP4NodeS5_ESt4lessIiESaIS3_IKiS6_EEESD_S5_S5_
       3222  C95 0040F920 _ZN6IQTree14pllOptimizeNNIERiS0_R10SearchInfo
       3223  C96 0040FB20 _ZN6IQTree14reinsertLeavesERSt6vectorIP9PhyloNodeSaIS2_EE
       3224  C97 004102D0 _ZN6IQTree14saveCheckpointEv
       3225  C98 004105B0 _ZN6IQTree14shouldEvaluateEP5SplitR11SplitIntMapS3_
       3226  C99 00410630 _ZN6IQTree15getAlphaFromPLLEv
       3227  C9A 00410650 _ZN6IQTree15increaseKDeleteEv
       3228  C9B 00410730 _ZN6IQTree15initializeBonusEP9PhyloNodeS1_
       3229  C9C 004107E0 _ZN6IQTree15initializeModelER6ParamsNSt7__cxx1112basic_stringIcSt11char_traitsIcESaIcEEEP11ModelsBlock
       3230  C9D 00410AF0 _ZN6IQTree15printBestScoresEv
       3231  C9E 00410BF0 _ZN6IQTree15printResultTreeENSt7__cxx1112basic_stringIcSt11char_traitsIcESaIcEEE
       3232  C9F 00410F30 _ZN6IQTree15printResultTreeERSo
       3233  CA0 00410F80 _ZN6IQTree15refineBootTreesEv
       3234  CA1 004125B0 _ZN6IQTree15saveCurrentTreeEd
       3235  CA2 00412CF0 _ZN6IQTree15sendStopMessageEv
       3236  CA3 00412D00 _ZN6IQTree15syncCurrentTreeEv
       3237  CA4 00412D10 _ZN6IQTree16computeRootstrapER8MTreeSetb
       3238  CA5 00414C10 _ZN6IQTree16getSplitBranchesERSt3mapIiSt4pairIP4NodeS3_ESt4lessIiESaIS1_IKiS4_EEER11SplitIntMapS3_S3_
       3239  CA6 00414E50 _ZN6IQTree16isInitializedPLLEv
       3240  CA7 00414E60 _ZN6IQTree16optimizeBranchesB5cxx11Ei
       3241  CA8 00415210 _ZN6IQTree16writeUFBootTreesER6Params
       3242  CA9 00415660 _ZN6IQTree17convertNNI2SplitsER11SplitIntMapiRSt6vectorI7NNIMoveSaIS3_EE
       3243  CAA 00415720 _ZN6IQTree17estimateNNICutoffEP6Params
       3244  CAB 00415F40 _ZN6IQTree17filterNNIBranchesERSt6vectorI7NNIMoveSaIS1_EERSt3mapIiSt4pairIP4NodeS8_ESt4lessIiESaIS6_IKiS9_EEE
       3245  CAC 004160B0 _ZN6IQTree17getCompatibleNNIsERSt6vectorI7NNIMoveSaIS1_EES4_
       3246  CAD 00416170 _ZN6IQTree17getStableBranchesER11SplitIntMapdRSt3mapIiSt4pairIP4NodeS5_ESt4lessIiESaIS3_IKiS6_EEES5_S5_
       3247  CAE 004163F0 _ZN6IQTree17pllBaseSubstituteEPci
       3248  CAF 00416750 _ZN6IQTree17pllInitUFBootDataEv
       3249  CB0 00416B80 _ZN6IQTree17pllLogBootSamplesEPPiii
       3250  CB1 00416FA0 _ZN6IQTree17printPhylolibTreeEPKc
       3251  CB2 00417100 _ZN6IQTree17restoreCheckpointEv
       3252  CB3 00417D20 _ZN6IQTree18computeInitialTreeE16LikelihoodKernelPSi
       3253  CB4 00418FF0 _ZN6IQTree18createPLLPartitionER6ParamsRSo
       3254  CB5 00419E70 _ZN6IQTree18doTreePerturbationEv
       3255  CB6 0041A220 _ZN6IQTree18getNonTabuBranchesERSt3mapIiSt4pairIP4NodeS3_ESt4lessIiESaIS1_IKiS4_EEER10SplitGraphSB_PSA_
       3256  CB7 0041A440 _ZN6IQTree18printIterationInfoEi
       3257  CB8 0041A690 _ZN6IQTree18summarizeBootstrapER10SplitGraph
       3258  CB9 0041A870 _ZN6IQTree18summarizeBootstrapER6Params
       3259  CBA 0041A8F0 _ZN6IQTree18summarizeBootstrapER6ParamsR8MTreeSet
       3260  CBB 0041B250 _ZN6IQTree18syncCandidateTreesEib
       3261  CBC 0041B260 _ZN6IQTree19computePartialBonusEP4NodeS1_
       3262  CBD 0041B2F0 _ZN6IQTree19findRepresentLeavesERSt6vectorIPSt8multisetIP7RepLeaf13nodeheightcmpSaIS3_EESaIS7_EEiP9PhyloNode
       3263  CBE 0041B7C0 _ZN6IQTree19optimizeNNIBranchesERSt3mapIiSt4pairIP4NodeS3_ESt4lessIiESaIS1_IKiS4_EEE
       3264  CBF 0041B830 _ZN6IQTree19perturbStableSplitsB5cxx11Ed
       3265  CC0 0041C180 _ZN6IQTree19pllPrintModelParamsEv
       3266  CC1 0041C520 _ZN6IQTree20getModelRatesFromPLLEv
       3267  CC2 0041C640 _ZN6IQTree20initCandidateTreeSetEii
       3268  CC3 0041DF20 _ZN6IQTree20inputModelIQTree2PLLEv
       3269  CC4 0041E420 _ZN6IQTree20inputModelPLL2IQTreeEv
       3270  CC5 0041E4E0 _ZN6IQTree20pllDestroyUFBootDataEv
       3271  CC6 0041E610 _ZN6IQTree21addTreeToCandidateSetENSt7__cxx1112basic_stringIcSt11char_traitsIcESaIcEEEdbi
       3272  CC7 0041E860 _ZN6IQTree21deleteNonCherryLeavesERSt6vectorIP9PhyloNodeSaIS2_EE
       3273  CC8 0041F280 _ZN6IQTree21generateParsimonyTreeB5cxx11Ei
       3274  CC9 0041F730 _ZN6IQTree21printIntermediateTreeEi
       3275  CCA 0041FBB0 _ZN6IQTree22assessQuartetParsimonyEP4NodeS1_S1_S1_
       3276  CCB 0041FCB0 _ZN6IQTree22doParsimonyReinsertionEv
       3277  CCC 0041FDB0 _ZN6IQTree22printBestCandidateTreeEv
       3278  CCD 00420030 _ZN6IQTree23optimizeModelParametersB5cxx11Ebd
       3279  CCE 00420800 _ZN6IQTree24computeRootstrapUnrootedER8MTreeSetPKcb
       3280  CCF 00422E10 _ZN6IQTree25reinsertLeavesByParsimonyERSt6vectorIP9PhyloNodeSaIS2_EE
       3281  CD0 00422EA0 _ZN6IQTree26pllBuildIQTreePatternIndexEv
       3282  CD1 004235C0 _ZN6IQTree27computeBootstrapCorrelationEv
       3283  CD2 00423B70 _ZN6IQTree27ensureModelParametersAreSetB5cxx11Ed
       3284  CD3 00424180 _ZN6IQTree27pllConvertUFBootData2IQTreeEv
       3285  CD4 00424300 _ZN6IQTree4initEv
       3286  CD5 004245D0 _ZN6IQTree5doIQPEv
       3287  CD6 00424730 _ZN6IQTree6doNNIsERSt6vectorI7NNIMoveSaIS1_EEb
       3288  CD7 004247D0 _ZN6IQTree7perturbEi
       3289  CD8 00424B70 _ZN6IQTree8swapTaxaEP9PhyloNodeS1_
       3290  CD9 00424D50 _ZN6IQTree9setDeleteEi
       3291  CDA 00424D60 _ZN6IQTreeC1EP9Alignment
       3292  CDB 00425290 _ZN6IQTreeC1Ev
       3293  CDC 00424D60 _ZN6IQTreeC2EP9Alignment
       3294  CDD 00425290 _ZN6IQTreeC2Ev
       3295  CDE 004257C0 _ZN6IQTreeD0Ev
       3296  CDF 004257E0 _ZN6IQTreeD1Ev
       3297  CE0 004257E0 _ZN6IQTreeD2Ev
       3298  CE1 00425E10 _ZN6Params10setDefaultEv
       3299  CE2 00426F90 _ZN6Params11getInstanceEv
       3300  CE3 00427000 _ZN6ParamsC2ERKS_
       3301  CE4 00429460 _ZN6ParamsC2Ev
       3302  CE5 00429920 _ZN6ParamsD2Ev
       3303  CE6 00429D00 _ZN7CharSetC2ERKS_
       3304  CE7 0042A130 _ZN7CharSetD2Ev
       3305  CE8 0042A1C0 _ZN7MyToken13OutputCommentERK9NxsString
       3306  CE9 0042A1D0 _ZN7MyTokenD0Ev
       3307  CEA 0042A1F0 _ZN7NNIMoveC2ERKS_
       3308  CEB 0042A590 _ZN7NNIMoveD2Ev
       3309  CEC 0042A5F0 _ZN7NNIMoveaSEOS_
       3310  CED 0042A730 _ZN7Pattern20computeAmbiguousCharEi
       3311  CEE 0042A920 _ZN7PatternC1ERKS_
       3312  CEF 0042A9F0 _ZN7PatternC1Eii
       3313  CF0 0042AAB0 _ZN7PatternC1Ev
       3314  CF1 0042A920 _ZN7PatternC2ERKS_
       3315  CF2 0042A9F0 _ZN7PatternC2Eii
       3316  CF3 0042AAB0 _ZN7PatternC2Ev
       3317  CF4 0042AAE0 _ZN7PatternD0Ev
       3318  CF5 0042AB10 _ZN7PatternD1Ev
       3319  CF6 0042AB10 _ZN7PatternD2Ev
       3320  CF7 0042AB20 _ZN8MExtTree13createClusterERSt6vectorIP4NodeSaIS2_EERS0_IS0_IiSaIiEESaIS7_EES2_S2_
       3321  CF8 0042AEB0 _ZN8MExtTree13createClusterEiP4NodeS1_
       3322  CF9 0042AF30 _ZN8MExtTree13setLeavesNameERSt6vectorIP4NodeSaIS2_EE
       3323  CFA 0042B240 _ZN8MExtTree15generateUniformER6Paramsb
       3324  CFB 0042BAD0 _ZN8MExtTree16generateBalancedER6Params
       3325  CFC 0042BE70 _ZN8MExtTree16generateStarTreeER6Params
       3326  CFD 0042BF90 _ZN8MExtTree18generateBirthDeathER6Params
       3327  CFE 0042C910 _ZN8MExtTree18generateRandomTreeE11TreeGenTypeR6Paramsb
       3328  CFF 0042CD30 _ZN8MExtTree19generateCaterpillarER6Params
       3329  D00 0042D2A0 _ZN8MExtTree19generateYuleHardingER6Paramsb
       3330  D01 0042D9A0 _ZN8MExtTree23setZeroInternalBranchesEi
       3331  D02 0042DB00 _ZN8MExtTree24collapseLowBranchSupportERSt6vectorIdSaIdEEP4NodeS5_
       3332  D03 0042DD00 _ZN8MExtTree27generateRandomBranchLengthsER6ParamsP4NodeS3_
       3333  D04 0042DDA0 _ZN8MExtTree30generateConstrainedYuleHardingER6ParamsP5MTreeRSt6vectorINSt7__cxx1112basic_stringIcSt11char_traitsIcESaIcEEESaISA_EE
       3334  D05 0042E4E0 _ZN8MExtTreeD0Ev
       3335  D06 0042E500 _ZN8MTreeSet10printTreesEPKci
       3336  D07 0042E7C0 _ZN8MTreeSet10printTreesERSoi
       3337  D08 0042E850 _ZN8MTreeSet11countRootedEv
       3338  D09 0042E880 _ZN8MTreeSet12assignLeafIDEv
       3339  D0A 0042E8C0 _ZN8MTreeSet13computeRFDistEPdPS_bPKcS3_S0_
       3340  D0B 00430110 _ZN8MTreeSet13computeRFDistEPdid
       3341  D0C 004309B0 _ZN8MTreeSet13convertSplitsER10SplitGraphR11SplitIntMapid
       3342  D0D 00430B90 _ZN8MTreeSet13convertSplitsER10SplitGraphdid
       3343  D0E 00430FF0 _ZN8MTreeSet13convertSplitsERSt6vectorINSt7__cxx1112basic_stringIcSt11char_traitsIcESaIcEEESaIS6_EER10SplitGraphR11SplitIntMapidPcb
       3344  D0F 00431D40 _ZN8MTreeSet13countUnrootedEv
       3345  D10 00431D80 _ZN8MTreeSet14sumTreeWeightsEv
       3346  D11 00431EB0 _ZN8MTreeSet16checkConsistencyEv
       3347  D12 00432420 _ZN8MTreeSet23categorizeDistinctTreesERSt6vectorIiSaIiEE
       3348  D13 00432960 _ZN8MTreeSet4initEPKcRbiiS1_PSt6vectorIiSaIiEEb
       3349  D14 00432A00 _ZN8MTreeSet4initERSt13unordered_mapINSt7__cxx1112basic_stringIcSt11char_traitsIcESaIcEEEiSt4hashIS6_ESt8equal_toIS6_ESaISt4pairIKS6_iEEERbRSt6vectorIiSaIiEE
       3350  D15 00432EB0 _ZN8MTreeSet4initERSt6vectorINSt7__cxx1112basic_stringIcSt11char_traitsIcESaIcEEESaIS6_EERb
       3351  D16 004333B0 _ZN8MTreeSet4initERSt6vectorINSt7__cxx1112basic_stringIcSt11char_traitsIcESaIcEEESaIS6_EES9_Rb
       3352  D17 00433AC0 _ZN8MTreeSet7newTreeEv
       3353  D18 00433B00 _ZN8MTreeSet8isRootedEv
       3354  D19 00433B20 _ZN8MTreeSet9readTreesEPKcRbiiPSt6vectorIiSaIiEEb
       3355  D1A 00434510 _ZN8MTreeSetC1EPKcRbiiS1_
       3356  D1B 00434600 _ZN8MTreeSetC1Ev
       3357  D1C 00434510 _ZN8MTreeSetC2EPKcRbiiS1_
       3358  D1D 00434600 _ZN8MTreeSetC2Ev
       3359  D1E 00434630 _ZN8MTreeSetD0Ev
       3360  D1F 004346C0 _ZN8MTreeSetD1Ev
       3361  D20 004346C0 _ZN8MTreeSetD2Ev
       3362  D21 00434750 _ZN8ModelBIN13getNameParamsB5cxx11Eb
       3363  D22 004349A0 _ZN8ModelBIN15startCheckpointEv
       3364  D23 00434A10 _ZN8ModelBIN4initEPKcNSt7__cxx1112basic_stringIcSt11char_traitsIcESaIcEEE13StateFreqTypeS7_
       3365  D24 00434D40 _ZN8ModelBINC1EPKcNSt7__cxx1112basic_stringIcSt11char_traitsIcESaIcEEE13StateFreqTypeS7_P9PhyloTree
       3366  D25 00434D40 _ZN8ModelBINC2EPKcNSt7__cxx1112basic_stringIcSt11char_traitsIcESaIcEEE13StateFreqTypeS7_P9PhyloTree
       3367  D26 00434F60 _ZN8ModelBIND0Ev
       3368  D27 00434F80 _ZN8ModelDNA11setRateTypeENSt7__cxx1112basic_stringIcSt11char_traitsIcESaIcEEE
       3369  D28 00435990 _ZN8ModelDNA12getVariablesEPd
       3370  D29 00435BC0 _ZN8ModelDNA12setVariablesEPd
       3371  D2A 00435CD0 _ZN8ModelDNA13getNameParamsB5cxx11Eb
       3372  D2B 00436030 _ZN8ModelDNA14saveCheckpointEv
       3373  D2C 004360D0 _ZN8ModelDNA15startCheckpointEv
       3374  D2D 00436140 _ZN8ModelDNA15writeParametersERSo
       3375  D2E 00436250 _ZN8ModelDNA17restoreCheckpointEv
       3376  D2F 00436560 _ZN8ModelDNA20computeTipLikelihoodEjPd
       3377  D30 00436630 _ZN8ModelDNA4initEPKcNSt7__cxx1112basic_stringIcSt11char_traitsIcESaIcEEE13StateFreqTypeS7_
       3378  D31 00436FE0 _ZN8ModelDNA7getNDimEv
       3379  D32 004370B0 _ZN8ModelDNA9readRatesENSt7__cxx1112basic_stringIcSt11char_traitsIcESaIcEEE
       3380  D33 00437C80 _ZN8ModelDNAC1EP9PhyloTree
       3381  D34 00437D10 _ZN8ModelDNAC1EPKcNSt7__cxx1112basic_stringIcSt11char_traitsIcESaIcEEE13StateFreqTypeS7_P9PhyloTree
       3382  D35 00437C80 _ZN8ModelDNAC2EP9PhyloTree
       3383  D36 00437D10 _ZN8ModelDNAC2EPKcNSt7__cxx1112basic_stringIcSt11char_traitsIcESaIcEEE13StateFreqTypeS7_P9PhyloTree
       3384  D37 00438530 _ZN8ModelDNAD0Ev
       3385  D38 004385D0 _ZN8ModelDNAD2Ev
       3386  D39 00438670 _ZN8ModelHmm11getFullNameB5cxx11Ev
       3387  D3A 004386A0 _ZN8ModelHmm11setPhyloHmmEP8PhyloHmm
       3388  D3B 004386B0 _ZN8ModelHmm13getTransitLogEi
       3389  D3C 004386C0 _ZN8ModelHmm14getNParametersEv
       3390  D3D 004386D0 _ZN8ModelHmm14showParametersERSo
       3391  D3E 00438900 _ZN8ModelHmm15computeFunctionEd
       3392  D3F 00438930 _ZN8ModelHmm18computeLogTransitsEv
       3393  D40 00438B70 _ZN8ModelHmm18optimizeParametersEd
       3394  D41 00438B80 _ZN8ModelHmm21initialize_transitLogEv
       3395  D42 00438C30 _ZN8ModelHmm22optimizeParametersByEMEv
       3396  D43 00438DC0 _ZN8ModelHmm7getNDimEv
       3397  D44 00438DD0 _ZN8ModelHmm7getNameB5cxx11Ev
       3398  D45 00438DF0 _ZN8ModelHmmC1Ei
       3399  D46 00438DF0 _ZN8ModelHmmC2Ei
       3400  D47 00438E30 _ZN8ModelHmmD1Ev
       3401  D48 00438E30 _ZN8ModelHmmD2Ev
       3402  D49 00438E80 _ZN8ModelSet12computeTransEdii
       3403  D4A 00438E90 _ZN8ModelSet12computeTransEdiiRdS0_
       3404  D4B 00438EA0 _ZN8ModelSet12computeTransEdiii
       3405  D4C 00439050 _ZN8ModelSet12computeTransEdiiiRdS0_
       3406  D4D 00439230 _ZN8ModelSet12getVariablesEPd
       3407  D4E 00439320 _ZN8ModelSet12setVariablesEPd
       3408  D4F 004393D0 _ZN8ModelSet13getPtnModelIDEi
       3409  D50 00439510 _ZN8ModelSet15joinEigenMemoryEv
       3410  D51 00439900 _ZN8ModelSet16computeTransDervEdPdS0_S0_i
       3411  D52 00439990 _ZN8ModelSet17getMemoryRequiredEv
       3412  D53 004399F0 _ZN8ModelSet18computeTransMatrixEdPdii
       3413  D54 00439A80 _ZN8ModelSet18getTransMatrixSizeEv
       3414  D55 00439AA0 _ZN8ModelSet19decomposeRateMatrixEv
       3415  D56 0043AA00 _ZN8ModelSet19isSiteSpecificModelEv
       3416  D57 0043AA10 _ZN8ModelSet7getNDimEv
       3417  D58 0043AAC0 _ZN8ModelSet9writeInfoERSo
       3418  D59 0043ABF0 _ZN8ModelSetC1EPKcP9PhyloTree
       3419  D5A 0043ABF0 _ZN8ModelSetC2EPKcP9PhyloTree
       3420  D5B 0043AD60 _ZN8ModelSetD0Ev
       3421  D5C 0043AE40 _ZN8ModelSetD1Ev
       3422  D5D 0043AE40 _ZN8ModelSetD2Ev
       3423  D5E 0043AF10 _ZN8MyReader10NexusErrorE9NxsStringSt4fposIiEll
       3424  D5F 0043AFC0 _ZN8MyReader13EnteringBlockE9NxsString
       3425  D60 0043B0A0 _ZN8MyReader13OutputCommentERK9NxsString
       3426  D61 0043B0B0 _ZN8MyReader13SkippingBlockE9NxsString
       3427  D62 0043B180 _ZN8MyReader15ExecuteStartingEv
       3428  D63 0043B190 _ZN8MyReader15ExecuteStoppingEv
       3429  D64 0043B1A0 _ZN8MyReaderC2EPc
       3430  D65 0043B240 _ZN8MyReaderD0Ev
       3431  D66 0043B260 _ZN8MyReaderD2Ev
       3432  D67 0043B320 _ZN8Neighbor11newNeighborEv
       3433  D68 0043B3C0 _ZN8Neighbor7getAttrINSt7__cxx1112basic_stringIcSt11char_traitsIcESaIcEEEEEbS6_RT_
       3434  D69 0043B4D0 _ZN8Neighbor7getAttrIdEEbNSt7__cxx1112basic_stringIcSt11char_traitsIcESaIcEEERT_
       3435  D6A 0043B5E0 _ZN8Neighbor7putAttrINSt7__cxx1112basic_stringIcSt11char_traitsIcESaIcEEEEEvS6_T_
       3436  D6B 0043B830 _ZN8Neighbor7putAttrIPKcEEvNSt7__cxx1112basic_stringIcSt11char_traitsIcESaIcEEET_
       3437  D6C 0043BAC0 _ZN8Neighbor7putAttrIdEEvNSt7__cxx1112basic_stringIcSt11char_traitsIcESaIcEEET_
       3438  D6D 0043BD20 _ZN8Neighbor7putAttrIiEEvNSt7__cxx1112basic_stringIcSt11char_traitsIcESaIcEEET_
       3439  D6E 0043BF70 _ZN8Neighbor9getLengthERSt6vectorIdSaIdEE
       3440  D6F 0043BFC0 _ZN8Neighbor9getLengthERSt6vectorIdSaIdEEi
       3441  D70 0043C080 _ZN8Neighbor9getLengthEi
       3442  D71 0043C090 _ZN8Neighbor9setLengthEPS_
       3443  D72 0043C0A0 _ZN8Neighbor9setLengthERSt6vectorIdSaIdEE
       3444  D73 0043C150 _ZN8Neighbor9setLengthERSt6vectorIdSaIdEEii
       3445  D74 0043C270 _ZN8Neighbor9setLengthEid
       3446  D75 0043C280 _ZN8NeighborD0Ev
       3447  D76 0043C2C0 _ZN8NeighborD2Ev
       3448  D77 0043C2F0 _ZN8NxsBlock14IsUserSuppliedEv
       3449  D78 0043C300 _ZN8NxsBlock15SkippingCommandE9NxsString
       3450  D79 0043C310 _ZN8NxsBlock17CharLabelToNumberE9NxsString
       3451  D7A 0043C320 _ZN8NxsBlock18TaxonLabelToNumberE9NxsString
       3452  D7B 0043C330 _ZN8NxsBlock4ReadER8NxsToken
       3453  D7C 0043C340 _ZN8NxsBlock5GetIDEv
       3454  D7D 0043C390 _ZN8NxsBlock5ResetEv
       3455  D7E 0043C3A0 _ZN8NxsBlock6EnableEv
       3456  D7F 0043C3B0 _ZN8NxsBlock6ReportERSo
       3457  D80 0043C3C0 _ZN8NxsBlock7DisableEv
       3458  D81 0043C3D0 _ZN8NxsBlock7IsEmptyEv
       3459  D82 0043C3E0 _ZN8NxsBlock8SetNexusEP9NxsReader
       3460  D83 0043C3F0 _ZN8NxsBlock9IsEnabledEv
       3461  D84 0043C400 _ZN8NxsBlockC1Ev
       3462  D85 0043C400 _ZN8NxsBlockC2Ev
       3463  D86 0043C450 _ZN8NxsBlockD0Ev
       3464  D87 0043C4A0 _ZN8NxsBlockD1Ev
       3465  D88 0043C4A0 _ZN8NxsBlockD2Ev
       3466  D89 0043C4F0 _ZN8NxsModelC2ERKS_
       3467  D8A 0043C620 _ZN8NxsModelD0Ev
       3468  D8B 0043C670 _ZN8NxsModelD2Ev
       3469  D8C 0043C6C0 _ZN8NxsToken10GetCommentEv
       3470  D8D 0043C8B0 _ZN8NxsToken11GetNextCharEv
       3471  D8E 0043C9D0 _ZN8NxsToken12AbbreviationE9NxsString
       3472  D8F 0043CB10 _ZN8NxsToken12GetNextTokenEv
       3473  D90 0043D070 _ZN8NxsToken13OutputCommentERK9NxsString
       3474  D91 0043D080 _ZN8NxsToken15StripWhitespaceEv
       3475  D92 0043D170 _ZN8NxsToken20GetDoubleQuotedTokenEv
       3476  D93 0043D1E0 _ZN8NxsToken21GetParentheticalTokenEv
       3477  D94 0043D250 _ZN8NxsToken22GetCurlyBracketedTokenEv
       3478  D95 0043D2C0 _ZN8NxsToken22GetNextContiguousTokenEc
       3479  D96 0043D480 _ZN8NxsToken6BeginsE9NxsStringb
       3480  D97 0043D530 _ZN8NxsToken6EqualsE9NxsStringb
       3481  D98 0043D5C0 _ZN8NxsToken7ToUpperEv
       3482  D99 0043D610 _ZN8NxsToken8GetTokenEb
       3483  D9A 0043D670 _ZN8NxsToken9GetQuotedEv
       3484  D9B 0043D720 _ZN8NxsTokenC1ERSi
       3485  D9C 0043D720 _ZN8NxsTokenC2ERSi
       3486  D9D 0043D7C0 _ZN8NxsTokenD0Ev
       3487  D9E 0043D820 _ZN8NxsTokenD1Ev
       3488  D9F 0043D820 _ZN8NxsTokenD2Ev
       3489  DA0 0043D880 _ZN8ParsTree12findMstScoreEi
       3490  DA1 0043DE10 _ZN8ParsTree15isParsimonyTreeEv
       3491  DA2 0043DE20 _ZN8ParsTree17printPatternScoreEv
       3492  DA3 0043DE30 _ZN8ParsTreeC1EP9Alignment
       3493  DA4 0043DE70 _ZN8ParsTreeC1Ev
       3494  DA5 0043DE30 _ZN8ParsTreeC2EP9Alignment
       3495  DA6 0043DE70 _ZN8ParsTreeC2Ev
       3496  DA7 0043DEB0 _ZN8ParsTreeD0Ev
       3497  DA8 0043DED0 _ZN8ParsTreeD1Ev
       3498  DA9 0043DED0 _ZN8ParsTreeD2Ev
       3499  DAA 0043DEE0 _ZN8PhyloHmm14computeLogProbEv
       3500  DAB 0043DF30 _ZN8PhyloHmm14computeMaxPathEv
       3501  DAC 0043E190 _ZN8PhyloHmm14optimizeProbEMEv
       3502  DAD 0043F110 _ZN8PhyloHmm15computeBackLikeEb
       3503  DAE 0043F8D0 _ZN8PhyloHmm15showSiteLikeCatEv
       3504  DAF 0043FA30 _ZN8PhyloHmm15showTransiteLogEv
       3505  DB0 0043FBC0 _ZN8PhyloHmm18optimizeParametersEd
       3506  DB1 0043FD00 _ZN8PhyloHmm18showSiteCatMaxLikeERSobi
       3507  DB2 00440730 _ZN8PhyloHmm19computeFwdLikeArrayEv
       3508  DB3 00440DD0 _ZN8PhyloHmm19computeMarginalProbEPSo
       3509  DB4 004410B0 _ZN8PhyloHmm20computeBackLikeArrayEv
       3510  DB5 00441780 _ZN8PhyloHmm26computeMarginalTransitProbEv
       3511  DB6 00441A20 _ZN8PhyloHmm29checkEachSiteBackFwdLikeArrayEv
       3512  DB7 00441B20 _ZN8PhyloHmmC1Eii
       3513  DB8 00441E80 _ZN8PhyloHmmC1Ev
       3514  DB9 00441B20 _ZN8PhyloHmmC2Eii
       3515  DBA 00441E80 _ZN8PhyloHmmC2Ev
       3516  DBB 00441EA0 _ZN8PhyloHmmD1Ev
       3517  DBC 00441EA0 _ZN8PhyloHmmD2Ev
       3518  DBD 00441FC0 _ZN8RateFree10targetFunkEPd
       3519  DBE 00442020 _ZN8RateFree11isGammaRateEv
       3520  DBF 00442030 _ZN8RateFree12getVariablesEPd
       3521  DC0 00442930 _ZN8RateFree12rescaleRatesEv
       3522  DC1 00442A10 _ZN8RateFree12setNCategoryEi
       3523  DC2 00442D60 _ZN8RateFree12setVariablesEPd
       3524  DC3 00443320 _ZN8RateFree13getNameParamsB5cxx11Ev
       3525  DC4 00443530 _ZN8RateFree13hasCheckpointEv
       3526  DC5 00443630 _ZN8RateFree14optimizeWithEMEv
       3527  DC6 00444910 _ZN8RateFree14saveCheckpointEv
       3528  DC7 00444A00 _ZN8RateFree15startCheckpointEv
       3529  DC8 00444B30 _ZN8RateFree15writeParametersERSo
       3530  DC9 00444BB0 _ZN8RateFree17restoreCheckpointEv
       3531  DCA 00444E00 _ZN8RateFree18optimizeParametersEd
       3532  DCB 004451F0 _ZN8RateFree19initFromCatMinusOneER10Checkpointd
       3533  DCC 004459A0 _ZN8RateFree7getNDimEv
       3534  DCD 004459D0 _ZN8RateFree7getPropEi
       3535  DCE 004459E0 _ZN8RateFree7setPropEid
       3536  DCF 004459F0 _ZN8RateFree9meanRatesEv
       3537  DD0 00445AB0 _ZN8RateFree9setBoundsEPdS0_Pb
       3538  DD1 00446140 _ZN8RateFree9writeInfoERSo
       3539  DD2 00446250 _ZN8RateFreeC1EidNSt7__cxx1112basic_stringIcSt11char_traitsIcESaIcEEEbS5_P9PhyloTree
       3540  DD3 00446880 _ZN8RateFreeC2EidNSt7__cxx1112basic_stringIcSt11char_traitsIcESaIcEEEbS5_P9PhyloTree
       3541  DD4 00446EA0 _ZN8RateFreeD0Ev
       3542  DD5 00446F20 _ZN8RateFreeD1Ev
       3543  DD6 00446F90 _ZN8RateFreeD2Ev
       3544  DD7 00447000 _ZN8SPRMoves3addEP9PhyloNodeS1_S1_S1_d
       3545  DD8 00447130 _ZN8SequenceC1Ev
       3546  DD9 00447130 _ZN8SequenceC2Ev
       3547  DDA 00447220 _ZN8SplitSet10compatibleEP5Split
       3548  DDB 00447270 _ZN8SplitSet9getWeightEv
       3549  DDC 00447290 _ZN8SplitSet9removeAllEv
       3550  DDD 004472F0 _ZN8SplitSetC1Ev
       3551  DDE 004472F0 _ZN8SplitSetC2Ev
       3552  DDF 00447310 _ZN8SplitSetD0Ev
       3553  DE0 00447390 _ZN8SplitSetD1Ev
       3554  DE1 00447390 _ZN8SplitSetD2Ev
       3555  DE2 00447420 _ZN8StopRule10cmpLnGammaEd
       3556  DE3 00447540 _ZN8StopRule10initializeER6Params
       3557  DE4 004475C0 _ZN8StopRule10readVectorERSt6vectorIdSaIdEE
       3558  DE5 004477C0 _ZN8StopRule11cmpLamdaMatEiRSt6vectorIS0_IdSaIdEESaIS2_EE
       3559  DE6 00447F10 _ZN8StopRule12cmpUpperTimeEid
       3560  DE7 00448030 _ZN8StopRule14cmpExtinctTimeEi
       3561  DE8 00448150 _ZN8StopRule14saveCheckpointEv
       3562  DE9 004482F0 _ZN8StopRule16getRemainingTimeEi
       3563  DEA 004483C0 _ZN8StopRule17meetStopConditionEid
       3564  DEB 00448490 _ZN8StopRule17restoreCheckpointEv
       3565  DEC 00448630 _ZN8StopRule19getUFBootCountCheckERiS0_
       3566  DED 00448690 _ZN8StopRule20addImprovedIterationEi
       3567  DEE 00448710 _ZN8StopRule24getLastImprovedIterationEv
       3568  DEF 00448730 _ZN8StopRule6cmpMuyEi
       3569  DF0 004487C0 _ZN8StopRule7cmpVecAEiRSt6vectorIdSaIdEE
       3570  DF1 00449190 _ZN8StopRule7predictERd
       3571  DF2 00449430 _ZN8StopRule7readMatEPcRSt6vectorIS1_IdSaIdEESaIS3_EERi
       3572  DF3 00449680 _ZN8StopRule8multipleERSt6vectorIS0_IdSaIdEESaIS2_EERS2_S6_
       3573  DF4 00449810 _ZN8StopRule8multipleERSt6vectorIS0_IdSaIdEESaIS2_EES5_S5_
       3574  DF5 00449B70 _ZN8StopRule8multipleERSt6vectorIdSaIdEERS0_IS2_SaIS2_EES3_
       3575  DF6 00449D10 _ZN8StopRule8multipleERSt6vectorIdSaIdEES3_
       3576  DF7 00449DE0 _ZN8StopRule8multipleERSt6vectorIdSaIdEES3_RS0_IS2_SaIS2_EE
       3577  DF8 0044A110 _ZN8StopRule8readFileEPKc
       3578  DF9 0044A580 _ZN8StopRule9cmpInvMatERSt6vectorIS0_IdSaIdEESaIS2_EES5_i
       3579  DFA 0044B3B0 _ZN8StopRuleC1Ev
       3580  DFB 0044B3B0 _ZN8StopRuleC2Ev
       3581  DFC 0044B460 _ZN8StopRuleD0Ev
       3582  DFD 0044B490 _ZN8StopRuleD1Ev
       3583  DFE 0044B490 _ZN8StopRuleD2Ev
       3584  DFF 0044B4B0 _ZN8terraces10root_splitERKSt6vectorINS_4nodeESaIS1_EEy
       3585  E00 0044B960 _ZN8terraces10union_find16make_bipartitionERKSt6vectorIbSaIbEENS_5utils15stack_allocatorIyEE
       3586  E01 0044BB50 _ZN8terraces10union_find4findEy
       3587  E02 0044BC10 _ZN8terraces10union_find5mergeEyy
       3588  E03 0044BD80 _ZN8terraces10union_find8compressEv
       3589  E04 0044BE70 _ZN8terraces10union_findC1EyNS_5utils15stack_allocatorIyEE
       3590  E05 0044BE70 _ZN8terraces10union_findC2EyNS_5utils15stack_allocatorIyEE
       3591  E06 0044BEA0 _ZN8terraces10union_findD2Ev
       3592  E07 0044BED0 _ZN8terraces11induced_lcaERKSt6vectorINS_4nodeESaIS1_EERKNS_9bitmatrixEy
       3593  E08 0044C730 _ZN8terraces12bipartitionsC1ERKNS_22basic_ranked_bitvectorINS_5utils15stack_allocatorIyEEEERKNS_10union_findES4_
       3594  E09 0044C730 _ZN8terraces12bipartitionsC2ERKNS_22basic_ranked_bitvectorINS_5utils15stack_allocatorIyEEEERKNS_10union_findES4_
       3595  E0A 0044C810 _ZN8terraces12bipartitionsD2Ev
       3596  E0B 0044C870 _ZN8terraces12checked_uintILb0EEC1Ey
       3597  E0C 0044C880 _ZN8terraces12checked_uintILb0EEC2Ey
       3598  E0D 0044C890 _ZN8terraces12checked_uintILb0EEmLES1_
       3599  E0E 0044C8B0 _ZN8terraces12checked_uintILb0EEpLES1_
       3600  E0F 0044C8D0 _ZN8terraces12checked_uintILb1EEC1Ey
       3601  E10 0044C8E0 _ZN8terraces12checked_uintILb1EEC2Ey
       3602  E11 0044C8F0 _ZN8terraces12checked_uintILb1EEmLES1_
       3603  E12 0044C960 _ZN8terraces12checked_uintILb1EEpLES1_
       3604  E13 0044C9C0 _ZN8terraces13check_terraceERKNS_14supertree_dataE
       3605  E14 0044CA60 _ZN8terraces13count_terraceERKNS_14supertree_dataE
       3606  E15 0044CB10 _ZN8terraces13parse_new_nwkERKNSt7__cxx1112basic_stringIcSt11char_traitsIcESaIcEEE
       3607  E16 0044DA10 _ZN8terraces13print_terraceERKNS_14supertree_dataERKSt6vectorINSt7__cxx1112basic_stringIcSt11char_traitsIcESaIcEEESaIS9_EERSo
       3608  E17 0044DC90 _ZN8terraces14multitree_impl14storage_blocksINS_14multitree_nodeEE3getEv
       3609  E18 0044DDB0 _ZN8terraces14multitree_impl14storage_blocksINS_14multitree_nodeEE9get_rangeEy
       3610  E19 0044DF20 _ZN8terraces14multitree_impl14storage_blocksINS_14multitree_nodeEED2Ev
       3611  E1A 0044DF80 _ZN8terraces14multitree_impl14storage_blocksIyE9get_rangeEy
       3612  E1B 0044E090 _ZN8terraces14print_tree_dotERKSt6vectorINS_4nodeESaIS1_EERKS0_INSt7__cxx1112basic_stringIcSt11char_traitsIcESaIcEEESaISB_EERSob
       3613  E1C 0044E300 _ZN8terraces14reroot_at_nodeERKSt6vectorINS_4nodeESaIS1_EEy
       3614  E1D 0044EAF0 _ZN8terraces15bad_input_errorC1ENS_20bad_input_error_typeE
       3615  E1E 0044EB60 _ZN8terraces15bad_input_errorC1ENS_20bad_input_error_typeENSt7__cxx1112basic_stringIcSt11char_traitsIcESaIcEEE
       3616  E1F 0044EAF0 _ZN8terraces15bad_input_errorC2ENS_20bad_input_error_typeE
       3617  E20 0044EB60 _ZN8terraces15bad_input_errorC2ENS_20bad_input_error_typeENSt7__cxx1112basic_stringIcSt11char_traitsIcESaIcEEE
       3618  E21 0044ED80 _ZN8terraces15bad_input_errorD0Ev
       3619  E22 0044EDA0 _ZN8terraces15basic_bitvectorINS_5utils15stack_allocatorIyEEED2Ev
       3620  E23 0044EDD0 _ZN8terraces15full_ranked_setINS_5utils15stack_allocatorIyEEEENS_22basic_ranked_bitvectorIT_EEyS5_
       3621  E24 0044EFC0 _ZN8terraces15map_constraintsERKNS_22basic_ranked_bitvectorINS_5utils15stack_allocatorIyEEEERKSt6vectorINS_10constraintESaIS8_EE
       3622  E25 0044F1D0 _ZN8terraces15parse_bitmatrixERSi
       3623  E26 0044FB10 _ZN8terraces15tree_enumeratorINS_8variants14check_callbackEE14init_freelistsEyy
       3624  E27 0044FC50 _ZN8terraces15tree_enumeratorINS_8variants14check_callbackEE3runERKNS_22basic_ranked_bitvectorINS_5utils15stack_allocatorIyEEEERKNS_15basic_bitvectorIS7_EE
       3625  E28 0044FEE0 _ZN8terraces15tree_enumeratorINS_8variants14check_callbackEE3runEyRKSt6vectorINS_10constraintESaIS5_EERKS4_IbSaIbEE
       3626  E29 004503F0 _ZN8terraces15tree_enumeratorINS_8variants14check_callbackEE3runEyRKSt6vectorINS_10constraintESaIS5_EEy
       3627  E2A 00450550 _ZN8terraces15tree_enumeratorINS_8variants14check_callbackEE7iterateERNS_12bipartitionsERKNS_15basic_bitvectorINS_5utils15stack_allocatorIyEEEE
       3628  E2B 004506B0 _ZN8terraces15tree_enumeratorINS_8variants14check_callbackEED2Ev
       3629  E2C 004507C0 _ZN8terraces15tree_enumeratorINS_8variants14count_callbackINS_12checked_uintILb1EEEEEE14init_freelistsEyy
       3630  E2D 00450900 _ZN8terraces15tree_enumeratorINS_8variants14count_callbackINS_12checked_uintILb1EEEEEE3runERKNS_22basic_ranked_bitvectorINS_5utils15stack_allocatorIyEEEERKNS_15basic_bitvectorISA_EE
       3631  E2E 00450C60 _ZN8terraces15tree_enumeratorINS_8variants14count_callbackINS_12checked_uintILb1EEEEEE3runEyRKSt6vectorINS_10constraintESaIS8_EERKS7_IbSaIbEE
       3632  E2F 00451170 _ZN8terraces15tree_enumeratorINS_8variants14count_callbackINS_12checked_uintILb1EEEEEE3runEyRKSt6vectorINS_10constraintESaIS8_EEy
       3633  E30 004512D0 _ZN8terraces15tree_enumeratorINS_8variants14count_callbackINS_12checked_uintILb1EEEEEE7iterateERNS_12bipartitionsERKNS_15basic_bitvectorINS_5utils15stack_allocatorIyEEEE
       3634  E31 00451430 _ZN8terraces15tree_enumeratorINS_8variants14count_callbackINS_12checked_uintILb1EEEEEED2Ev
       3635  E32 00451540 _ZN8terraces15tree_enumeratorINS_8variants18multitree_callbackEE14init_freelistsEyy
       3636  E33 00451690 _ZN8terraces15tree_enumeratorINS_8variants18multitree_callbackEE3runERKNS_22basic_ranked_bitvectorINS_5utils15stack_allocatorIyEEEERKNS_15basic_bitvectorIS7_EE
       3637  E34 00451A50 _ZN8terraces15tree_enumeratorINS_8variants18multitree_callbackEE3runEyRKSt6vectorINS_10constraintESaIS5_EERKS4_IbSaIbEE
       3638  E35 00451F70 _ZN8terraces15tree_enumeratorINS_8variants18multitree_callbackEE3runEyRKSt6vectorINS_10constraintESaIS5_EEy
       3639  E36 004520D0 _ZN8terraces15tree_enumeratorINS_8variants18multitree_callbackEE7iterateERNS_12bipartitionsERKNS_15basic_bitvectorINS_5utils15stack_allocatorIyEEEE
       3640  E37 00452360 _ZN8terraces15tree_enumeratorINS_8variants18multitree_callbackEED2Ev
       3641  E38 00452530 _ZN8terraces15tree_enumeratorINS_8variants22clamped_count_callbackEE14init_freelistsEyy
       3642  E39 00452670 _ZN8terraces15tree_enumeratorINS_8variants22clamped_count_callbackEE3runERKNS_22basic_ranked_bitvectorINS_5utils15stack_allocatorIyEEEERKNS_15basic_bitvectorIS7_EE
       3643  E3A 004529D0 _ZN8terraces15tree_enumeratorINS_8variants22clamped_count_callbackEE3runEyRKSt6vectorINS_10constraintESaIS5_EERKS4_IbSaIbEE
       3644  E3B 00452EE0 _ZN8terraces15tree_enumeratorINS_8variants22clamped_count_callbackEE3runEyRKSt6vectorINS_10constraintESaIS5_EEy
       3645  E3C 00453040 _ZN8terraces15tree_enumeratorINS_8variants22clamped_count_callbackEE7iterateERNS_12bipartitionsERKNS_15basic_bitvectorINS_5utils15stack_allocatorIyEEEE
       3646  E3D 004531B0 _ZN8terraces15tree_enumeratorINS_8variants22clamped_count_callbackEED2Ev
       3647  E3E 004532C0 _ZN8terraces16compute_node_occERKSt6vectorINS_4nodeESaIS1_EERKNS_9bitmatrixE
       3648  E3F 00453860 _ZN8terraces17apply_constraintsERKNS_22basic_ranked_bitvectorINS_5utils15stack_allocatorIyEEEERKNS_15basic_bitvectorIS3_EERKSt6vectorINS_10constraintESaISC_EES3_
       3649  E40 00453A60 _ZN8terraces17check_rooted_treeERKSt6vectorINS_4nodeESaIS1_EE
       3650  E41 00453D00 _ZN8terraces17enumerate_terraceERKNS_14supertree_dataESt8functionIFvRKSt6vectorINS_4nodeESaIS5_EEEE
       3651  E42 00453F10 _ZN8terraces17tree_bipartitionsERKSt6vectorINS_4nodeESaIS1_EE
       3652  E43 00454A90 _ZN8terraces18fast_count_terraceERKNS_14supertree_dataE
       3653  E44 00454B30 _ZN8terraces18filter_constraintsERKNS_22basic_ranked_bitvectorINS_5utils15stack_allocatorIyEEEERKNS_15basic_bitvectorIS3_EERKSt6vectorINS_10constraintESaISC_EES3_
       3654  E45 00454D80 _ZN8terraces18multitree_iterator12init_subtreeEy
       3655  E46 00454F20 _ZN8terraces18multitree_iterator12init_subtreeEyNS_15multitree_nodes10inner_nodeE
       3656  E47 00455020 _ZN8terraces18multitree_iterator12init_subtreeEyNS_15multitree_nodes10two_leavesE
       3657  E48 00455080 _ZN8terraces18multitree_iterator12init_subtreeEyNS_15multitree_nodes13unconstrainedE
       3658  E49 00455110 _ZN8terraces18multitree_iterator12init_subtreeEyy
       3659  E4A 00455130 _ZN8terraces18multitree_iterator18next_unconstrainedEyNS_15multitree_nodes13unconstrainedE
       3660  E4B 004552A0 _ZN8terraces18multitree_iterator19reset_unconstrainedEyNS_15multitree_nodes13unconstrainedE
       3661  E4C 004552F0 _ZN8terraces18multitree_iterator26init_subtree_unconstrainedEyNS_15multitree_nodes13unconstrainedE
       3662  E4D 004554C0 _ZN8terraces18multitree_iterator4nextEv
       3663  E4E 004554D0 _ZN8terraces18multitree_iterator4nextEy
       3664  E4F 00455630 _ZN8terraces18multitree_iterator5resetEy
       3665  E50 00455730 _ZN8terraces18multitree_iteratorC1EPKNS_14multitree_nodeE
       3666  E51 00455730 _ZN8terraces18multitree_iteratorC2EPKNS_14multitree_nodeE
       3667  E52 00455A10 _ZN8terraces18multitree_iteratorD2Ev
       3668  E53 00455A50 _ZN8terraces19compute_constraintsERKSt6vectorIS0_INS_4nodeESaIS1_EESaIS3_EE
       3669  E54 00456350 _ZN8terraces20count_terrace_bigintERKNS_14supertree_dataE
       3670  E55 004563D0 _ZN8terraces20is_isomorphic_rootedERKSt6vectorINS_4nodeESaIS1_EES5_
       3671  E56 00456420 _ZN8terraces20no_usable_root_errorCI2St13runtime_errorEPKc
       3672  E57 00456440 _ZN8terraces20no_usable_root_errorD0Ev
       3673  E58 00456460 _ZN8terraces20print_multitree_nodeERSoPKNS_14multitree_nodeERKSt6vectorINSt7__cxx1112basic_stringIcSt11char_traitsIcESaIcEEESaISA_EE
       3674  E59 00456910 _ZN8terraces21create_supertree_dataERKSt6vectorINS_4nodeESaIS1_EERKNS_9bitmatrixE
       3675  E5A 00456CC0 _ZN8terraces22basic_ranked_bitvectorINS_5utils15stack_allocatorIyEEED2Ev
       3676  E5B 00456D20 _ZN8terraces22is_isomorphic_unrootedERKSt6vectorINS_4nodeESaIS1_EES5_
       3677  E5C 00456F00 _ZN8terraces23deduplicate_constraintsERSt6vectorINS_10constraintESaIS1_EE
       3678  E5D 004573D0 _ZN8terraces23reroot_at_taxon_inplaceERSt6vectorINS_4nodeESaIS1_EEy
       3679  E5E 00457530 _ZN8terraces24find_comprehensive_taxonERKNS_9bitmatrixE
       3680  E5F 004575D0 _ZN8terraces24print_terrace_compressedERKNS_14supertree_dataERKSt6vectorINSt7__cxx1112basic_stringIcSt11char_traitsIcESaIcEEESaIS9_EERSo
       3681  E60 00457780 _ZN8terraces25is_isomorphic_rooted_implERKSt6vectorINS_4nodeESaIS1_EES5_yy
       3682  E61 004578A0 _ZN8terraces25tree_count_overflow_errorCI2St14overflow_errorEPKc
       3683  E62 004578C0 _ZN8terraces25tree_count_overflow_errorD0Ev
       3684  E63 004578E0 _ZN8terraces31maximum_comprehensive_columnsetERKNS_9bitmatrixE
       3685  E64 00457BF0 _ZN8terraces5utils15stack_allocatorIyE10deallocateEPyy
       3686  E65 00457DB0 _ZN8terraces7parsing10next_tokenIN9__gnu_cxx17__normal_iteratorIPKcNSt7__cxx1112basic_stringIcSt11char_traitsIcESaIcEEEEEEENS0_5tokenERT_SE_
       3687  E66 00458490 _ZN8terraces7subtreeERKSt6vectorINS_4nodeESaIS1_EERKNS_9bitmatrixERKS0_IySaIyEEy
       3688  E67 00458BE0 _ZN8terraces8leaf_occERKSt6vectorINS_4nodeESaIS1_EENS_5utils15stack_allocatorIyEE
       3689  E68 00458DF0 _ZN8terraces8preorderERKSt6vectorINS_4nodeESaIS1_EE
       3690  E69 004593B0 _ZN8terraces8subtreesERKSt6vectorINS_4nodeESaIS1_EERKNS_9bitmatrixE
       3691  E6A 00459500 _ZN8terraces8variants18multitree_callback18base_unconstrainedERKNS_22basic_ranked_bitvectorINS_5utils15stack_allocatorIyEEEE
       3692  E6B 00459960 _ZN8terraces9bitmatrix3setEyyb
       3693  E6C 00459A00 _ZN8terraces9bitmatrix6row_orEyyy
       3694  E6D 00459C50 _ZN8terraces9bitmatrixC1Eyy
       3695  E6E 00459C50 _ZN8terraces9bitmatrixC2Eyy
       3696  E6F 00459D60 _ZN8terraces9bitmatrixD2Ev
       3697  E70 00459DB0 _ZN8terraces9parse_nwkERKNSt7__cxx1112basic_stringIcSt11char_traitsIcESaIcEEERKSt13unordered_mapIS5_ySt4hashIS5_ESt8equal_toIS5_ESaISt4pairIS6_yEEE
       3698  E71 0045A990 _ZN8terraces9postorderERKSt6vectorINS_4nodeESaIS1_EE
       3699  E72 0045AF50 _ZN8terraceseqILb0EEEbNS_12checked_uintIXT_EEES2_
       3700  E73 0045AF60 _ZN8terraceseqILb1EEEbNS_12checked_uintIXT_EEES2_
       3701  E74 0045AF70 _ZN8terraceslsERSoNS_18newick_multitree_tE
       3702  E75 0045AF80 _ZN8terraceslsERSoNS_5utils12named_outputISt6vectorINS_10constraintESaIS4_EES3_INSt7__cxx1112basic_stringIcSt11char_traitsIcESaIcEEESaISC_EEEE
       3703  E76 0045B080 _ZN8terraceslsERSoNS_8newick_tE
       3704  E77 0045B4D0 _ZN8terraceslsERSoRKNS_10constraintE
       3705  E78 0045B590 _ZN8terraceslsILb0EEERSoS1_NS_12checked_uintIXT_EEE
       3706  E79 0045B5D0 _ZN8terraceslsILb1EEERSoS1_NS_12checked_uintIXT_EEE
       3707  E7A 0045B610 _ZN8terracesmlILb0EEENS_12checked_uintIXT_EEES2_S2_
       3708  E7B 0045B630 _ZN8terracesmlILb1EEENS_12checked_uintIXT_EEES2_S2_
       3709  E7C 0045B690 _ZN8terracesneILb0EEEbNS_12checked_uintIXT_EEES2_
       3710  E7D 0045B6A0 _ZN8terracesneILb1EEEbNS_12checked_uintIXT_EEES2_
       3711  E7E 0045B6B0 _ZN8terracesplILb0EEENS_12checked_uintIXT_EEES2_S2_
       3712  E7F 0045B6C0 _ZN8terracesplILb1EEENS_12checked_uintIXT_EEES2_S2_
       3713  E80 0045B720 _ZN9Alignment10addPatternER7Patternii
       3714  E81 0045B760 _ZN9Alignment10addSeqNameENSt7__cxx1112basic_stringIcSt11char_traitsIcESaIcEEE
       3715  E82 0045B810 _ZN9Alignment10getSeqNameB5cxx11Ei
       3716  E83 0045B8D0 _ZN9Alignment10getSeqTypeEPKc
       3717  E84 0045BA00 _ZN9Alignment10printFastaERSobPKciS2_
       3718  E85 0045BC90 _ZN9Alignment10printNexusERSobPKciS2_b
       3719  E86 0045C3C0 _ZN9Alignment10readPhylipEPcS0_
       3720  E87 0045C490 _ZN9Alignment10readStrVecERSt6vectorINSt7__cxx1112basic_stringIcSt11char_traitsIcESaIcEEESaIS6_EES9_Pc
       3721  E88 0045D0E0 _ZN9Alignment11computeDistEii
       3722  E89 0045D160 _ZN9Alignment11countStatesEPyy
       3723  E8A 0045D350 _ZN9Alignment11doReadFastaEPcS0_RSt6vectorINSt7__cxx1112basic_stringIcSt11char_traitsIcESaIcEEESaIS7_EERiSB_
       3724  E8B 0045E2E0 _ZN9Alignment11generateRefERSt6vectorINSt7__cxx1112basic_stringIcSt11char_traitsIcESaIcEEESaIS6_EE
       3725  E8C 0045E9E0 _ZN9Alignment11getSeqNamesB5cxx11Ev
       3726  E8D 0045E9F0 _ZN9Alignment11isStopCodonEi
       3727  E8E 0045EA00 _ZN9Alignment11printPhylipERSobPKciS2_b
       3728  E8F 0045EF70 _ZN9Alignment11readClustalEPcS0_
       3729  E90 0045F040 _ZN9Alignment12buildPatternERSt6vectorINSt7__cxx1112basic_stringIcSt11char_traitsIcESaIcEEESaIS6_EEPcii
       3730  E91 00460D90 _ZN9Alignment12checkSeqNameEv
       3731  E92 004623B0 _ZN9Alignment12computeConstER7Pattern
       3732  E93 004629F0 _ZN9Alignment12convertStateEc
       3733  E94 00462A10 _ZN9Alignment12convertStateEcN3PML7SeqTypeE
       3734  E95 00462D00 _ZN9Alignment12doReadPhylipEPcS0_RSt6vectorINSt7__cxx1112basic_stringIcSt11char_traitsIcESaIcEEESaIS7_EERiSB_
       3735  E96 00463AA0 _ZN9Alignment12extractSitesEPS_PKcb
       3736  E97 00463B30 _ZN9Alignment12extractSitesEPS_RSt6vectorIiSaIiEE
       3737  E98 00464000 _ZN9Alignment12isGapOnlySeqEy
       3738  E99 004640F0 _ZN9Alignment13buildStateMapEPcN3PML7SeqTypeE
       3739  E9A 004644A0 _ZN9Alignment13checkGappySeqEb
       3740  E9B 004646F0 _ZN9Alignment13computeJCDistEii
       3741  E9C 00464770 _ZN9Alignment13copyAlignmentEPS_
       3742  E9D 00464B10 _ZN9Alignment13doReadClustalEPcS0_RSt6vectorINSt7__cxx1112basic_stringIcSt11char_traitsIcESaIcEEESaIS7_EERiSB_
       3743  E9E 004657D0 _ZN9Alignment13getAppearanceEjPd
       3744  E9F 00465B40 _ZN9Alignment13getAppearanceEjRSt6bitsetILy256EE
       3745  EA0 00465D50 _ZN9Alignment13getSeqTypeStrB5cxx11EN3PML7SeqTypeE
       3746  EA1 00465E20 _ZN9Alignment13printSiteGapsEPKc
       3747  EA2 00466440 _ZN9Alignment13printSiteInfoEPKc
       3748  EA3 00466540 _ZN9Alignment13printSiteInfoERSoi
       3749  EA4 00466830 _ZN9Alignment14addPatternLazyER7PatterniiRb
       3750  EA5 00466A10 _ZN9Alignment14computeObsDistEii
       3751  EA6 00466DE0 _ZN9Alignment14countConstSiteEv
       3752  EA7 00466FD0 _ZN9Alignment14getPatternFreqEPi
       3753  EA8 00467140 _ZN9Alignment14getPatternFreqERSt6vectorIiSaIiEE
       3754  EA9 004672F0 _ZN9Alignment14outputMutationERSt14basic_ofstreamIcSt11char_traitsIcEEcii
       3755  EAA 004673E0 _ZN9Alignment14printAlignmentE9InputTypePKcbS2_iS2_
       3756  EAB 00467690 _ZN9Alignment14printAlignmentE9InputTypeRSoPKcbS3_iS3_
       3757  EAC 00467940 _ZN9Alignment14removeGappySeqEv
       3758  EAD 00467CC0 _ZN9Alignment14updatePatternsEy
       3759  EAE 00467D20 _ZN9Alignment15countProperCharEi
       3760  EAF 00467D70 _ZN9Alignment15extractPatternsEPS_RSt6vectorIiSaIiEE
       3761  EB0 004684A0 _ZN9Alignment15getMaxNumStatesEv
       3762  EB1 004684B0 _ZN9Alignment15multinomialProbEPdRd
       3763  EB2 00468E30 _ZN9Alignment15multinomialProbERSt6vectorIiSaIiEE
       3764  EB3 004690B0 _ZN9Alignment15multinomialProbES_Rd
       3765  EB4 00469390 _ZN9Alignment15multinomialProbESt6vectorIdSaIdEERd
       3766  EB5 00469EB0 _ZN9Alignment16addConstPatternsEPc
       3767  EB6 0046A2C0 _ZN9Alignment16computeCodonFreqE13StateFreqTypePdS1_NSt7__cxx1112basic_stringIcSt11char_traitsIcESaIcEEE
       3768  EB7 0046C280 _ZN9Alignment16computeStateFreqEPdy
       3769  EB8 0046C3C0 _ZN9Alignment16convertCodonToAAEv
       3770  EB9 0046C990 _ZN9Alignment16convertPomoStateEi
       3771  EBA 0046CC90 _ZN9Alignment16convertStateBackEc
       3772  EBB 0046CD80 _ZN9Alignment16extractDataBlockEP18NxsCharactersBlock
       3773  EBC 0046E160 _ZN9Alignment16extractMapleFileERKNSt7__cxx1112basic_stringIcSt11char_traitsIcESaIcEEERK9InputType
       3774  EBD 0046E520 _ZN9Alignment16extractMutationsERSt6vectorINSt7__cxx1112basic_stringIcSt11char_traitsIcESaIcEEESaIS6_EES9_RS6_RSt14basic_ofstreamIcS4_E
       3775  EBE 0046EC50 _ZN9Alignment16extractSequencesEPcS0_RSt6vectorINSt7__cxx1112basic_stringIcSt11char_traitsIcESaIcEEESaIS7_EERiSB_
       3776  EBF 0046F0E0 _ZN9Alignment16isSuperAlignmentEv
       3777  EC0 0046F0F0 _ZN9Alignment16readCountsFormatEPcS0_
       3778  EC1 00472C80 _ZN9Alignment16shuffleAlignmentEv
       3779  EC2 00472D10 _ZN9Alignment17checkAbsentStatesENSt7__cxx1112basic_stringIcSt11char_traitsIcESaIcEEE
       3780  EC3 004732E0 _ZN9Alignment17checkIdenticalSeqEv
       3781  EC4 00473740 _ZN9Alignment17convertCodonToDNAEv
       3782  EC5 00473E30 _ZN9Alignment17readSiteStateFreqEPKc
       3783  EC6 00475200 _ZN9Alignment18convertCountToFreqEPyPd
       3784  EC7 00475A00 _ZN9Alignment18convertToCodonOrAAEPS_Pcb
       3785  EC8 00476B10 _ZN9Alignment18detectSequenceTypeERSt6vectorINSt7__cxx1112basic_stringIcSt11char_traitsIcESaIcEEESaIS6_EE
       3786  EC9 00476D90 _ZN9Alignment18getSiteFromResidueEiRiS0_
       3787  ECA 00477110 _ZN9Alignment18regroupSitePatternEiRSt6vectorIiSaIiEE
       3788  ECB 004776E0 _ZN9Alignment18removeIdenticalSeqENSt7__cxx1112basic_stringIcSt11char_traitsIcESaIcEEEbRSt6vectorIS5_SaIS5_EES9_
       3789  ECC 00478470 _ZN9Alignment18ungroupSitePatternEv
       3790  ECD 004786B0 _ZN9Alignment19buildRetainingSitesEPKcRSt6vectorIiSaIiEEiS1_
       3791  ECE 004791C0 _ZN9Alignment19computeUnknownStateEv
       3792  ECF 00479210 _ZN9Alignment19convertStateBackStrB5cxx11Ej
       3793  ED0 00479680 _ZN9Alignment19countStatesForSitesEyyPy
       3794  ED1 00479770 _ZN9Alignment19extractPatternFreqsEPS_RSt6vectorIiSaIiEE
       3795  ED2 00479F50 _ZN9Alignment19extractSubAlignmentEPS_RSt6vectorIiSaIiEEiiPS3_
       3796  ED3 0047AAB0 _ZN9Alignment19getMaxSeqNameLengthEv
       3797  ED4 0047AB20 _ZN9Alignment19getNumNonstopCodonsEv
       3798  ED5 0047ABF0 _ZN9Alignment19getSitePatternIndexERSt6vectorIiSaIiEE
       3799  ED6 0047AC10 _ZN9Alignment19printSiteInfoHeaderERSoPKcb
       3800  ED7 0047B040 _ZN9Alignment19setExpectedNumSitesEi
       3801  ED8 0047B050 _ZN9Alignment20buildFromPatternFreqERS_St6vectorIiSaIiEE
       3802  ED9 0047B440 _ZN9Alignment20concatenateAlignmentEPS_
       3803  EDA 0047BC90 _ZN9Alignment20readPhylipSequentialEPcS0_
       3804  EDB 0047BD60 _ZN9Alignment21countStatePerSequenceEPj
       3805  EDC 0047BE30 _ZN9Alignment21generateUninfPatternsEjRSt6vectorIjSaIjEERS0_IiSaIiEERS0_I7PatternSaIS7_EE
       3806  EDD 0047C210 _ZN9Alignment21isStandardGeneticCodeEv
       3807  EDE 0047C240 _ZN9Alignment22computeQuartetSupportsERSt6vectorIiSaIiEERS0_IxSaIxEE
       3808  EDF 0047C470 _ZN9Alignment22doReadPhylipSequentialEPcS0_RSt6vectorINSt7__cxx1112basic_stringIcSt11char_traitsIcESaIcEEESaIS7_EERiSB_
       3809  EE0 0047D300 _ZN9Alignment22orderPatternByNumCharsEi
       3810  EE1 0047D950 _ZN9Alignment23computeDivergenceMatrixEPdS0_b
       3811  EE2 0047E3F0 _ZN9Alignment24computeAbsoluteStateFreqEPj
       3812  EE3 0047E4D0 _ZN9Alignment24computeUnconstrainedLogLEv
       3813  EE4 0047E630 _ZN9Alignment24createBootstrapAlignmentEPS_PSt6vectorIiSaIiEEPKc
       3814  EE5 0047FDB0 _ZN9Alignment24createBootstrapAlignmentEPiPKcS0_
       3815  EE6 00480B30 _ZN9Alignment24createBootstrapAlignmentERSt6vectorIiSaIiEEPKc
       3816  EE7 00480CB0 _ZN9Alignment24createGapMaskedAlignmentEPS_S0_
       3817  EE8 00481660 _ZN9Alignment26getCodonStateTypeFromSitesEcccNSt7__cxx1112basic_stringIcSt11char_traitsIcESaIcEEEiRNS0_19basic_ostringstreamIcS3_S4_EERi
       3818  EE9 00481A90 _ZN9Alignment26getUnobservedConstPatternsE7ASCTypeRSt6vectorI7PatternSaIS2_EE
       3819  EEA 004827F0 _ZN9Alignment27computeStateFreqPerSequenceEPd
       3820  EEB 004830F0 _ZN9Alignment7readMSFEPcS0_
       3821  EEC 004831C0 _ZN9Alignment8convfreqEPd
       3822  EED 004832B0 _ZN9Alignment8getNSiteEv
       3823  EEE 00483320 _ZN9Alignment8getSeqIDERNSt7__cxx1112basic_stringIcSt11char_traitsIcESaIcEEE
       3824  EEF 004833A0 _ZN9Alignment8readDistEPKcPd
       3825  EF0 004836E0 _ZN9Alignment8readDistERSiPd
       3826  EF1 004846B0 _ZN9Alignment9doReadMSFEPcS0_RSt6vectorINSt7__cxx1112basic_stringIcSt11char_traitsIcESaIcEEESaIS7_EERiSB_
       3827  EF2 00485F00 _ZN9Alignment9doSymTestEyRSt6vectorI13SymTestResultSaIS1_EES4_S4_PiPS0_I11SymTestStatSaIS6_EE
       3828  EF3 004893E0 _ZN9Alignment9initCodonEPc
       3829  EF4 00489780 _ZN9Alignment9printDistEPKcPd
       3830  EF5 00489920 _ZN9Alignment9printDistERSoPd
       3831  EF6 00489B90 _ZN9Alignment9readFastaEPcS0_
       3832  EF7 00489C60 _ZN9Alignment9readNexusEPc
       3833  EF8 00489F00 _ZN9AlignmentC1EP12NxsDataBlockPcNSt7__cxx1112basic_stringIcSt11char_traitsIcESaIcEEE
       3834  EF9 0048A580 _ZN9AlignmentC1EPcS0_R9InputTypeNSt7__cxx1112basic_stringIcSt11char_traitsIcESaIcEEE
       3835  EFA 0048B890 _ZN9AlignmentC1ERSt6vectorINSt7__cxx1112basic_stringIcSt11char_traitsIcESaIcEEESaIS6_EES9_PcS6_
       3836  EFB 0048C040 _ZN9AlignmentC1Ev
       3837  EFC 00489F00 _ZN9AlignmentC2EP12NxsDataBlockPcNSt7__cxx1112basic_stringIcSt11char_traitsIcESaIcEEE
       3838  EFD 0048A580 _ZN9AlignmentC2EPcS0_R9InputTypeNSt7__cxx1112basic_stringIcSt11char_traitsIcESaIcEEE
       3839  EFE 0048B2B0 _ZN9AlignmentC2ERKS_
       3840  EFF 0048B890 _ZN9AlignmentC2ERSt6vectorINSt7__cxx1112basic_stringIcSt11char_traitsIcESaIcEEESaIS6_EES9_PcS6_
       3841  F00 0048C040 _ZN9AlignmentC2Ev
       3842  F01 0048C270 _ZN9AlignmentD0Ev
       3843  F02 0048C290 _ZN9AlignmentD1Ev
       3844  F03 0048C290 _ZN9AlignmentD2Ev
       3845  F04 0048C5E0 _ZN9CkpStreamD0Ev
       3846  F05 0048C680 _ZN9CkpStreamD1Ev
       3847  F06 0048C720 _ZN9IQTreeMix10targetFunkEPd
       3848  F07 0048C770 _ZN9IQTreeMix10treeLengthEP4NodeS1_
       3849  F08 0048C810 _ZN9IQTreeMix11getNumLhCatE12SiteLoglType
       3850  F09 0048CA00 _ZN9IQTreeMix11getPostProbEPdbib
       3851  F0A 0048CBD0 _ZN9IQTreeMix11setRootNodeEPKcb
       3852  F0B 0048CC40 _ZN9IQTreeMix12getBestTreesB5cxx11Ei
       3853  F0C 0048D240 _ZN9IQTreeMix12getModelNameB5cxx11Ev
       3854  F0D 0048D950 _ZN9IQTreeMix12getVariablesEPd
       3855  F0E 0048DD60 _ZN9IQTreeMix12initSettingsER6Params
       3856  F0F 0048DDC0 _ZN9IQTreeMix12setVariablesEPd
       3857  F10 0048E090 _ZN9IQTreeMix13getTreeStringB5cxx11Ev
       3858  F11 0048E240 _ZN9IQTreeMix13separateModelENSt7__cxx1112basic_stringIcSt11char_traitsIcESaIcEEE
       3859  F12 004917E0 _ZN9IQTreeMix13setCheckpointEP10Checkpoint
       3860  F13 00491850 _ZN9IQTreeMix13setNumThreadsEi
       3861  F14 00491CC0 _ZN9IQTreeMix14checkBranchGrpEv
       3862  F15 00491FF0 _ZN9IQTreeMix14checkWeightGrpEv
       3863  F16 004921B0 _ZN9IQTreeMix14getNParametersEv
       3864  F17 004929D0 _ZN9IQTreeMix14readTreeStringERKNSt7__cxx1112basic_stringIcSt11char_traitsIcESaIcEEE
       3865  F18 00492C40 _ZN9IQTreeMix14saveCheckpointEv
       3866  F19 00493110 _ZN9IQTreeMix14storeTree0RHASEv
       3867  F1A 00493270 _ZN9IQTreeMix14testNumThreadsEv
       3868  F1B 004932A0 _ZN9IQTreeMix15computeBranchIDEv
       3869  F1C 004944B0 _ZN9IQTreeMix15copyRHASfrTree0Ei
       3870  F1D 004945F0 _ZN9IQTreeMix15getModelFactoryEv
       3871  F1E 00494630 _ZN9IQTreeMix15initializeModelER6ParamsNSt7__cxx1112basic_stringIcSt11char_traitsIcESaIcEEEP11ModelsBlock
       3872  F1F 00495660 _ZN9IQTreeMix15printResultTreeENSt7__cxx1112basic_stringIcSt11char_traitsIcESaIcEEE
       3873  F20 00495B10 _ZN9IQTreeMix15setMinBranchLenER6Params
       3874  F21 00495BD0 _ZN9IQTreeMix15startCheckpointEv
       3875  F22 00495D10 _ZN9IQTreeMix16computeFreqArrayEPdbi
       3876  F23 00495E90 _ZN9IQTreeMix16computeParsimonyEv
       3877  F24 00496200 _ZN9IQTreeMix16getBranchLengthsERSt6vectorIS0_IdSaIdEESaIS2_EEP4NodeS7_
       3878  F25 004962C0 _ZN9IQTreeMix16resetPtnOrigFreqEv
       3879  F26 00496340 _ZN9IQTreeMix16setBranchLengthsERSt6vectorIS0_IdSaIdEESaIS2_EEP4NodeS7_
       3880  F27 00496470 _ZN9IQTreeMix17clearAllPartialLHEb
       3881  F28 004964D0 _ZN9IQTreeMix17computeLikelihoodEPdb
       3882  F29 00496B50 _ZN9IQTreeMix17getMemoryRequiredEyb
       3883  F2A 00496BD0 _ZN9IQTreeMix17restoreCheckpointEv
       3884  F2B 00496F80 _ZN9IQTreeMix18computeInitialTreeE16LikelihoodKernelPSi
       3885  F2C 00497100 _ZN9IQTreeMix18deleteAllPartialLhEv
       3886  F2D 00497160 _ZN9IQTreeMix18treeLengthInternalEdP4NodeS1_
       3887  F2E 00497210 _ZN9IQTreeMix19computePatternLhCatE12SiteLoglType
       3888  F2F 00497990 _ZN9IQTreeMix19optimizeAllBranchesEidi
       3889  F30 00497AD0 _ZN9IQTreeMix21initializeTreeWeightsEv
       3890  F31 004984D0 _ZN9IQTreeMix22computeSiteTreeLogLikeEi
       3891  F32 004989A0 _ZN9IQTreeMix22initializeAllPartialLhEv
       3892  F33 00498A00 _ZN9IQTreeMix22initializeTreeWeights2Ev
       3893  F34 0049A2A0 _ZN9IQTreeMix22optimizeTreeSeparatelyEibdd
       3894  F35 0049A5F0 _ZN9IQTreeMix23optimizeModelParametersB5cxx11Ebd
       3895  F36 0049C210 _ZN9IQTreeMix23optimizeTreeWeightsByEMEPddiRb
       3896  F37 0049CC70 _ZN9IQTreeMix23optimizeTreesSeparatelyEbdd
       3897  F38 0049CDB0 _ZN9IQTreeMix24computePatternLikelihoodEPdS0_S0_12SiteLoglType
       3898  F39 0049CFC0 _ZN9IQTreeMix24optimizeBranchLensByBFGSEd
       3899  F3A 0049D570 _ZN9IQTreeMix25computeLikelihood_combineEPdb
       3900  F3B 0049D670 _ZN9IQTreeMix25getMemoryRequiredThreadedEyb
       3901  F3C 0049D8A0 _ZN9IQTreeMix25optimizeTreeWeightsByBFGSEd
       3902  F3D 0049E0A0 _ZN9IQTreeMix26optimizeAllBranchesOneTreeEiidi
       3903  F3E 0049E1D0 _ZN9IQTreeMix33computePatternProbabilityCategoryEPd12SiteLoglType
       3904  F3F 0049E200 _ZN9IQTreeMix7getNDimEv
       3905  F40 0049E260 _ZN9IQTreeMix7getRateEv
       3906  F41 0049E2A0 _ZN9IQTreeMix8drawTreeERSoid
       3907  F42 0049E3E0 _ZN9IQTreeMix8getModelEv
       3908  F43 0049E420 _ZN9IQTreeMix8showTreeEv
       3909  F44 0049E550 _ZN9IQTreeMix9isTreeMixEv
       3910  F45 0049E560 _ZN9IQTreeMix9printTreeERSoiP4NodeS2_
       3911  F46 0049E6C0 _ZN9IQTreeMix9setBoundsEPdS0_Pb
       3912  F47 0049EAD0 _ZN9IQTreeMix9setParamsEP6Params
       3913  F48 0049EB30 _ZN9IQTreeMixC1ER6ParamsP9AlignmentRSt6vectorIP6IQTreeSaIS6_EE
       3914  F49 0049F690 _ZN9IQTreeMixC1Ev
       3915  F4A 0049EB30 _ZN9IQTreeMixC2ER6ParamsP9AlignmentRSt6vectorIP6IQTreeSaIS6_EE
       3916  F4B 0049F690 _ZN9IQTreeMixC2Ev
       3917  F4C 0049F850 _ZN9IQTreeMixD0Ev
       3918  F4D 0049F870 _ZN9IQTreeMixD1Ev
       3919  F4E 0049F870 _ZN9IQTreeMixD2Ev
       3920  F4F 0049FFD0 _ZN9MPIHelper10gotMessageEv
       3921  F50 0049FFE0 _ZN9MPIHelper11getInstanceEv
       3922  F51 004A0040 _ZN9MPIHelper13countSameHostEv
       3923  F52 004A0050 _ZN9MPIHelper14syncRandomSeedEv
       3924  F53 004A0060 _ZN9MPIHelper4initEiPPc
       3925  F54 004A0070 _ZN9MPIHelper8finalizeEv
       3926  F55 004A0080 _ZN9MPIHelperD1Ev
       3927  F56 004A0080 _ZN9MPIHelperD2Ev
       3928  F57 004A0090 _ZN9MPdaBlock14readBudgetFileER6Params
       3929  F58 004A0890 _ZN9MPdaBlock15SkippingCommandE9NxsString
       3930  F59 004A0960 _ZN9MPdaBlock18readBudgetAreaFileER6Params
       3931  F5A 004A1090 _ZN9MPdaBlock4ReadER8NxsToken
       3932  F5B 004A2950 _ZN9MPdaBlock5ResetEv
       3933  F5C 004A2970 _ZN9MPdaBlock6ReportERSo
       3934  F5D 004A2AA0 _ZN9MPdaBlockC1EP10SplitGraph
       3935  F5E 004A2AA0 _ZN9MPdaBlockC2EP10SplitGraph
       3936  F5F 004A2B40 _ZN9MPdaBlockD0Ev
       3937  F60 004A2B80 _ZN9MPdaBlockD1Ev
       3938  F61 004A2B80 _ZN9MPdaBlockD2Ev
       3939  F62 004A2BB0 _ZN9ModelPairC2ERKS_
       3940  F63 004A2D90 _ZN9ModelPairD2Ev
       3941  F64 004A2DE0 _ZN9ModelPoMo10isBoundaryEi
       3942  F65 004A2DF0 _ZN9ModelPoMo10targetFunkEPd
       3943  F66 004A2EE0 _ZN9ModelPoMo11getNDimFreqEv
       3944  F67 004A2EF0 _ZN9ModelPoMo12getVariablesEPd
       3945  F68 004A2F60 _ZN9ModelPoMo12setVariablesEPd
       3946  F69 004A2FA0 _ZN9ModelPoMo13isPolymorphicEi
       3947  F6A 004A2FB0 _ZN9ModelPoMo13setCheckpointEP10Checkpoint
       3948  F6B 004A2FF0 _ZN9ModelPoMo14decomposeStateEiRiS0_S0_
       3949  F6C 004A3100 _ZN9ModelPoMo14saveCheckpointEv
       3950  F6D 004A31D0 _ZN9ModelPoMo15startCheckpointEv
       3951  F6E 004A3250 _ZN9ModelPoMo16computeNormConstEv
       3952  F6F 004A34F0 _ZN9ModelPoMo16computeStateFreqEv
       3953  F70 004A3980 _ZN9ModelPoMo16getMutationModelEv
       3954  F71 004A3990 _ZN9ModelPoMo17computeRateMatrixEPPdS0_i
       3955  F72 004A3A60 _ZN9ModelPoMo17getNumRateEntriesEv
       3956  F73 004A3A80 _ZN9ModelPoMo17restoreCheckpointEv
       3957  F74 004A3B80 _ZN9ModelPoMo18computeTransMatrixEdPdii
       3958  F75 004A4600 _ZN9ModelPoMo18setInitialMutCoeffEv
       3959  F76 004A4810 _ZN9ModelPoMo19decomposeRateMatrixEv
       3960  F77 004A4840 _ZN9ModelPoMo19init_mutation_modelEPKcNSt7__cxx1112basic_stringIcSt11char_traitsIcESaIcEEE13StateFreqTypeS7_
       3961  F78 004A5070 _ZN9ModelPoMo19isPolymorphismAwareEv
       3962  F79 004A5080 _ZN9ModelPoMo19report_model_paramsERSob
       3963  F7A 004A6BC0 _ZN9ModelPoMo20check_boundary_freqsEPd
       3964  F7B 004A6D20 _ZN9ModelPoMo20computeTipLikelihoodEjPd
       3965  F7C 004A7A50 _ZN9ModelPoMo20init_sampling_methodEv
       3966  F7D 004A8720 _ZN9ModelPoMo20isUnstableParametersEv
       3967  F7E 004A8770 _ZN9ModelPoMo20rate_matrix_to_ratesEPdS0_
       3968  F7F 004A8BC0 _ZN9ModelPoMo21init_fixed_parametersENSt7__cxx1112basic_stringIcSt11char_traitsIcESaIcEEES5_
       3969  F80 004A8D70 _ZN9ModelPoMo22normalizeMutationRatesEv
       3970  F81 004A98B0 _ZN9ModelPoMo24computeSumFreqPolyStatesEv
       3971  F82 004A9A70 _ZN9ModelPoMo24normalize_boundary_freqsEPd
       3972  F83 004A9D00 _ZN9ModelPoMo25init_boundary_frequenciesEv
       3973  F84 004A9E10 _ZN9ModelPoMo27computeProbBoundaryMutationEii
       3974  F85 004AA1D0 _ZN9ModelPoMo28computeSumFreqBoundaryStatesEv
       3975  F86 004AA2B0 _ZN9ModelPoMo29computeSumFreqPolyStatesNoMutEv
       3976  F87 004AA450 _ZN9ModelPoMo29set_heterozygosity_boundariesEv
       3977  F88 004AA4C0 _ZN9ModelPoMo29updatePoMoStatesAndRateMatrixEv
       3978  F89 004AA630 _ZN9ModelPoMo31estimateEmpiricalWattersonThetaEv
       3979  F8A 004AAD10 _ZN9ModelPoMo32rate_matrix_to_exchangeabilitiesEPdS0_
       3980  F8B 004AB270 _ZN9ModelPoMo35estimateEmpiricalBoundaryStateFreqsEPd
       3981  F8C 004ABB50 _ZN9ModelPoMo4initEPKcNSt7__cxx1112basic_stringIcSt11char_traitsIcESaIcEEE13StateFreqTypeS7_S7_
       3982  F8D 004AC440 _ZN9ModelPoMo6reportERSo
       3983  F8E 004AC810 _ZN9ModelPoMo7getNDimEv
       3984  F8F 004AC830 _ZN9ModelPoMo7getNameB5cxx11Ev
       3985  F90 004AC8C0 _ZN9ModelPoMo8getScaleEv
       3986  F91 004AC8D0 _ZN9ModelPoMo8setRatesEv
       3987  F92 004AC8E0 _ZN9ModelPoMo8setScaleEd
       3988  F93 004AC8F0 _ZN9ModelPoMo9setBoundsEPdS0_Pb
       3989  F94 004AC950 _ZN9ModelPoMo9writeInfoERSo
       3990  F95 004AC960 _ZN9ModelPoMoC1EP9PhyloTree
       3991  F96 004AC9B0 _ZN9ModelPoMoC1EPKcNSt7__cxx1112basic_stringIcSt11char_traitsIcESaIcEEE13StateFreqTypeS7_P9PhyloTreeS7_
       3992  F97 004ACCF0 _ZN9ModelPoMoC2EP9PhyloTree
       3993  F98 004ACD30 _ZN9ModelPoMoC2EPKcNSt7__cxx1112basic_stringIcSt11char_traitsIcESaIcEEE13StateFreqTypeS7_P9PhyloTreeS7_
       3994  F99 004AD000 _ZN9ModelPoMoD0Ev
       3995  F9A 004AD080 _ZN9ModelPoMoD1Ev
       3996  F9B 004AD100 _ZN9ModelPoMoD2Ev
       3997  F9C 004AD180 _ZN9NxsReader10NexusErrorE9NxsStringSt4fposIiEll
       3998  F9D 004AD190 _ZN9NxsReader12ExitingBlockE9NxsString
       3999  F9E 004AD1A0 _ZN9NxsReader13EnteringBlockE9NxsString
       4000  F9F 004AD1B0 _ZN9NxsReader13OutputCommentERK9NxsString
       4001  FA0 004AD1C0 _ZN9NxsReader13SkippingBlockE9NxsString
       4002  FA1 004AD1D0 _ZN9NxsReader14BlockListEmptyEv
       4003  FA2 004AD1E0 _ZN9NxsReader14NCLHomePageURLEv
       4004  FA3 004AD1F0 _ZN9NxsReader15ExecuteStartingEv
       4005  FA4 004AD200 _ZN9NxsReader15ExecuteStoppingEv
       4006  FA5 004AD210 _ZN9NxsReader16DebugReportBlockER8NxsBlock
       4007  FA6 004AD220 _ZN9NxsReader17NCLNameAndVersionEv
       4008  FA7 004AD230 _ZN9NxsReader18NCLCopyrightNoticeEv
       4009  FA8 004AD240 _ZN9NxsReader19PositionInBlockListEP8NxsBlock
       4010  FA9 004AD290 _ZN9NxsReader21SkippingDisabledBlockE9NxsString
       4011  FAA 004AD2A0 _ZN9NxsReader3AddEP8NxsBlock
       4012  FAB 004AD310 _ZN9NxsReader6DetachEP8NxsBlock
       4013  FAC 004AD390 _ZN9NxsReader7ExecuteER8NxsTokenb
       4014  FAD 004AE330 _ZN9NxsReader8ReassignEP8NxsBlockS1_
       4015  FAE 004AE3D0 _ZN9NxsReaderC1Ev
       4016  FAF 004AE3D0 _ZN9NxsReaderC2Ev
       4017  FB0 004AE3F0 _ZN9NxsReaderD0Ev
       4018  FB1 004AE400 _ZN9NxsReaderD1Ev
       4019  FB2 004AE400 _ZN9NxsReaderD2Ev
       4020  FB3 004AE410 _ZN9NxsString15RightJustifyDblEdjjb
       4021  FB4 004AE530 _ZN9NxsString16RightJustifyLongEljb
       4022  FB5 004AE640 _ZN9NxsString18RightJustifyStringERKS_jb
       4023  FB6 004AE6C0 _ZN9NxsString19BlanksToUnderscoresEv
       4024  FB7 004AE730 _ZN9NxsString19UnderscoresToBlanksEv
       4025  FB8 004AE7A0 _ZN9NxsString5ToHexElj
       4026  FB9 004AE830 _ZN9NxsString6PrintFEPKcz
       4027  FBA 004AE8A0 _ZN9NxsString7AddTailEcj
       4028  FBB 004AE920 _ZN9NxsString7ToLowerEv
       4029  FBC 004AE970 _ZN9NxsString7ToUpperEv
       4030  FBD 004AE9C0 _ZN9NxsString9AddQuotesEv
       4031  FBE 004AEAA0 _ZN9NxsString9ShortenToEj
       4032  FBF 004AEB90 _ZN9NxsStringC2EPKc
       4033  FC0 004AEBF0 _ZN9NxsStringC2ERKS_
       4034  FC1 004AEC40 _ZN9NxsStringaSEPKc
       4035  FC2 004AEC80 _ZN9NxsStringpLEPKc
       4036  FC3 004AED90 _ZN9NxsStringpLERKS_
       4037  FC4 004AEDD0 _ZN9NxsStringpLEc
       4038  FC5 004AEED0 _ZN9NxsStringpLEd
       4039  FC6 004AEF80 _ZN9NxsStringpLEi
       4040  FC7 004AEFF0 _ZN9NxsStringpLEj
       4041  FC8 004AF060 _ZN9PDTaxaSet10setSubTreeER5MTreeRSt6vectorIP4NodeSaIS4_EE
       4042  FC9 004AF2D0 _ZN9PDTaxaSet7setTreeER5MTree
       4043  FCA 004AF520 _ZN9PDTaxaSet9makeIDSetEiR5Split
       4044  FCB 004AF570 _ZN9PDTaxaSet9printTaxaEPc
       4045  FCC 004AF7A0 _ZN9PDTaxaSet9printTaxaERSo
       4046  FCD 004AF860 _ZN9PDTaxaSet9printTreeEPc
       4047  FCE 004AFAF0 _ZN9PDTaxaSet9printTreeERSo
       4048  FCF 004AFB70 _ZN9PhyloNode11addNeighborEP4Nodedi
       4049  FD0 004AFCE0 _ZN9PhyloNode11computeSizeEP4Node
       4050  FD1 004AFD80 _ZN9PhyloNode17clearAllPartialLhEbPS_
       4051  FD2 004AFE40 _ZN9PhyloNode21clearReversePartialLhEPS_
       4052  FD3 004AFEB0 _ZN9PhyloNode4initEv
       4053  FD4 004AFEC0 _ZN9PhyloNodeC1Ei
       4054  FD5 004AFEE0 _ZN9PhyloNodeC1EiPKc
       4055  FD6 004AFF00 _ZN9PhyloNodeC1Eii
       4056  FD7 004AFF20 _ZN9PhyloNodeC1Ev
       4057  FD8 004AFEC0 _ZN9PhyloNodeC2Ei
       4058  FD9 004AFEE0 _ZN9PhyloNodeC2EiPKc
       4059  FDA 004AFF00 _ZN9PhyloNodeC2Eii
       4060  FDB 004AFF20 _ZN9PhyloNodeC2Ev
       4061  FDC 004AFF80 _ZN9PhyloNodeD0Ev
       4062  FDD 004AFFA0 _ZN9PhyloTree10addTaxonMLEP4NodeRS1_S2_S1_S1_
       4063  FDE 004B01A0 _ZN9PhyloTree10deleteLeafEP4Node
       4064  FDF 004B0360 _ZN9PhyloTree10growTreeMLEP9Alignment
       4065  FE0 004B0820 _ZN9PhyloTree10resampleLhEPPdS0_Pi
       4066  FE1 004B0940 _ZN9PhyloTree10targetFunkEPd
       4067  FE2 004B09A0 _ZN9PhyloTree11computeDistEPdS0_
       4068  FE3 004B0CC0 _ZN9PhyloTree11computeDistER6ParamsP9AlignmentRPdS5_
       4069  FE4 004B0EF0 _ZN9PhyloTree11computeDistEiid
       4070  FE5 004B0F10 _ZN9PhyloTree11computeDistEiidRd
       4071  FE6 004B1010 _ZN9PhyloTree11correctDistEPd
       4072  FE7 004B13B0 _ZN9PhyloTree11getAlnNSiteEv
       4073  FE8 004B1420 _ZN9PhyloTree11getNumLhCatE12SiteLoglType
       4074  FE9 004B15F0 _ZN9PhyloTree11getRateNameB5cxx11Ev
       4075  FEA 004B17D0 _ZN9PhyloTree11isSuperTreeEv
       4076  FEB 004B17E0 _ZN9PhyloTree11newScaleNumEv
       4077  FEC 004B1800 _ZN9PhyloTree11optimizeSPREdP9PhyloNodeS1_
       4078  FED 004B20D0 _ZN9PhyloTree11optimizeSPREv
       4079  FEE 004B2380 _ZN9PhyloTree11setRootNodeEPKcb
       4080  FEF 004B28F0 _ZN9PhyloTree11swapSPR_oldEdiP9PhyloNodeS1_S1_S1_S1_S1_RSt6vectorIP13PhyloNeighborSaIS4_EE
       4081  FF0 004B2D70 _ZN9PhyloTree11writeSiteLhERSo12SiteLoglTypei
       4082  FF1 004B3030 _ZN9PhyloTree12computeBioNJER6Params
       4083  FF2 004B3550 _ZN9PhyloTree12doNNI_simpleER7NNIMove
       4084  FF3 004B37B0 _ZN9PhyloTree12doneProgressEv
       4085  FF4 004B3800 _ZN9PhyloTree12getModelNameB5cxx11Ev
       4086  FF5 004B39A0 _ZN9PhyloTree12getRandomNNIERSt4pairIP4NodeS2_E
       4087  FF6 004B3D30 _ZN9PhyloTree12getSubstNameB5cxx11Ev
       4088  FF7 004B3F90 _ZN9PhyloTree12hideProgressEv
       4089  FF8 004B3FB0 _ZN9PhyloTree12initProgressEdNSt7__cxx1112basic_stringIcSt11char_traitsIcESaIcEEEPKcS7_
       4090  FF9 004B4040 _ZN9PhyloTree12newBitsBlockEv
       4091  FFA 004B4140 _ZN9PhyloTree12newPartialLhEv
       4092  FFB 004B4160 _ZN9PhyloTree12pruneSubtreeEP9PhyloNodeS1_R11PruningInfo
       4093  FFC 004B42A0 _ZN9PhyloTree12readTreeFileERKNSt7__cxx1112basic_stringIcSt11char_traitsIcESaIcEEE
       4094  FFD 004B4430 _ZN9PhyloTree12reinsertLeafEP4NodeS1_S1_
       4095  FFE 004B44F0 _ZN9PhyloTree12setAlignmentEP9Alignment
       4096  FFF 004B4E90 _ZN9PhyloTree12showProgressEv
       4097 1000 004B4EB0 _ZN9PhyloTree13assessSPRMoveEdRK7SPRMove
       4098 1001 004B51C0 _ZN9PhyloTree13copyPhyloTreeEPS_b
       4099 1002 004B5250 _ZN9PhyloTree13getCurMixtureEv
       4100 1003 004B5260 _ZN9PhyloTree13getTreeStringB5cxx11Ev
       4101 1004 004B53D0 _ZN9PhyloTree13initSequencesEP4NodeS1_
       4102 1005 004B5470 _ZN9PhyloTree13pllReadNewickENSt7__cxx1112basic_stringIcSt11char_traitsIcESaIcEEE
       4103 1006 004B54B0 _ZN9PhyloTree13setNumThreadsEi
       4104 1007 004B5950 _ZN9PhyloTree13testOneBranchEdPdiiP9PhyloNodeS2_RdS3_S3_
       4105 1008 004B5C20 _ZN9PhyloTree13trackProgressEd
       4106 1009 004B5C40 _ZN9PhyloTree13writeBranchesERSo
       4107 100A 004B5C50 _ZN9PhyloTree14addTaxonMPFastEP4NodeS1_S1_S1_
       4108 100B 004B5D10 _ZN9PhyloTree14changeNNIBransER7NNIMove
       4109 100C 004B5E90 _ZN9PhyloTree14computeObsDistEPd
       4110 100D 004B5F30 _ZN9PhyloTree14computeObsDistER6ParamsP9AlignmentRPd
       4111 100E 004B60B0 _ZN9PhyloTree14computePtnFreqEv
       4112 100F 004B6390 _ZN9PhyloTree14dotProductSIMDId5Vec2dEET_PS2_S3_i
       4113 1010 004B63D0 _ZN9PhyloTree14dotProductSIMDId5Vec4dEET_PS2_S3_i
       4114 1011 004B6420 _ZN9PhyloTree14dotProductSIMDIf5Vec4fEET_PS2_S3_i
       4115 1012 004B6460 _ZN9PhyloTree14dotProductSIMDIf5Vec8fEET_PS2_S3_i
       4116 1013 004B64B0 _ZN9PhyloTree14getAlnNPatternEv
       4117 1014 004B64E0 _ZN9PhyloTree14initCostMatrixE14CostMatrixType
       4118 1015 004B6810 _ZN9PhyloTree14readTreeStringERKNSt7__cxx1112basic_stringIcSt11char_traitsIcESaIcEEE
       4119 1016 004B6A20 _ZN9PhyloTree14regraftSubtreeER11PruningInfoP9PhyloNodeS3_
       4120 1017 004B6A80 _ZN9PhyloTree14saveCheckpointEv
       4121 1018 004B6C50 _ZN9PhyloTree14testNumThreadsEv
       4122 1019 004B7970 _ZN9PhyloTree14warnNumThreadsEv
       4123 101A 004B7A00 _ZN9PhyloTree14writeSiteRatesERSobi
       4124 101B 004B8000 _ZN9PhyloTree15approxOneBranchEP9PhyloNodeS1_d
       4125 101C 004B8440 _ZN9PhyloTree15assignLeafNamesEP4NodeS1_
       4126 101D 004B8610 _ZN9PhyloTree15computeFuncDervEdRdS0_
       4127 101E 004B8670 _ZN9PhyloTree15computeFunctionEd
       4128 101F 004B8720 _ZN9PhyloTree15computePtnInvarEv
       4129 1020 004B8CB0 _ZN9PhyloTree15convertToRootedEv
       4130 1021 004B9210 _ZN9PhyloTree15getModelFactoryEv
       4131 1022 004B9220 _ZN9PhyloTree15getScaleNumSizeEv
       4132 1023 004B93C0 _ZN9PhyloTree15isSupportedNodeEP9PhyloNodei
       4133 1024 004B9420 _ZN9PhyloTree15optimizeSPR_oldEdP9PhyloNodeS1_
       4134 1025 004B9A80 _ZN9PhyloTree15saveCurrentTreeEd
       4135 1026 004B9A90 _ZN9PhyloTree15setModelFactoryEP12ModelFactory
       4136 1027 004B9B20 _ZN9PhyloTree15startCheckpointEv
       4137 1028 004B9BA0 _ZN9PhyloTree15testAllBranchesEidPdiibbP9PhyloNodeS2_
       4138 1029 004BA0F0 _ZN9PhyloTree16computeParsimonyEv
       4139 102A 004BA110 _ZN9PhyloTree16create3TaxonTreeERSt6vectorIiSaIiEEPi
       4140 102B 004BA500 _ZN9PhyloTree16getBitsBlockSizeEv
       4141 102C 004BA5F0 _ZN9PhyloTree16getPartialLhSizeEv
       4142 102D 004BA7A0 _ZN9PhyloTree16getScaleNumBytesEv
       4143 102E 004BA7C0 _ZN9PhyloTree16getUnmarkedNodesERSt6vectorIP9PhyloNodeSaIS2_EES2_S2_
       4144 102F 004BAA10 _ZN9PhyloTree16newAncestralProbEv
       4145 1030 004BAAA0 _ZN9PhyloTree16setDotProductAVXEv
       4146 1031 004BAAE0 _ZN9PhyloTree16setDotProductFMAEv
       4147 1032 004BAB20 _ZN9PhyloTree16setDotProductSSEEv
       4148 1033 004BAB60 _ZN9PhyloTree16testRootPositionEbdRSt6vectorIiSaIiEENSt7__cxx1112basic_stringIcSt11char_traitsIcESaIcEEE
       4149 1034 004BC010 _ZN9PhyloTree17approxAllBranchesEP9PhyloNodeS1_
       4150 1035 004BC0C0 _ZN9PhyloTree17clearAllPartialLHEb
       4151 1036 004BC100 _ZN9PhyloTree17computeLikelihoodEPdb
       4152 1037 004BC440 _ZN9PhyloTree17convertToUnrootedEv
       4153 1038 004BC480 _ZN9PhyloTree17fixNegativeBranchEbP4NodeS1_
       4154 1039 004BC7E0 _ZN9PhyloTree17gen_all_nni_treesEv
       4155 103A 004BCB00 _ZN9PhyloTree17getBestNNIForBranEP9PhyloNodeS1_P7NNIMove
       4156 103B 004BDB10 _ZN9PhyloTree17getMemoryRequiredERyS0_S0_
       4157 103C 004BDEE0 _ZN9PhyloTree17getMemoryRequiredEyb
       4158 103D 004BE3A0 _ZN9PhyloTree17getPartialLhBytesEv
       4159 103E 004BE3C0 _ZN9PhyloTree17getTopologyStringB5cxx11Eb
       4160 103F 004BE550 _ZN9PhyloTree17initPartitionInfoEv
       4161 1040 004BE560 _ZN9PhyloTree17insertNode2BranchEP4NodeS1_S1_
       4162 1041 004BE680 _ZN9PhyloTree17optimizeOneBranchEP9PhyloNodeS1_bi
       4163 1042 004BEB00 _ZN9PhyloTree17printDistanceFileEv
       4164 1043 004BEB60 _ZN9PhyloTree17reorientPartialLhEP13PhyloNeighborP4Node
       4165 1044 004BECF0 _ZN9PhyloTree17restoreCheckpointEv
       4166 1045 004BEE00 _ZN9PhyloTree17saveBranchLengthsERSt6vectorIdSaIdEEiP9PhyloNodeS5_
       4167 1046 004BEFA0 _ZN9PhyloTree17setNegativeBranchEbdP4NodeS1_
       4168 1047 004BF0C0 _ZN9PhyloTree18computePartialInfoI5Vec2dEEvR13TraversalInfoPT_PdS6_
       4169 1048 004C1370 _ZN9PhyloTree18computePartialInfoI5Vec2dLi20EEEvR13TraversalInfoPT_PdS6_
       4170 1049 004C23D0 _ZN9PhyloTree18computePartialInfoI5Vec2dLi4EEEvR13TraversalInfoPT_PdS6_
       4171 104A 004C33E0 _ZN9PhyloTree18computePartialInfoI5Vec4dEEvR13TraversalInfoPT_PdS6_
       4172 104B 004C56F0 _ZN9PhyloTree18computePartialInfoI5Vec4dLi20EEEvR13TraversalInfoPT_PdS6_
       4173 104C 004C6D80 _ZN9PhyloTree18computePartialInfoI5Vec4dLi4EEEvR13TraversalInfoPT_PdS6_
       4174 104D 004C7BE0 _ZN9PhyloTree18copyConstraintTreeEP5MTreeRSt6vectorIiSaIiEEPi
       4175 104E 004C83C0 _ZN9PhyloTree18deleteAllPartialLhEv
       4176 104F 004C85B0 _ZN9PhyloTree18generateRandomTreeE11TreeGenType
       4177 1050 004C8AD0 _ZN9PhyloTree18getModelNameParamsB5cxx11Eb
       4178 1051 004C8EC0 _ZN9PhyloTree18loadCostMatrixFileEPc
       4179 1052 004C9440 _ZN9PhyloTree18optimizeFundiModelEv
       4180 1053 004C9500 _ZN9PhyloTree18printTransMatricesEP4NodeS1_
       4181 1054 004C9770 _ZN9PhyloTree18randomizeNeighborsEP4NodeS1_
       4182 1055 004C9840 _ZN9PhyloTree18restoreStableCladeEP9AlignmentRSt6vectorIP4NodeSaIS4_EERS2_INSt7__cxx1112basic_stringIcSt11char_traitsIcESaIcEEESaISD_EE
       4183 1056 004C9B60 _ZN9PhyloTree18setParsimonyKernelE16LikelihoodKernel
       4184 1057 004C9BF0 _ZN9PhyloTree18updateSubtreeDistsER7NNIMove
       4185 1058 004CBAD0 _ZN9PhyloTree19collapseStableCladeEiRSt6vectorIP4NodeSaIS2_EERS0_INSt7__cxx1112basic_stringIcSt11char_traitsIcESaIcEEESaISB_EERPd
       4186 1059 004CC670 _ZN9PhyloTree19computeLogLVarianceEPdd
       4187 105A 004CC940 _ZN9PhyloTree19computeNNIPatternLhEdRdPdS0_S1_P9PhyloNodeS3_
       4188 105B 004CCCA0 _ZN9PhyloTree19computePatternLhCatE12SiteLoglType
       4189 105C 004CD290 _ZN9PhyloTree19computeSubtreeDistsEv
       4190 105D 004CD790 _ZN9PhyloTree19copyPhyloTreeMixlenEPS_ib
       4191 105E 004CD860 _ZN9PhyloTree19doLikelihoodMappingEv
       4192 105F 004CEB80 _ZN9PhyloTree19isSuperTreeUnlinkedEv
       4193 1060 004CEB90 _ZN9PhyloTree19optimizeAllBranchesEP9PhyloNodeS1_i
       4194 1061 004CEC20 _ZN9PhyloTree19optimizeAllBranchesEidi
       4195 1062 004CF540 _ZN9PhyloTree19optimizeOneBranchLSEP9PhyloNodeS1_
       4196 1063 004D1230 _ZN9PhyloTree19optimizeSPRBranchesEv
       4197 1064 004D1310 _ZN9PhyloTree19removeIdenticalSeqsER6Params
       4198 1065 004D1770 _ZN9PhyloTree19setLikelihoodKernelE16LikelihoodKernel
       4199 1066 004D18C0 _ZN9PhyloTree20clearBranchDirectionEP9PhyloNodeS1_
       4200 1067 004D1940 _ZN9PhyloTree20computeBestTraversalERSt6vectorIP4NodeSaIS2_EES5_
       4201 1068 004D1A20 _ZN9PhyloTree20computeParsimonyTreeEPKcP9AlignmentPi
       4202 1069 004D2A00 _ZN9PhyloTree20computeTraversalInfoEP13PhyloNeighborP9PhyloNodeRPd
       4203 106A 004D3590 _ZN9PhyloTree20computeTraversalInfoI5Vec2dEEvP9PhyloNodeS3_b
       4204 106B 004D3CA0 _ZN9PhyloTree20computeTraversalInfoI5Vec2dLi20EEEvP9PhyloNodeS3_b
       4205 106C 004D4390 _ZN9PhyloTree20computeTraversalInfoI5Vec2dLi4EEEvP9PhyloNodeS3_b
       4206 106D 004D4A90 _ZN9PhyloTree20computeTraversalInfoI5Vec4dEEvP9PhyloNodeS3_b
       4207 106E 004D51A0 _ZN9PhyloTree20computeTraversalInfoI5Vec4dLi20EEEvP9PhyloNodeS3_b
       4208 106F 004D5890 _ZN9PhyloTree20computeTraversalInfoI5Vec4dLi4EEEvP9PhyloNodeS3_b
       4209 1070 004D5F90 _ZN9PhyloTree20discardSaturatedSiteEb
       4210 1071 004D5FA0 _ZN9PhyloTree20dotProductDoubleCallEPdS0_i
       4211 1072 004D5FC0 _ZN9PhyloTree20fixOneNegativeBranchEdP8NeighborP4Node
       4212 1073 004D5FF0 _ZN9PhyloTree20getNBranchParametersEi
       4213 1074 004D6050 _ZN9PhyloTree20optimizePatternRatesERSt6vectorIdSaIdEE
       4214 1075 004D6100 _ZN9PhyloTree20optimizeRootPositionEibd
       4215 1076 004D6900 _ZN9PhyloTree20restoreBranchLengthsERSt6vectorIdSaIdEEiP9PhyloNodeS5_
       4216 1077 004D6AB0 _ZN9PhyloTree21JukesCantorCorrectionEdd
       4217 1078 004D6C00 _ZN9PhyloTree21computeAllPartialParsEP9PhyloNodeS1_
       4218 1079 004D6CB0 _ZN9PhyloTree21computeAncestralStateEP13PhyloNeighborP9PhyloNodePiS4_
       4219 107A 004D70D0 _ZN9PhyloTree21computeLikelihoodDervEP13PhyloNeighborP9PhyloNodePdS4_
       4220 107B 004D70F0 _ZN9PhyloTree21optimizeAllBranchesLSEP9PhyloNodeS1_
       4221 107C 004D71A0 _ZN9PhyloTree21optimizeChildBranchesEP9PhyloNodeS1_
       4222 107D 004D7220 _ZN9PhyloTree21readTreeStringSeqNameERKNSt7__cxx1112basic_stringIcSt11char_traitsIcESaIcEEE
       4223 107E 004D7450 _ZN9PhyloTree21reinsertIdenticalSeqsEP9Alignment
       4224 107F 004D74C0 _ZN9PhyloTree21setParsimonyKernelAVXEv
       4225 1080 004D7520 _ZN9PhyloTree21setParsimonyKernelSSEEv
       4226 1081 004D7580 _ZN9PhyloTree21transformPatternLhCatEv
       4227 1082 004D7A20 _ZN9PhyloTree22changeLikelihoodKernelE16LikelihoodKernel
       4228 1083 004D7A40 _ZN9PhyloTree22computeBranchDirectionEP9PhyloNodeS1_
       4229 1084 004D7B70 _ZN9PhyloTree22computeFundiLikelihoodEv
       4230 1085 004D8440 _ZN9PhyloTree22computeGeneConcordanceER8MTreeSetRSt3mapINSt7__cxx1112basic_stringIcSt11char_traitsIcESaIcEEES8_St4lessIS8_ESaISt4pairIKS8_S8_EEE
       4231 1086 004DBEF0 _ZN9PhyloTree22computeNodeBranchDistsEP4NodeS1_
       4232 1087 004DC810 _ZN9PhyloTree22computeParsimonyBranchEP13PhyloNeighborP9PhyloNodePi
       4233 1088 004DC830 _ZN9PhyloTree22computeSiteConcordanceERSt3mapINSt7__cxx1112basic_stringIcSt11char_traitsIcESaIcEEES6_St4lessIS6_ESaISt4pairIKS6_S6_EEE
       4234 1089 004DDC60 _ZN9PhyloTree22computeSiteConcordanceERSt4pairIP4NodeS2_EiPi
       4235 108A 004E05A0 _ZN9PhyloTree22correctBranchLengthF81Edd
       4236 108B 004E0790 _ZN9PhyloTree22decideDistanceFilePathER6Params
       4237 108C 004E0870 _ZN9PhyloTree22doneComputingDistancesEv
       4238 108D 004E0B10 _ZN9PhyloTree22getBufferPartialLhSizeEv
       4239 108E 004E0EC0 _ZN9PhyloTree22initializeAllPartialLhERiS0_P9PhyloNodeS2_
       4240 108F 004E1930 _ZN9PhyloTree22initializeAllPartialLhEv
       4241 1090 004E1E40 _ZN9PhyloTree22printTreeLengthScalingEPKc
       4242 1091 004E2120 _ZN9PhyloTree22setLikelihoodKernelAVXEv
       4243 1092 004E27C0 _ZN9PhyloTree22setLikelihoodKernelFMAEv
       4244 1093 004E2E50 _ZN9PhyloTree22setLikelihoodKernelSSEEv
       4245 1094 004E34A0 _ZN9PhyloTree23checkEqualScalingFactorERdP9PhyloNodeS2_
       4246 1095 004E3610 _ZN9PhyloTree23computeLikelihoodBranchEP13PhyloNeighborP9PhyloNodeb
       4247 1096 004E3630 _ZN9PhyloTree23computeLogLDiffVarianceEPS_Pd
       4248 1097 004E36C0 _ZN9PhyloTree23computeLogLDiffVarianceEPdS0_
       4249 1098 004E39F0 _ZN9PhyloTree23computePartialParsimonyEP13PhyloNeighborP9PhyloNode
       4250 1099 004E3A10 _ZN9PhyloTree23computePatternStateFreqEPd
       4251 109A 004E4260 _ZN9PhyloTree23reportLikelihoodMappingERSt14basic_ofstreamIcSt11char_traitsIcEE
       4252 109B 004E8300 _ZN9PhyloTree24computeDist_ExperimentalEPdS0_
       4253 109C 004E8F80 _ZN9PhyloTree24computePartialLikelihoodER13TraversalInfoyyi
       4254 109D 004E8FA0 _ZN9PhyloTree24computePatternCategoriesEPSt6vectorIiSaIiEE
       4255 109E 004E99A0 _ZN9PhyloTree24computePatternLikelihoodEPdS0_S0_12SiteLoglType
       4256 109F 004EA1A0 _ZN9PhyloTree24initializeAllPartialParsERiP9PhyloNodeS2_
       4257 10A0 004EA4E0 _ZN9PhyloTree24initializeAllPartialParsEv
       4258 10A1 004EA590 _ZN9PhyloTree24wrapperFixNegativeBranchEb
       4259 10A2 004EA6A0 _ZN9PhyloTree25computeLikelihoodDervSIMDI5Vec2dLb0ELi20ELb0ELb0EEEvP13PhyloNeighborP9PhyloNodePdS6_
       4260 10A3 004EC090 _ZN9PhyloTree25computeLikelihoodDervSIMDI5Vec2dLb0ELi20ELb0ELb1EEEvP13PhyloNeighborP9PhyloNodePdS6_
       4261 10A4 004ED510 _ZN9PhyloTree25computeLikelihoodDervSIMDI5Vec2dLb0ELi4ELb0ELb0EEEvP13PhyloNeighborP9PhyloNodePdS6_
       4262 10A5 004EF0D0 _ZN9PhyloTree25computeLikelihoodDervSIMDI5Vec2dLb0ELi4ELb0ELb1EEEvP13PhyloNeighborP9PhyloNodePdS6_
       4263 10A6 004F0540 _ZN9PhyloTree25computeLikelihoodDervSIMDI5Vec2dLb1ELi20ELb0ELb0EEEvP13PhyloNeighborP9PhyloNodePdS6_
       4264 10A7 004F1EF0 _ZN9PhyloTree25computeLikelihoodDervSIMDI5Vec2dLb1ELi20ELb0ELb1EEEvP13PhyloNeighborP9PhyloNodePdS6_
       4265 10A8 004F3330 _ZN9PhyloTree25computeLikelihoodDervSIMDI5Vec2dLb1ELi4ELb0ELb0EEEvP13PhyloNeighborP9PhyloNodePdS6_
       4266 10A9 004F4EB0 _ZN9PhyloTree25computeLikelihoodDervSIMDI5Vec2dLb1ELi4ELb0ELb1EEEvP13PhyloNeighborP9PhyloNodePdS6_
       4267 10AA 004F62E0 _ZN9PhyloTree25computeLikelihoodDervSIMDI5Vec4dLb0ELi20ELb0ELb0EEEvP13PhyloNeighborP9PhyloNodePdS6_
       4268 10AB 004F8340 _ZN9PhyloTree25computeLikelihoodDervSIMDI5Vec4dLb0ELi20ELb0ELb1EEEvP13PhyloNeighborP9PhyloNodePdS6_
       4269 10AC 004F9780 _ZN9PhyloTree25computeLikelihoodDervSIMDI5Vec4dLb0ELi20ELb1ELb0EEEvP13PhyloNeighborP9PhyloNodePdS6_
       4270 10AD 004FB7A0 _ZN9PhyloTree25computeLikelihoodDervSIMDI5Vec4dLb0ELi20ELb1ELb1EEEvP13PhyloNeighborP9PhyloNodePdS6_
       4271 10AE 004FCBE0 _ZN9PhyloTree25computeLikelihoodDervSIMDI5Vec4dLb0ELi4ELb0ELb0EEEvP13PhyloNeighborP9PhyloNodePdS6_
       4272 10AF 004FE520 _ZN9PhyloTree25computeLikelihoodDervSIMDI5Vec4dLb0ELi4ELb0ELb1EEEvP13PhyloNeighborP9PhyloNodePdS6_
       4273 10B0 004FF920 _ZN9PhyloTree25computeLikelihoodDervSIMDI5Vec4dLb0ELi4ELb1ELb0EEEvP13PhyloNeighborP9PhyloNodePdS6_
       4274 10B1 00501250 _ZN9PhyloTree25computeLikelihoodDervSIMDI5Vec4dLb0ELi4ELb1ELb1EEEvP13PhyloNeighborP9PhyloNodePdS6_
       4275 10B2 00502650 _ZN9PhyloTree25computeLikelihoodDervSIMDI5Vec4dLb1ELi20ELb0ELb0EEEvP13PhyloNeighborP9PhyloNodePdS6_
       4276 10B3 00504670 _ZN9PhyloTree25computeLikelihoodDervSIMDI5Vec4dLb1ELi20ELb0ELb1EEEvP13PhyloNeighborP9PhyloNodePdS6_
       4277 10B4 00505A70 _ZN9PhyloTree25computeLikelihoodDervSIMDI5Vec4dLb1ELi20ELb1ELb0EEEvP13PhyloNeighborP9PhyloNodePdS6_
       4278 10B5 00507A40 _ZN9PhyloTree25computeLikelihoodDervSIMDI5Vec4dLb1ELi20ELb1ELb1EEEvP13PhyloNeighborP9PhyloNodePdS6_
       4279 10B6 00508E40 _ZN9PhyloTree25computeLikelihoodDervSIMDI5Vec4dLb1ELi4ELb0ELb0EEEvP13PhyloNeighborP9PhyloNodePdS6_
       4280 10B7 0050A740 _ZN9PhyloTree25computeLikelihoodDervSIMDI5Vec4dLb1ELi4ELb0ELb1EEEvP13PhyloNeighborP9PhyloNodePdS6_
       4281 10B8 0050BB00 _ZN9PhyloTree25computeLikelihoodDervSIMDI5Vec4dLb1ELi4ELb1ELb0EEEvP13PhyloNeighborP9PhyloNodePdS6_
       4282 10B9 0050D3F0 _ZN9PhyloTree25computeLikelihoodDervSIMDI5Vec4dLb1ELi4ELb1ELb1EEEvP13PhyloNeighborP9PhyloNodePdS6_
       4283 10BA 0050E7B0 _ZN9PhyloTree25computeQuartetConcordanceER8MTreeSet
       4284 10BB 0050EFD0 _ZN9PhyloTree25computeQuartetConcordanceERSt4pairIP4NodeS2_ER8MTreeSet
       4285 10BC 0050F260 _ZN9PhyloTree25computeQuartetLikelihoodsERSt6vectorI11QuartetInfoSaIS1_EER13QuartetGroups
       4286 10BD 0050FF80 _ZN9PhyloTree25endMarginalAncestralStateEbRPdRPi
       4287 10BE 00510010 _ZN9PhyloTree25extractBifurcatingSubTreeERSt6vectorIP8NeighborSaIS2_EERS0_IP4NodeSaIS7_EEPi
       4288 10BF 00510570 _ZN9PhyloTree25forceConvertingToUnrootedEv
       4289 10C0 00510B00 _ZN9PhyloTree25getMemoryRequiredThreadedEyb
       4290 10C1 00510B10 _ZN9PhyloTree25optimizeTreeLengthScalingEdRddd
       4291 10C2 00510D80 _ZN9PhyloTree25prepareToComputeDistancesEv
       4292 10C3 00511000 _ZN9PhyloTree25setParsimonyBranchLengthsEv
       4293 10C4 00512150 _ZN9PhyloTree26computeAncestralLikelihoodEP13PhyloNeighborP9PhyloNodePi
       4294 10C5 00513260 _ZN9PhyloTree26computeParsimonyBranchFastEP13PhyloNeighborP9PhyloNodePi
       4295 10C6 00513580 _ZN9PhyloTree26computeTipPartialParsimonyEv
       4296 10C7 00513DF0 _ZN9PhyloTree26ensureNumberOfThreadsIsSetEP6Params
       4297 10C8 00513EC0 _ZN9PhyloTree26initMarginalAncestralStateERSoRbRPdRPi
       4298 10C9 00513F60 _ZN9PhyloTree27computeBayesianBranchLengthEP13PhyloNeighborP9PhyloNode
       4299 10CA 00514580 _ZN9PhyloTree27computeLikelihoodBranchSIMDI5Vec2dLb0ELi20ELb0ELb0EEEdP13PhyloNeighborP9PhyloNodeb
       4300 10CB 00516630 _ZN9PhyloTree27computeLikelihoodBranchSIMDI5Vec2dLb0ELi20ELb0ELb1EEEdP13PhyloNeighborP9PhyloNodeb
       4301 10CC 005180E0 _ZN9PhyloTree27computeLikelihoodBranchSIMDI5Vec2dLb0ELi4ELb0ELb0EEEdP13PhyloNeighborP9PhyloNodeb
       4302 10CD 0051A040 _ZN9PhyloTree27computeLikelihoodBranchSIMDI5Vec2dLb0ELi4ELb0ELb1EEEdP13PhyloNeighborP9PhyloNodeb
       4303 10CE 0051B800 _ZN9PhyloTree27computeLikelihoodBranchSIMDI5Vec2dLb1ELi20ELb0ELb0EEEdP13PhyloNeighborP9PhyloNodeb
       4304 10CF 0051D8B0 _ZN9PhyloTree27computeLikelihoodBranchSIMDI5Vec2dLb1ELi20ELb0ELb1EEEdP13PhyloNeighborP9PhyloNodeb
       4305 10D0 0051F360 _ZN9PhyloTree27computeLikelihoodBranchSIMDI5Vec2dLb1ELi4ELb0ELb0EEEdP13PhyloNeighborP9PhyloNodeb
       4306 10D1 005212C0 _ZN9PhyloTree27computeLikelihoodBranchSIMDI5Vec2dLb1ELi4ELb0ELb1EEEdP13PhyloNeighborP9PhyloNodeb
       4307 10D2 00522A80 _ZN9PhyloTree27computeLikelihoodBranchSIMDI5Vec4dLb0ELi20ELb0ELb0EEEdP13PhyloNeighborP9PhyloNodeb
       4308 10D3 00525010 _ZN9PhyloTree27computeLikelihoodBranchSIMDI5Vec4dLb0ELi20ELb0ELb1EEEdP13PhyloNeighborP9PhyloNodeb
       4309 10D4 00526A40 _ZN9PhyloTree27computeLikelihoodBranchSIMDI5Vec4dLb0ELi20ELb1ELb0EEEdP13PhyloNeighborP9PhyloNodeb
       4310 10D5 00528FB0 _ZN9PhyloTree27computeLikelihoodBranchSIMDI5Vec4dLb0ELi20ELb1ELb1EEEdP13PhyloNeighborP9PhyloNodeb
       4311 10D6 0052A9C0 _ZN9PhyloTree27computeLikelihoodBranchSIMDI5Vec4dLb0ELi4ELb0ELb0EEEdP13PhyloNeighborP9PhyloNodeb
       4312 10D7 0052C6C0 _ZN9PhyloTree27computeLikelihoodBranchSIMDI5Vec4dLb0ELi4ELb0ELb1EEEdP13PhyloNeighborP9PhyloNodeb
       4313 10D8 0052DDF0 _ZN9PhyloTree27computeLikelihoodBranchSIMDI5Vec4dLb0ELi4ELb1ELb0EEEdP13PhyloNeighborP9PhyloNodeb
       4314 10D9 0052FAF0 _ZN9PhyloTree27computeLikelihoodBranchSIMDI5Vec4dLb0ELi4ELb1ELb1EEEdP13PhyloNeighborP9PhyloNodeb
       4315 10DA 00531210 _ZN9PhyloTree27computeLikelihoodBranchSIMDI5Vec4dLb1ELi20ELb0ELb0EEEdP13PhyloNeighborP9PhyloNodeb
       4316 10DB 005337A0 _ZN9PhyloTree27computeLikelihoodBranchSIMDI5Vec4dLb1ELi20ELb0ELb1EEEdP13PhyloNeighborP9PhyloNodeb
       4317 10DC 005351D0 _ZN9PhyloTree27computeLikelihoodBranchSIMDI5Vec4dLb1ELi20ELb1ELb0EEEdP13PhyloNeighborP9PhyloNodeb
       4318 10DD 00537740 _ZN9PhyloTree27computeLikelihoodBranchSIMDI5Vec4dLb1ELi20ELb1ELb1EEEdP13PhyloNeighborP9PhyloNodeb
       4319 10DE 00539150 _ZN9PhyloTree27computeLikelihoodBranchSIMDI5Vec4dLb1ELi4ELb0ELb0EEEdP13PhyloNeighborP9PhyloNodeb
       4320 10DF 0053AE50 _ZN9PhyloTree27computeLikelihoodBranchSIMDI5Vec4dLb1ELi4ELb0ELb1EEEdP13PhyloNeighborP9PhyloNodeb
       4321 10E0 0053C580 _ZN9PhyloTree27computeLikelihoodBranchSIMDI5Vec4dLb1ELi4ELb1ELb0EEEdP13PhyloNeighborP9PhyloNodeb
       4322 10E1 0053E280 _ZN9PhyloTree27computeLikelihoodBranchSIMDI5Vec4dLb1ELi4ELb1ELb1EEEdP13PhyloNeighborP9PhyloNodeb
       4323 10E2 0053F9A0 _ZN9PhyloTree27computeLikelihoodBufferSIMDI5Vec2dLb0ELi20ELb0ELb0EEEvP13PhyloNeighborP9PhyloNodeyyi
       4324 10E3 00540450 _ZN9PhyloTree27computeLikelihoodBufferSIMDI5Vec2dLb0ELi20ELb0ELb1EEEvP13PhyloNeighborP9PhyloNodeyyi
       4325 10E4 00540950 _ZN9PhyloTree27computeLikelihoodBufferSIMDI5Vec2dLb0ELi4ELb0ELb0EEEvP13PhyloNeighborP9PhyloNodeyyi
       4326 10E5 00541240 _ZN9PhyloTree27computeLikelihoodBufferSIMDI5Vec2dLb0ELi4ELb0ELb1EEEvP13PhyloNeighborP9PhyloNodeyyi
       4327 10E6 005415B0 _ZN9PhyloTree27computeLikelihoodBufferSIMDI5Vec2dLb1ELi20ELb0ELb0EEEvP13PhyloNeighborP9PhyloNodeyyi
       4328 10E7 00543290 _ZN9PhyloTree27computeLikelihoodBufferSIMDI5Vec2dLb1ELi20ELb0ELb1EEEvP13PhyloNeighborP9PhyloNodeyyi
       4329 10E8 00544970 _ZN9PhyloTree27computeLikelihoodBufferSIMDI5Vec2dLb1ELi4ELb0ELb0EEEvP13PhyloNeighborP9PhyloNodeyyi
       4330 10E9 00545CF0 _ZN9PhyloTree27computeLikelihoodBufferSIMDI5Vec2dLb1ELi4ELb0ELb1EEEvP13PhyloNeighborP9PhyloNodeyyi
       4331 10EA 00546B80 _ZN9PhyloTree27computeLikelihoodBufferSIMDI5Vec4dLb0ELi20ELb0ELb0EEEvP13PhyloNeighborP9PhyloNodeyyi
       4332 10EB 005479E0 _ZN9PhyloTree27computeLikelihoodBufferSIMDI5Vec4dLb0ELi20ELb0ELb1EEEvP13PhyloNeighborP9PhyloNodeyyi
       4333 10EC 00547F00 _ZN9PhyloTree27computeLikelihoodBufferSIMDI5Vec4dLb0ELi20ELb1ELb0EEEvP13PhyloNeighborP9PhyloNodeyyi
       4334 10ED 00548D60 _ZN9PhyloTree27computeLikelihoodBufferSIMDI5Vec4dLb0ELi20ELb1ELb1EEEvP13PhyloNeighborP9PhyloNodeyyi
       4335 10EE 00549280 _ZN9PhyloTree27computeLikelihoodBufferSIMDI5Vec4dLb0ELi4ELb0ELb0EEEvP13PhyloNeighborP9PhyloNodeyyi
       4336 10EF 00549EA0 _ZN9PhyloTree27computeLikelihoodBufferSIMDI5Vec4dLb0ELi4ELb0ELb1EEEvP13PhyloNeighborP9PhyloNodeyyi
       4337 10F0 0054A210 _ZN9PhyloTree27computeLikelihoodBufferSIMDI5Vec4dLb0ELi4ELb1ELb0EEEvP13PhyloNeighborP9PhyloNodeyyi
       4338 10F1 0054AE30 _ZN9PhyloTree27computeLikelihoodBufferSIMDI5Vec4dLb0ELi4ELb1ELb1EEEvP13PhyloNeighborP9PhyloNodeyyi
       4339 10F2 0054B1A0 _ZN9PhyloTree27computeLikelihoodBufferSIMDI5Vec4dLb1ELi20ELb0ELb0EEEvP13PhyloNeighborP9PhyloNodeyyi
       4340 10F3 0054CD10 _ZN9PhyloTree27computeLikelihoodBufferSIMDI5Vec4dLb1ELi20ELb0ELb1EEEvP13PhyloNeighborP9PhyloNodeyyi
       4341 10F4 0054DE40 _ZN9PhyloTree27computeLikelihoodBufferSIMDI5Vec4dLb1ELi20ELb1ELb0EEEvP13PhyloNeighborP9PhyloNodeyyi
       4342 10F5 0054F9B0 _ZN9PhyloTree27computeLikelihoodBufferSIMDI5Vec4dLb1ELi20ELb1ELb1EEEvP13PhyloNeighborP9PhyloNodeyyi
       4343 10F6 00550AE0 _ZN9PhyloTree27computeLikelihoodBufferSIMDI5Vec4dLb1ELi4ELb0ELb0EEEvP13PhyloNeighborP9PhyloNodeyyi
       4344 10F7 00553620 _ZN9PhyloTree27computeLikelihoodBufferSIMDI5Vec4dLb1ELi4ELb0ELb1EEEvP13PhyloNeighborP9PhyloNodeyyi
       4345 10F8 00555750 _ZN9PhyloTree27computeLikelihoodBufferSIMDI5Vec4dLb1ELi4ELb1ELb0EEEvP13PhyloNeighborP9PhyloNodeyyi
       4346 10F9 00558290 _ZN9PhyloTree27computeLikelihoodBufferSIMDI5Vec4dLb1ELi4ELb1ELb1EEEvP13PhyloNeighborP9PhyloNodeyyi
       4347 10FA 0055A3C0 _ZN9PhyloTree27computeLikelihoodFromBufferEv
       4348 10FB 0055A4C0 _ZN9PhyloTree27computeLikelihoodZeroBranchEP13PhyloNeighborP9PhyloNode
       4349 10FC 0055A530 _ZN9PhyloTree27computePartialParsimonyFastEP13PhyloNeighborP9PhyloNode
       4350 10FD 0055B2A0 _ZN9PhyloTree27computeSeqIdentityAlongTreeER5SplitP4NodeS3_
       4351 10FE 0055B7A0 _ZN9PhyloTree27computeSeqIdentityAlongTreeEv
       4352 10FF 0055B820 _ZN9PhyloTree27computeTipPartialLikelihoodEv
       4353 1100 0055BB90 _ZN9PhyloTree27readLikelihoodMappingGroupsEPcR13QuartetGroups
       4354 1101 0055C9C0 _ZN9PhyloTree27writeMarginalAncestralStateERSoP9PhyloNodePdPi
       4355 1102 0055CC10 _ZN9PhyloTree28computePartialLikelihoodSIMDI5Vec2dLb0ELi20ELb0ELb0EEEvR13TraversalInfoyyi
       4356 1103 0055F7B0 _ZN9PhyloTree28computePartialLikelihoodSIMDI5Vec2dLb0ELi20ELb0ELb1EEEvR13TraversalInfoyyi
       4357 1104 00562EE0 _ZN9PhyloTree28computePartialLikelihoodSIMDI5Vec2dLb0ELi4ELb0ELb0EEEvR13TraversalInfoyyi
       4358 1105 00565660 _ZN9PhyloTree28computePartialLikelihoodSIMDI5Vec2dLb0ELi4ELb0ELb1EEEvR13TraversalInfoyyi
       4359 1106 00569170 _ZN9PhyloTree28computePartialLikelihoodSIMDI5Vec2dLb1ELi20ELb0ELb0EEEvR13TraversalInfoyyi
       4360 1107 0056D060 _ZN9PhyloTree28computePartialLikelihoodSIMDI5Vec2dLb1ELi20ELb0ELb1EEEvR13TraversalInfoyyi
       4361 1108 005718E0 _ZN9PhyloTree28computePartialLikelihoodSIMDI5Vec2dLb1ELi4ELb0ELb0EEEvR13TraversalInfoyyi
       4362 1109 00574510 _ZN9PhyloTree28computePartialLikelihoodSIMDI5Vec2dLb1ELi4ELb0ELb1EEEvR13TraversalInfoyyi
       4363 110A 00578440 _ZN9PhyloTree28computePartialLikelihoodSIMDI5Vec4dLb0ELi20ELb0ELb0EEEvR13TraversalInfoyyi
       4364 110B 0057C240 _ZN9PhyloTree28computePartialLikelihoodSIMDI5Vec4dLb0ELi20ELb0ELb1EEEvR13TraversalInfoyyi
       4365 110C 0057FB80 _ZN9PhyloTree28computePartialLikelihoodSIMDI5Vec4dLb0ELi20ELb1ELb0EEEvR13TraversalInfoyyi
       4366 110D 005837E0 _ZN9PhyloTree28computePartialLikelihoodSIMDI5Vec4dLb0ELi20ELb1ELb1EEEvR13TraversalInfoyyi
       4367 110E 00587140 _ZN9PhyloTree28computePartialLikelihoodSIMDI5Vec4dLb0ELi4ELb0ELb0EEEvR13TraversalInfoyyi
       4368 110F 0058AAF0 _ZN9PhyloTree28computePartialLikelihoodSIMDI5Vec4dLb0ELi4ELb0ELb1EEEvR13TraversalInfoyyi
       4369 1110 0058E880 _ZN9PhyloTree28computePartialLikelihoodSIMDI5Vec4dLb0ELi4ELb1ELb0EEEvR13TraversalInfoyyi
       4370 1111 00592160 _ZN9PhyloTree28computePartialLikelihoodSIMDI5Vec4dLb0ELi4ELb1ELb1EEEvR13TraversalInfoyyi
       4371 1112 00595D00 _ZN9PhyloTree28computePartialLikelihoodSIMDI5Vec4dLb1ELi20ELb0ELb0EEEvR13TraversalInfoyyi
       4372 1113 0059A3C0 _ZN9PhyloTree28computePartialLikelihoodSIMDI5Vec4dLb1ELi20ELb0ELb1EEEvR13TraversalInfoyyi
       4373 1114 0059E370 _ZN9PhyloTree28computePartialLikelihoodSIMDI5Vec4dLb1ELi20ELb1ELb0EEEvR13TraversalInfoyyi
       4374 1115 005A2870 _ZN9PhyloTree28computePartialLikelihoodSIMDI5Vec4dLb1ELi20ELb1ELb1EEEvR13TraversalInfoyyi
       4375 1116 005A67C0 _ZN9PhyloTree28computePartialLikelihoodSIMDI5Vec4dLb1ELi4ELb0ELb0EEEvR13TraversalInfoyyi
       4376 1117 005AA6C0 _ZN9PhyloTree28computePartialLikelihoodSIMDI5Vec4dLb1ELi4ELb0ELb1EEEvR13TraversalInfoyyi
       4377 1118 005AE960 _ZN9PhyloTree28computePartialLikelihoodSIMDI5Vec4dLb1ELi4ELb1ELb0EEEvR13TraversalInfoyyi
       4378 1119 005B27B0 _ZN9PhyloTree28computePartialLikelihoodSIMDI5Vec4dLb1ELi4ELb1ELb1EEEvR13TraversalInfoyyi
       4379 111A 005B6860 _ZN9PhyloTree28computeSubtreeAncestralStateEP13PhyloNeighborP9PhyloNodePdPi
       4380 111B 005B6F00 _ZN9PhyloTree29computeMarginalAncestralStateEP13PhyloNeighborP9PhyloNodePdPi
       4381 111C 005B75E0 _ZN9PhyloTree29computeParsimonyBranchSankoffEP13PhyloNeighborP9PhyloNodePi
       4382 111D 005B7B10 _ZN9PhyloTree30computeJointAncestralSequencesEPi
       4383 111E 005B7C50 _ZN9PhyloTree30computeParsimonyBranchFastSIMDI6Vec4uiEEiP13PhyloNeighborP9PhyloNodePi
       4384 111F 005B7F90 _ZN9PhyloTree30computeParsimonyBranchFastSIMDI6Vec8uiEEiP13PhyloNeighborP9PhyloNodePi
       4385 1120 005B82D0 _ZN9PhyloTree30computePartialParsimonySankoffEP13PhyloNeighborP9PhyloNode
       4386 1121 005B9950 _ZN9PhyloTree30computeReversePartialParsimonyEP9PhyloNodeS1_
       4387 1122 005B9A50 _ZN9PhyloTree31computeAllBayesianBranchLengthsEP4NodeS1_
       4388 1123 005B9AE0 _ZN9PhyloTree31computeAllSubtreeDistForOneNodeEP9PhyloNodeS1_S1_S1_S1_
       4389 1124 005BB550 _ZN9PhyloTree31computeAncestralSiteConcordanceERSt4pairIP4NodeS2_EiPiPdS5_
       4390 1125 005BD680 _ZN9PhyloTree31computeLikelihoodDervMixlenSIMDI5Vec2dLb0ELi20ELb0ELb0EEEvP13PhyloNeighborP9PhyloNodeRdS6_
       4391 1126 005BE000 _ZN9PhyloTree31computeLikelihoodDervMixlenSIMDI5Vec2dLb0ELi4ELb0ELb0EEEvP13PhyloNeighborP9PhyloNodeRdS6_
       4392 1127 005BEA30 _ZN9PhyloTree31computeLikelihoodDervMixlenSIMDI5Vec2dLb1ELi20ELb0ELb0EEEvP13PhyloNeighborP9PhyloNodeRdS6_
       4393 1128 005BF370 _ZN9PhyloTree31computeLikelihoodDervMixlenSIMDI5Vec2dLb1ELi4ELb0ELb0EEEvP13PhyloNeighborP9PhyloNodeRdS6_
       4394 1129 005BFD60 _ZN9PhyloTree31computeLikelihoodDervMixlenSIMDI5Vec4dLb0ELi20ELb0ELb0EEEvP13PhyloNeighborP9PhyloNodeRdS6_
       4395 112A 005C06D0 _ZN9PhyloTree31computeLikelihoodDervMixlenSIMDI5Vec4dLb0ELi20ELb1ELb0EEEvP13PhyloNeighborP9PhyloNodeRdS6_
       4396 112B 005C1040 _ZN9PhyloTree31computeLikelihoodDervMixlenSIMDI5Vec4dLb0ELi4ELb0ELb0EEEvP13PhyloNeighborP9PhyloNodeRdS6_
       4397 112C 005C1A40 _ZN9PhyloTree31computeLikelihoodDervMixlenSIMDI5Vec4dLb0ELi4ELb1ELb0EEEvP13PhyloNeighborP9PhyloNodeRdS6_
       4398 112D 005C2440 _ZN9PhyloTree31computeLikelihoodDervMixlenSIMDI5Vec4dLb1ELi20ELb0ELb0EEEvP13PhyloNeighborP9PhyloNodeRdS6_
       4399 112E 005C2D60 _ZN9PhyloTree31computeLikelihoodDervMixlenSIMDI5Vec4dLb1ELi20ELb1ELb0EEEvP13PhyloNeighborP9PhyloNodeRdS6_
       4400 112F 005C3680 _ZN9PhyloTree31computeLikelihoodDervMixlenSIMDI5Vec4dLb1ELi4ELb0ELb0EEEvP13PhyloNeighborP9PhyloNodeRdS6_
       4401 1130 005C4030 _ZN9PhyloTree31computeLikelihoodDervMixlenSIMDI5Vec4dLb1ELi4ELb1ELb0EEEvP13PhyloNeighborP9PhyloNodeRdS6_
       4402 1131 005C49E0 _ZN9PhyloTree31computeLikelihoodFromBufferSIMDI5Vec2dLi20ELb0ELb0EEEdv
       4403 1132 005C5CF0 _ZN9PhyloTree31computeLikelihoodFromBufferSIMDI5Vec2dLi20ELb0ELb1EEEdv
       4404 1133 005C6BE0 _ZN9PhyloTree31computeLikelihoodFromBufferSIMDI5Vec2dLi4ELb0ELb0EEEdv
       4405 1134 005C7E90 _ZN9PhyloTree31computeLikelihoodFromBufferSIMDI5Vec2dLi4ELb0ELb1EEEdv
       4406 1135 005C8B70 _ZN9PhyloTree31computeLikelihoodFromBufferSIMDI5Vec4dLi20ELb0ELb0EEEdv
       4407 1136 005CA400 _ZN9PhyloTree31computeLikelihoodFromBufferSIMDI5Vec4dLi20ELb0ELb1EEEdv
       4408 1137 005CB270 _ZN9PhyloTree31computeLikelihoodFromBufferSIMDI5Vec4dLi20ELb1ELb0EEEdv
       4409 1138 005CCA90 _ZN9PhyloTree31computeLikelihoodFromBufferSIMDI5Vec4dLi20ELb1ELb1EEEdv
       4410 1139 005CD8E0 _ZN9PhyloTree31computeLikelihoodFromBufferSIMDI5Vec4dLi4ELb0ELb0EEEdv
       4411 113A 005CE900 _ZN9PhyloTree31computeLikelihoodFromBufferSIMDI5Vec4dLi4ELb0ELb1EEEdv
       4412 113B 005CF550 _ZN9PhyloTree31computeLikelihoodFromBufferSIMDI5Vec4dLi4ELb1ELb0EEEdv
       4413 113C 005D0540 _ZN9PhyloTree31computeLikelihoodFromBufferSIMDI5Vec4dLi4ELb1ELb1EEEdv
       4414 113D 005D1170 _ZN9PhyloTree31computeNonrevLikelihoodDervSIMDI5Vec2dLb0ELi4ELb0EEEvP13PhyloNeighborP9PhyloNodePdS6_
       4415 113E 005D27A0 _ZN9PhyloTree31computeNonrevLikelihoodDervSIMDI5Vec2dLb1ELi4ELb0EEEvP13PhyloNeighborP9PhyloNodePdS6_
       4416 113F 005D3DC0 _ZN9PhyloTree31computeNonrevLikelihoodDervSIMDI5Vec4dLb0ELi20ELb0EEEvP13PhyloNeighborP9PhyloNodePdS6_
       4417 1140 005D52A0 _ZN9PhyloTree31computeNonrevLikelihoodDervSIMDI5Vec4dLb0ELi20ELb1EEEvP13PhyloNeighborP9PhyloNodePdS6_
       4418 1141 005D6770 _ZN9PhyloTree31computeNonrevLikelihoodDervSIMDI5Vec4dLb0ELi4ELb0EEEvP13PhyloNeighborP9PhyloNodePdS6_
       4419 1142 005D7CB0 _ZN9PhyloTree31computeNonrevLikelihoodDervSIMDI5Vec4dLb0ELi4ELb1EEEvP13PhyloNeighborP9PhyloNodePdS6_
       4420 1143 005D91E0 _ZN9PhyloTree31computeNonrevLikelihoodDervSIMDI5Vec4dLb1ELi20ELb0EEEvP13PhyloNeighborP9PhyloNodePdS6_
       4421 1144 005DA6B0 _ZN9PhyloTree31computeNonrevLikelihoodDervSIMDI5Vec4dLb1ELi20ELb1EEEvP13PhyloNeighborP9PhyloNodePdS6_
       4422 1145 005DBB70 _ZN9PhyloTree31computeNonrevLikelihoodDervSIMDI5Vec4dLb1ELi4ELb0EEEvP13PhyloNeighborP9PhyloNodePdS6_
       4423 1146 005DD0A0 _ZN9PhyloTree31computeNonrevLikelihoodDervSIMDI5Vec4dLb1ELi4ELb1EEEvP13PhyloNeighborP9PhyloNodePdS6_
       4424 1147 005DE5C0 _ZN9PhyloTree31computePartialParsimonyFastSIMDI6Vec4uiEEvP13PhyloNeighborP9PhyloNode
       4425 1148 005DF510 _ZN9PhyloTree31computePartialParsimonyFastSIMDI6Vec8uiEEvP13PhyloNeighborP9PhyloNode
       4426 1149 005E04F0 _ZN9PhyloTree32computeLikelihoodDervGenericSIMDI5Vec2dLb1ELb0ELb0EEEvP13PhyloNeighborP9PhyloNodePdS6_
       4427 114A 005E20A0 _ZN9PhyloTree32computeLikelihoodDervGenericSIMDI5Vec2dLb1ELb0ELb1EEEvP13PhyloNeighborP9PhyloNodePdS6_
       4428 114B 005E3530 _ZN9PhyloTree32computeLikelihoodDervGenericSIMDI5Vec4dLb1ELb0ELb0EEEvP13PhyloNeighborP9PhyloNodePdS6_
       4429 114C 005E5020 _ZN9PhyloTree32computeLikelihoodDervGenericSIMDI5Vec4dLb1ELb0ELb1EEEvP13PhyloNeighborP9PhyloNodePdS6_
       4430 114D 005E6440 _ZN9PhyloTree32computeLikelihoodDervGenericSIMDI5Vec4dLb1ELb1ELb0EEEvP13PhyloNeighborP9PhyloNodePdS6_
       4431 114E 005E7F10 _ZN9PhyloTree32computeLikelihoodDervGenericSIMDI5Vec4dLb1ELb1ELb1EEEvP13PhyloNeighborP9PhyloNodePdS6_
       4432 114F 005E9330 _ZN9PhyloTree32computeParsimonyOutOfTreeSankoffEPj
       4433 1150 005E9CA0 _ZN9PhyloTree33computeNonrevLikelihoodBranchSIMDI5Vec2dLb0ELi4ELb0EEEdP13PhyloNeighborP9PhyloNodeb
       4434 1151 005EAEC0 _ZN9PhyloTree33computeNonrevLikelihoodBranchSIMDI5Vec2dLb1ELi4ELb0EEEdP13PhyloNeighborP9PhyloNodeb
       4435 1152 005EC0E0 _ZN9PhyloTree33computeNonrevLikelihoodBranchSIMDI5Vec4dLb0ELi20ELb0EEEdP13PhyloNeighborP9PhyloNodeb
       4436 1153 005EDA50 _ZN9PhyloTree33computeNonrevLikelihoodBranchSIMDI5Vec4dLb0ELi20ELb1EEEdP13PhyloNeighborP9PhyloNodeb
       4437 1154 005EF330 _ZN9PhyloTree33computeNonrevLikelihoodBranchSIMDI5Vec4dLb0ELi4ELb0EEEdP13PhyloNeighborP9PhyloNodeb
       4438 1155 005F04F0 _ZN9PhyloTree33computeNonrevLikelihoodBranchSIMDI5Vec4dLb0ELi4ELb1EEEdP13PhyloNeighborP9PhyloNodeb
       4439 1156 005F1680 _ZN9PhyloTree33computeNonrevLikelihoodBranchSIMDI5Vec4dLb1ELi20ELb0EEEdP13PhyloNeighborP9PhyloNodeb
       4440 1157 005F2FF0 _ZN9PhyloTree33computeNonrevLikelihoodBranchSIMDI5Vec4dLb1ELi20ELb1EEEdP13PhyloNeighborP9PhyloNodeb
       4441 1158 005F48D0 _ZN9PhyloTree33computeNonrevLikelihoodBranchSIMDI5Vec4dLb1ELi4ELb0EEEdP13PhyloNeighborP9PhyloNodeb
       4442 1159 005F5A90 _ZN9PhyloTree33computeNonrevLikelihoodBranchSIMDI5Vec4dLb1ELi4ELb1EEEdP13PhyloNeighborP9PhyloNodeb
       4443 115A 005F6C20 _ZN9PhyloTree33computeParsimonyBranchSankoffSIMDI6Vec4uiEEiP13PhyloNeighborP9PhyloNodePi
       4444 115B 005F7740 _ZN9PhyloTree33computeParsimonyBranchSankoffSIMDI6Vec8uiEEiP13PhyloNeighborP9PhyloNodePi
       4445 115C 005F8540 _ZN9PhyloTree33computePatternProbabilityCategoryEPd12SiteLoglType
       4446 115D 005F8940 _ZN9PhyloTree34computeAllAncestralSiteConcordanceEv
       4447 115E 005FAB50 _ZN9PhyloTree34computeLikelihoodBranchGenericSIMDI5Vec2dLb1ELb0ELb0EEEdP13PhyloNeighborP9PhyloNodeb
       4448 115F 005FD050 _ZN9PhyloTree34computeLikelihoodBranchGenericSIMDI5Vec2dLb1ELb0ELb1EEEdP13PhyloNeighborP9PhyloNodeb
       4449 1160 005FE8C0 _ZN9PhyloTree34computeLikelihoodBranchGenericSIMDI5Vec4dLb1ELb0ELb0EEEdP13PhyloNeighborP9PhyloNodeb
       4450 1161 00600C80 _ZN9PhyloTree34computeLikelihoodBranchGenericSIMDI5Vec4dLb1ELb0ELb1EEEdP13PhyloNeighborP9PhyloNodeb
       4451 1162 00602430 _ZN9PhyloTree34computeLikelihoodBranchGenericSIMDI5Vec4dLb1ELb1ELb0EEEdP13PhyloNeighborP9PhyloNodeb
       4452 1163 006047F0 _ZN9PhyloTree34computeLikelihoodBranchGenericSIMDI5Vec4dLb1ELb1ELb1EEEdP13PhyloNeighborP9PhyloNodeb
       4453 1164 00605F90 _ZN9PhyloTree34computeLikelihoodBufferGenericSIMDI5Vec2dLb1ELb0ELb0EEEvP13PhyloNeighborP9PhyloNodeyyi
       4454 1165 006079F0 _ZN9PhyloTree34computeLikelihoodBufferGenericSIMDI5Vec2dLb1ELb0ELb1EEEvP13PhyloNeighborP9PhyloNodeyyi
       4455 1166 00608DA0 _ZN9PhyloTree34computeLikelihoodBufferGenericSIMDI5Vec4dLb1ELb0ELb0EEEvP13PhyloNeighborP9PhyloNodeyyi
       4456 1167 0060C550 _ZN9PhyloTree34computeLikelihoodBufferGenericSIMDI5Vec4dLb1ELb0ELb1EEEvP13PhyloNeighborP9PhyloNodeyyi
       4457 1168 0060F1C0 _ZN9PhyloTree34computeLikelihoodBufferGenericSIMDI5Vec4dLb1ELb1ELb0EEEvP13PhyloNeighborP9PhyloNodeyyi
       4458 1169 00612970 _ZN9PhyloTree34computeLikelihoodBufferGenericSIMDI5Vec4dLb1ELb1ELb1EEEvP13PhyloNeighborP9PhyloNodeyyi
       4459 116A 006155E0 _ZN9PhyloTree34computeNonrevPartialLikelihoodSIMDI5Vec2dLb0ELi4ELb0EEEvR13TraversalInfoyyi
       4460 116B 00617DA0 _ZN9PhyloTree34computeNonrevPartialLikelihoodSIMDI5Vec2dLb1ELi4ELb0EEEvR13TraversalInfoyyi
       4461 116C 0061A830 _ZN9PhyloTree34computeNonrevPartialLikelihoodSIMDI5Vec4dLb0ELi20ELb0EEEvR13TraversalInfoyyi
       4462 116D 0061E4D0 _ZN9PhyloTree34computeNonrevPartialLikelihoodSIMDI5Vec4dLb0ELi20ELb1EEEvR13TraversalInfoyyi
       4463 116E 00622080 _ZN9PhyloTree34computeNonrevPartialLikelihoodSIMDI5Vec4dLb0ELi4ELb0EEEvR13TraversalInfoyyi
       4464 116F 00625960 _ZN9PhyloTree34computeNonrevPartialLikelihoodSIMDI5Vec4dLb0ELi4ELb1EEEvR13TraversalInfoyyi
       4465 1170 00629210 _ZN9PhyloTree34computeNonrevPartialLikelihoodSIMDI5Vec4dLb1ELi20ELb0EEEvR13TraversalInfoyyi
       4466 1171 0062D360 _ZN9PhyloTree34computeNonrevPartialLikelihoodSIMDI5Vec4dLb1ELi20ELb1EEEvR13TraversalInfoyyi
       4467 1172 006313A0 _ZN9PhyloTree34computeNonrevPartialLikelihoodSIMDI5Vec4dLb1ELi4ELb0EEEvR13TraversalInfoyyi
       4468 1173 00635120 _ZN9PhyloTree34computeNonrevPartialLikelihoodSIMDI5Vec4dLb1ELi4ELb1EEEvR13TraversalInfoyyi
       4469 1174 00638E70 _ZN9PhyloTree34computePartialParsimonySankoffSIMDI6Vec4uiEEvP13PhyloNeighborP9PhyloNode
       4470 1175 0063A4B0 _ZN9PhyloTree34computePartialParsimonySankoffSIMDI6Vec8uiEEvP13PhyloNeighborP9PhyloNode
       4471 1176 0063C7C0 _ZN9PhyloTree35computePartialLikelihoodGenericSIMDI5Vec2dLb1ELb0ELb0EEEvR13TraversalInfoyyi
       4472 1177 0063F780 _ZN9PhyloTree35computePartialLikelihoodGenericSIMDI5Vec2dLb1ELb0ELb1EEEvR13TraversalInfoyyi
       4473 1178 00642D70 _ZN9PhyloTree35computePartialLikelihoodGenericSIMDI5Vec4dLb1ELb0ELb0EEEvR13TraversalInfoyyi
       4474 1179 00646ED0 _ZN9PhyloTree35computePartialLikelihoodGenericSIMDI5Vec4dLb1ELb0ELb1EEEvR13TraversalInfoyyi
       4475 117A 0064A690 _ZN9PhyloTree35computePartialLikelihoodGenericSIMDI5Vec4dLb1ELb1ELb0EEEvR13TraversalInfoyyi
       4476 117B 0064E7B0 _ZN9PhyloTree35computePartialLikelihoodGenericSIMDI5Vec4dLb1ELb1ELb1EEEvR13TraversalInfoyyi
       4477 117C 00651EC0 _ZN9PhyloTree36computeCorrectedBayesianBranchLengthEP13PhyloNeighborP9PhyloNode
       4478 117D 00651F00 _ZN9PhyloTree38computeLikelihoodDervMixlenGenericSIMDI5Vec2dLb1ELb0ELb0EEEvP13PhyloNeighborP9PhyloNodeRdS6_
       4479 117E 006528A0 _ZN9PhyloTree38computeLikelihoodDervMixlenGenericSIMDI5Vec4dLb1ELb0ELb0EEEvP13PhyloNeighborP9PhyloNodeRdS6_
       4480 117F 00653220 _ZN9PhyloTree38computeLikelihoodDervMixlenGenericSIMDI5Vec4dLb1ELb1ELb0EEEvP13PhyloNeighborP9PhyloNodeRdS6_
       4481 1180 00653BA0 _ZN9PhyloTree38computeLikelihoodFromBufferGenericSIMDI5Vec2dLb0ELb0EEEdv
       4482 1181 00654EB0 _ZN9PhyloTree38computeLikelihoodFromBufferGenericSIMDI5Vec2dLb0ELb1EEEdv
       4483 1182 00655C40 _ZN9PhyloTree38computeLikelihoodFromBufferGenericSIMDI5Vec4dLb0ELb0EEEdv
       4484 1183 00656EC0 _ZN9PhyloTree38computeLikelihoodFromBufferGenericSIMDI5Vec4dLb0ELb1EEEdv
       4485 1184 00657BE0 _ZN9PhyloTree38computeLikelihoodFromBufferGenericSIMDI5Vec4dLb1ELb0EEEdv
       4486 1185 00658E10 _ZN9PhyloTree38computeLikelihoodFromBufferGenericSIMDI5Vec4dLb1ELb1EEEdv
       4487 1186 00659B20 _ZN9PhyloTree38computeNonrevLikelihoodDervGenericSIMDI5Vec2dLb0ELb0EEEvP13PhyloNeighborP9PhyloNodePdS6_
       4488 1187 0065B170 _ZN9PhyloTree38computeNonrevLikelihoodDervGenericSIMDI5Vec2dLb1ELb0EEEvP13PhyloNeighborP9PhyloNodePdS6_
       4489 1188 0065C7B0 _ZN9PhyloTree38computeNonrevLikelihoodDervGenericSIMDI5Vec4dLb0ELb0EEEvP13PhyloNeighborP9PhyloNodePdS6_
       4490 1189 0065DD90 _ZN9PhyloTree38computeNonrevLikelihoodDervGenericSIMDI5Vec4dLb0ELb1EEEvP13PhyloNeighborP9PhyloNodePdS6_
       4491 118A 0065F370 _ZN9PhyloTree38computeNonrevLikelihoodDervGenericSIMDI5Vec4dLb1ELb0EEEvP13PhyloNeighborP9PhyloNodePdS6_
       4492 118B 00660930 _ZN9PhyloTree38computeNonrevLikelihoodDervGenericSIMDI5Vec4dLb1ELb1EEEvP13PhyloNeighborP9PhyloNodePdS6_
       4493 118C 00661EF0 _ZN9PhyloTree40computeNonrevLikelihoodBranchGenericSIMDI5Vec2dLb0ELb0EEEdP13PhyloNeighborP9PhyloNodeb
       4494 118D 00663580 _ZN9PhyloTree40computeNonrevLikelihoodBranchGenericSIMDI5Vec2dLb1ELb0EEEdP13PhyloNeighborP9PhyloNodeb
       4495 118E 00664C10 _ZN9PhyloTree40computeNonrevLikelihoodBranchGenericSIMDI5Vec4dLb0ELb0EEEdP13PhyloNeighborP9PhyloNodeb
       4496 118F 00666320 _ZN9PhyloTree40computeNonrevLikelihoodBranchGenericSIMDI5Vec4dLb0ELb1EEEdP13PhyloNeighborP9PhyloNodeb
       4497 1190 00667A70 _ZN9PhyloTree40computeNonrevLikelihoodBranchGenericSIMDI5Vec4dLb1ELb0EEEdP13PhyloNeighborP9PhyloNodeb
       4498 1191 00669180 _ZN9PhyloTree40computeNonrevLikelihoodBranchGenericSIMDI5Vec4dLb1ELb1EEEdP13PhyloNeighborP9PhyloNodeb
       4499 1192 0066A8D0 _ZN9PhyloTree41computeNonrevPartialLikelihoodGenericSIMDI5Vec2dLb0ELb0EEEvR13TraversalInfoyyi
       4500 1193 0066E360 _ZN9PhyloTree41computeNonrevPartialLikelihoodGenericSIMDI5Vec2dLb1ELb0EEEvR13TraversalInfoyyi
       4501 1194 00671E90 _ZN9PhyloTree41computeNonrevPartialLikelihoodGenericSIMDI5Vec4dLb0ELb0EEEvR13TraversalInfoyyi
       4502 1195 00676C60 _ZN9PhyloTree41computeNonrevPartialLikelihoodGenericSIMDI5Vec4dLb0ELb1EEEvR13TraversalInfoyyi
       4503 1196 0067B9B0 _ZN9PhyloTree41computeNonrevPartialLikelihoodGenericSIMDI5Vec4dLb1ELb0EEEvR13TraversalInfoyyi
       4504 1197 006807E0 _ZN9PhyloTree41computeNonrevPartialLikelihoodGenericSIMDI5Vec4dLb1ELb1EEEvR13TraversalInfoyyi
       4505 1198 006855A0 _ZN9PhyloTree4initEv
       4506 1199 00685780 _ZN9PhyloTree5doNNIER7NNIMoveb
       4507 119A 00685A90 _ZN9PhyloTree5isHMMEv
       4508 119B 00685AA0 _ZN9PhyloTree7getNDimEv
       4509 119C 00685AB0 _ZN9PhyloTree7getRateEv
       4510 119D 00685AC0 _ZN9PhyloTree7newNodeEiPKc
       4511 119E 00685B10 _ZN9PhyloTree7newNodeEii
       4512 119F 00685B60 _ZN9PhyloTree7setRateEP17RateHeterogeneity
       4513 11A0 00685B70 _ZN9PhyloTree7swapSPREdiP9PhyloNodeS1_S1_S1_S1_S1_RSt6vectorIP13PhyloNeighborSaIS4_EE
       4514 11A1 006863C0 _ZN9PhyloTree8copyTreeEP5MTree
       4515 11A2 00686400 _ZN9PhyloTree8copyTreeEP5MTreeRNSt7__cxx1112basic_stringIcSt11char_traitsIcESaIcEEE
       4516 11A3 00686450 _ZN9PhyloTree8getModelEv
       4517 11A4 00686460 _ZN9PhyloTree8isMixlenEv
       4518 11A5 00686470 _ZN9PhyloTree8moveRootEP4NodeS1_
       4519 11A6 006866D0 _ZN9PhyloTree8readTreeEPKcRbi
       4520 11A7 00686710 _ZN9PhyloTree8readTreeERSiRb
       4521 11A8 00686900 _ZN9PhyloTree8rollBackERSi
       4522 11A9 00686970 _ZN9PhyloTree8setModelEP10ModelSubst
       4523 11AA 00686980 _ZN9PhyloTree9getMixlenEv
       4524 11AB 00686990 _ZN9PhyloTree9isTreeMixEv
       4525 11AC 006869A0 _ZN9PhyloTreeC1EP9Alignment
       4526 11AD 00687040 _ZN9PhyloTreeC1ERNSt7__cxx1112basic_stringIcSt11char_traitsIcESaIcEEEP9Alignmentb
       4527 11AE 006877B0 _ZN9PhyloTreeC1Ev
       4528 11AF 006869A0 _ZN9PhyloTreeC2EP9Alignment
       4529 11B0 00687040 _ZN9PhyloTreeC2ERNSt7__cxx1112basic_stringIcSt11char_traitsIcESaIcEEEP9Alignmentb
       4530 11B1 006877B0 _ZN9PhyloTreeC2Ev
       4531 11B2 00687E40 _ZN9PhyloTreeD0Ev
       4532 11B3 00687E60 _ZN9PhyloTreeD1Ev
       4533 11B4 00687E60 _ZN9PhyloTreeD2Ev
       4534 11B5 00688530 _ZN9RateGamma10cmpLnGammaEd
       4535 11B6 00688650 _ZN9RateGamma10targetFunkEPd
       4536 11B7 006886A0 _ZN9RateGamma11isGammaRateEv
       4537 11B8 006886B0 _ZN9RateGamma12cmpPointChi2Edd
       4538 11B9 00688EF0 _ZN9RateGamma12computeRatesEv
       4539 11BA 006893A0 _ZN9RateGamma12getVariablesEPd
       4540 11BB 006893F0 _ZN9RateGamma12setNCategoryEi
       4541 11BC 00689910 _ZN9RateGamma12setVariablesEPd
       4542 11BD 00689940 _ZN9RateGamma13getGammaShapeEv
       4543 11BE 00689950 _ZN9RateGamma13getNameParamsB5cxx11Ev
       4544 11BF 00689B10 _ZN9RateGamma13setGammaShapeEd
       4545 11C0 00689B20 _ZN9RateGamma14cmpPointNormalEd
       4546 11C1 00689C20 _ZN9RateGamma14saveCheckpointEv
       4547 11C2 00689CE0 _ZN9RateGamma15computeFunctionEd
       4548 11C3 00689D50 _ZN9RateGamma15startCheckpointEv
       4549 11C4 00689DD0 _ZN9RateGamma15writeParametersERSo
       4550 11C5 00689E10 _ZN9RateGamma16computeRatesMeanEv
       4551 11C6 0068A210 _ZN9RateGamma16getNDiscreteRateEv
       4552 11C7 0068A220 _ZN9RateGamma16setFixGammaShapeEb
       4553 11C8 0068A230 _ZN9RateGamma17restoreCheckpointEv
       4554 11C9 0068A2F0 _ZN9RateGamma18cmpIncompleteGammaEddd
       4555 11CA 0068A620 _ZN9RateGamma18optimizeParametersEd
       4556 11CB 0068A760 _ZN9RateGamma18optimizeParametersEddd
       4557 11CC 0068A8C0 _ZN9RateGamma19computePatternRatesERSt6vectorIdSaIdEERS0_IiSaIiEE
       4558 11CD 0068AAD0 _ZN9RateGamma7getNDimEv
       4559 11CE 0068AAE0 _ZN9RateGamma7getPropEi
       4560 11CF 0068AB00 _ZN9RateGamma7getRateEi
       4561 11D0 0068AB10 _ZN9RateGamma7setRateEid
       4562 11D1 0068AB20 _ZN9RateGamma8getNRateEv
       4563 11D2 0068AB30 _ZN9RateGamma8getRatesEv
       4564 11D3 0068AB40 _ZN9RateGamma9setBoundsEPdS0_Pb
       4565 11D4 0068ABA0 _ZN9RateGamma9writeInfoERSo
       4566 11D5 0068AC30 _ZN9RateGammaC1EidbP9PhyloTree
       4567 11D6 0068ADC0 _ZN9RateGammaC2EidbP9PhyloTree
       4568 11D7 0068AF20 _ZN9RateGammaD0Ev
       4569 11D8 0068AF80 _ZN9RateGammaD1Ev
       4570 11D9 0068AFD0 _ZN9RateGammaD2Ev
       4571 11DA 0068B020 _ZN9RateInvar10targetFunkEPd
       4572 11DB 0068B070 _ZN9RateInvar12getVariablesEPd
       4573 11DC 0068B0A0 _ZN9RateInvar12setFixPInvarEb
       4574 11DD 0068B0B0 _ZN9RateInvar12setVariablesEPd
       4575 11DE 0068B0D0 _ZN9RateInvar13getNameParamsB5cxx11Ev
       4576 11DF 0068B250 _ZN9RateInvar14saveCheckpointEv
       4577 11E0 0068B300 _ZN9RateInvar15computeFunctionEd
       4578 11E1 0068B350 _ZN9RateInvar15startCheckpointEv
       4579 11E2 0068B3D0 _ZN9RateInvar15writeParametersERSo
       4580 11E3 0068B410 _ZN9RateInvar17restoreCheckpointEv
       4581 11E4 0068B4C0 _ZN9RateInvar18optimizeParametersEd
       4582 11E5 0068B620 _ZN9RateInvar7getNDimEv
       4583 11E6 0068B630 _ZN9RateInvar7getPropEi
       4584 11E7 0068B640 _ZN9RateInvar7getRateEi
       4585 11E8 0068B660 _ZN9RateInvar9getPInvarEv
       4586 11E9 0068B670 _ZN9RateInvar9setBoundsEPdS0_Pb
       4587 11EA 0068B6D0 _ZN9RateInvar9setPInvarEd
       4588 11EB 0068B6E0 _ZN9RateInvar9writeInfoERSo
       4589 11EC 0068B770 _ZN9RateInvarC1Ed
       4590 11ED 0068B7C0 _ZN9RateInvarC1EdP9PhyloTree
       4591 11EE 0068B8E0 _ZN9RateInvarC2Ed
       4592 11EF 0068B910 _ZN9RateInvarC2EdP9PhyloTree
       4593 11F0 0068BA10 _ZN9RateInvarD0Ev
       4594 11F1 0068BA30 _ZN9RateInvarD1Ev
       4595 11F2 0068BA40 _ZN9StartTree11BIONJMatrixIdE10loadMatrixERKSt6vectorINSt7__cxx1112basic_stringIcSt11char_traitsIcESaIcEEESaIS8_EEPd
       4596 11F3 0068BAA0 _ZN9StartTree11BIONJMatrixIdE18loadMatrixFromFileERKNSt7__cxx1112basic_stringIcSt11char_traitsIcESaIcEEE
       4597 11F4 0068BB00 _ZN9StartTree11BIONJMatrixIdE7clusterEyy
       4598 11F5 0068C0E0 _ZN9StartTree11BIONJMatrixIdED0Ev
       4599 11F6 0068C190 _ZN9StartTree11BIONJMatrixIdED2Ev
       4600 11F7 0068C230 _ZN9StartTree11BIONJMatrixIfE10loadMatrixERKSt6vectorINSt7__cxx1112basic_stringIcSt11char_traitsIcESaIcEEESaIS8_EEPd
       4601 11F8 0068C290 _ZN9StartTree11BIONJMatrixIfE18loadMatrixFromFileERKNSt7__cxx1112basic_stringIcSt11char_traitsIcESaIcEEE
       4602 11F9 0068C2F0 _ZN9StartTree11BIONJMatrixIfE7clusterEyy
       4603 11FA 0068C8D0 _ZN9StartTree11BIONJMatrixIfED0Ev
       4604 11FB 0068C980 _ZN9StartTree11BIONJMatrixIfED2Ev
       4605 11FC 0068CA20 _ZN9StartTree11ClusterTreeIdE10addClusterEydyd
       4606 11FD 0068CD90 _ZN9StartTree11ClusterTreeIdE10addClusterEydydyd
       4607 11FE 0068CF00 _ZN9StartTree11ClusterTreeIfE10addClusterEyfyf
       4608 11FF 0068D270 _ZN9StartTree11ClusterTreeIfE10addClusterEyfyfyf
       4609 1200 0068D3E0 _ZN9StartTree12UPGMA_MatrixIdE10loadMatrixERKSt6vectorINSt7__cxx1112basic_stringIcSt11char_traitsIcESaIcEEESaIS8_EEPd
       4610 1201 0068D5E0 _ZN9StartTree12UPGMA_MatrixIdE13constructTreeEv
       4611 1202 0068DA90 _ZN9StartTree12UPGMA_MatrixIdE15setZippedOutputEb
       4612 1203 0068DAA0 _ZN9StartTree12UPGMA_MatrixIdE18loadMatrixFromFileERKNSt7__cxx1112basic_stringIcSt11char_traitsIcESaIcEEE
       4613 1204 0068DCA0 _ZN9StartTree12UPGMA_MatrixIdE20loadMatrixFromStreamERSi
       4614 1205 0068E030 _ZN9StartTree12UPGMA_MatrixIdE7clusterEyy
       4615 1206 0068E180 _ZN9StartTree12UPGMA_MatrixIdE7setSizeEy
       4616 1207 0068E1B0 _ZN9StartTree12UPGMA_MatrixIdED0Ev
       4617 1208 0068E1D0 _ZN9StartTree12UPGMA_MatrixIdED2Ev
       4618 1209 0068E2C0 _ZN9StartTree12UPGMA_MatrixIfE10loadMatrixERKSt6vectorINSt7__cxx1112basic_stringIcSt11char_traitsIcESaIcEEESaIS8_EEPd
       4619 120A 0068E4C0 _ZN9StartTree12UPGMA_MatrixIfE13constructTreeEv
       4620 120B 0068E9B0 _ZN9StartTree12UPGMA_MatrixIfE15setZippedOutputEb
       4621 120C 0068E9C0 _ZN9StartTree12UPGMA_MatrixIfE18loadMatrixFromFileERKNSt7__cxx1112basic_stringIcSt11char_traitsIcESaIcEEE
       4622 120D 0068EBC0 _ZN9StartTree12UPGMA_MatrixIfE20loadMatrixFromStreamERSi
       4623 120E 0068EF50 _ZN9StartTree12UPGMA_MatrixIfE7clusterEyy
       4624 120F 0068F0B0 _ZN9StartTree12UPGMA_MatrixIfE7setSizeEy
       4625 1210 0068F0E0 _ZN9StartTree12UPGMA_MatrixIfED0Ev
       4626 1211 0068F100 _ZN9StartTree12UPGMA_MatrixIfED2Ev
       4627 1212 0068F1F0 _ZN9StartTree14BoundingMatrixIdNS_11BIONJMatrixIdEEE13constructTreeEv
       4628 1213 0068FB30 _ZN9StartTree14BoundingMatrixIdNS_11BIONJMatrixIdEEE7clusterEyy
       4629 1214 006901F0 _ZN9StartTree14BoundingMatrixIdNS_11BIONJMatrixIdEEE7sortRowEyy
       4630 1215 00690300 _ZN9StartTree14BoundingMatrixIdNS_11BIONJMatrixIdEEED0Ev
       4631 1216 00690320 _ZN9StartTree14BoundingMatrixIdNS_11BIONJMatrixIdEEED2Ev
       4632 1217 00690520 _ZN9StartTree14BoundingMatrixIfNS_11BIONJMatrixIfEEE13constructTreeEv
       4633 1218 00690E40 _ZN9StartTree14BoundingMatrixIfNS_11BIONJMatrixIfEEE7clusterEyy
       4634 1219 00691500 _ZN9StartTree14BoundingMatrixIfNS_11BIONJMatrixIfEEE7sortRowEyy
       4635 121A 00691600 _ZN9StartTree14BoundingMatrixIfNS_11BIONJMatrixIfEEED0Ev
       4636 121B 00691620 _ZN9StartTree14BoundingMatrixIfNS_11BIONJMatrixIfEEED2Ev
       4637 121C 00691820 _ZN9StartTree14BoundingMatrixIfNS_8NJMatrixIfEEE13constructTreeEv
       4638 121D 00692140 _ZN9StartTree14BoundingMatrixIfNS_8NJMatrixIfEEE7clusterEyy
       4639 121E 00692800 _ZN9StartTree14BoundingMatrixIfNS_8NJMatrixIfEEE7sortRowEyy
       4640 121F 00692900 _ZN9StartTree14BoundingMatrixIfNS_8NJMatrixIfEEED0Ev
       4641 1220 00692920 _ZN9StartTree14BoundingMatrixIfNS_8NJMatrixIfEEED2Ev
       4642 1221 00692AC0 _ZN9StartTree16BuilderInterface8beSilentEv
       4643 1222 00692AD0 _ZN9StartTree16VectorizedMatrixIfNS_11BIONJMatrixIfEE5Vec8f6Vec8fbED0Ev
       4644 1223 00692AF0 _ZN9StartTree16VectorizedMatrixIfNS_11BIONJMatrixIfEE5Vec8f6Vec8fbED2Ev
       4645 1224 00692BC0 _ZN9StartTree16VectorizedMatrixIfNS_8NJMatrixIfEE5Vec8f6Vec8fbED0Ev
       4646 1225 00692C30 _ZN9StartTree16VectorizedMatrixIfNS_8NJMatrixIfEE5Vec8f6Vec8fbED2Ev
       4647 1226 00692C90 _ZN9StartTree22VectorizedUPGMA_MatrixIf5Vec8f6Vec8fbED0Ev
       4648 1227 00692CD0 _ZN9StartTree22VectorizedUPGMA_MatrixIf5Vec8f6Vec8fbED2Ev
       4649 1228 00692D00 _ZN9StartTree23BenchmarkingTreeBuilder13constructTreeERKNSt7__cxx1112basic_stringIcSt11char_traitsIcESaIcEEES8_
       4650 1229 00692D60 _ZN9StartTree23BenchmarkingTreeBuilder14constructTree2ERSiRSo
       4651 122A 00692DB0 _ZN9StartTree23BenchmarkingTreeBuilder14getDescriptionB5cxx11Ev
       4652 122B 00692DC0 _ZN9StartTree23BenchmarkingTreeBuilder15setZippedOutputEb
       4653 122C 00692DD0 _ZN9StartTree23BenchmarkingTreeBuilder21constructTreeInMemoryERKSt6vectorINSt7__cxx1112basic_stringIcSt11char_traitsIcESaIcEEESaIS7_EEPdRKS7_
       4654 122D 00692FC0 _ZN9StartTree23BenchmarkingTreeBuilder22constructTreeInMemory2ERKSt6vectorINSt7__cxx1112basic_stringIcSt11char_traitsIcESaIcEEESaIS7_EEPdRSo
       4655 122E 006931B0 _ZN9StartTree23BenchmarkingTreeBuilder7getNameB5cxx11Ev
       4656 122F 006931C0 _ZN9StartTree23BenchmarkingTreeBuilderC1ERNS_7FactoryEPKcS4_
       4657 1230 006931C0 _ZN9StartTree23BenchmarkingTreeBuilderC2ERNS_7FactoryEPKcS4_
       4658 1231 006934D0 _ZN9StartTree23BenchmarkingTreeBuilderD0Ev
       4659 1232 00693530 _ZN9StartTree23BenchmarkingTreeBuilderD2Ev
       4660 1233 00693580 _ZN9StartTree24addBioNJ2009TreeBuildersERNS_7FactoryE
       4661 1234 00693670 _ZN9StartTree24addBioNJ2020TreeBuildersERNS_7FactoryE
       4662 1235 00693880 _ZN9StartTree6MatrixIdE18removeRowAndColumnEy
       4663 1236 00693A80 _ZN9StartTree6MatrixIdE5clearEv
       4664 1237 00693AE0 _ZN9StartTree6MatrixIdE7setSizeEy
       4665 1238 00693CF0 _ZN9StartTree6MatrixIdED0Ev
       4666 1239 00693D60 _ZN9StartTree6MatrixIdED2Ev
       4667 123A 00693DC0 _ZN9StartTree6MatrixIfE18removeRowAndColumnEy
       4668 123B 00693FC0 _ZN9StartTree6MatrixIfE5clearEv
       4669 123C 00694020 _ZN9StartTree6MatrixIfE7setSizeEy
       4670 123D 00694230 _ZN9StartTree6MatrixIfED0Ev
       4671 123E 006942A0 _ZN9StartTree6MatrixIfED2Ev
       4672 123F 00694300 _ZN9StartTree6MatrixIiE5clearEv
       4673 1240 00694360 _ZN9StartTree6MatrixIiE7setSizeEy
       4674 1241 00694570 _ZN9StartTree6MatrixIiED0Ev
       4675 1242 006945E0 _ZN9StartTree6MatrixIiED2Ev
       4676 1243 00694640 _ZN9StartTree7BuilderINS_11BIONJMatrixIfEEE13constructTreeERKNSt7__cxx1112basic_stringIcSt11char_traitsIcESaIcEEESB_
       4677 1244 00694810 _ZN9StartTree7BuilderINS_11BIONJMatrixIfEEE14constructTree2ERSiRSo
       4678 1245 00694980 _ZN9StartTree7BuilderINS_11BIONJMatrixIfEEE14getDescriptionB5cxx11Ev
       4679 1246 00694990 _ZN9StartTree7BuilderINS_11BIONJMatrixIfEEE15setZippedOutputEb
       4680 1247 006949A0 _ZN9StartTree7BuilderINS_11BIONJMatrixIfEEE17constructTreeWithERS2_
       4681 1248 00694BF0 _ZN9StartTree7BuilderINS_11BIONJMatrixIfEEE21constructTreeInMemoryERKSt6vectorINSt7__cxx1112basic_stringIcSt11char_traitsIcESaIcEEESaISA_EEPdRKSA_
       4682 1249 00694DC0 _ZN9StartTree7BuilderINS_11BIONJMatrixIfEEE22constructTreeInMemory2ERKSt6vectorINSt7__cxx1112basic_stringIcSt11char_traitsIcESaIcEEESaISA_EEPdRSo
       4683 124A 00694F80 _ZN9StartTree7BuilderINS_11BIONJMatrixIfEEE7getNameB5cxx11Ev
       4684 124B 00694F90 _ZN9StartTree7BuilderINS_11BIONJMatrixIfEEE8beSilentEv
       4685 124C 00694FA0 _ZN9StartTree7BuilderINS_11BIONJMatrixIfEEEC2EPKcS5_
       4686 124D 00695100 _ZN9StartTree7BuilderINS_11BIONJMatrixIfEEED0Ev
       4687 124E 00695150 _ZN9StartTree7BuilderINS_11BIONJMatrixIfEEED2Ev
       4688 124F 006951A0 _ZN9StartTree7BuilderINS_12UPGMA_MatrixIfEEE13constructTreeERKNSt7__cxx1112basic_stringIcSt11char_traitsIcESaIcEEESB_
       4689 1250 00695260 _ZN9StartTree7BuilderINS_12UPGMA_MatrixIfEEE14constructTree2ERSiRSo
       4690 1251 00695300 _ZN9StartTree7BuilderINS_12UPGMA_MatrixIfEEE14getDescriptionB5cxx11Ev
       4691 1252 00695310 _ZN9StartTree7BuilderINS_12UPGMA_MatrixIfEEE15setZippedOutputEb
       4692 1253 00695320 _ZN9StartTree7BuilderINS_12UPGMA_MatrixIfEEE17constructTreeWithERS2_
       4693 1254 00695570 _ZN9StartTree7BuilderINS_12UPGMA_MatrixIfEEE21constructTreeInMemoryERKSt6vectorINSt7__cxx1112basic_stringIcSt11char_traitsIcESaIcEEESaISA_EEPdRKSA_
       4694 1255 00695630 _ZN9StartTree7BuilderINS_12UPGMA_MatrixIfEEE22constructTreeInMemory2ERKSt6vectorINSt7__cxx1112basic_stringIcSt11char_traitsIcESaIcEEESaISA_EEPdRSo
       4695 1256 006956E0 _ZN9StartTree7BuilderINS_12UPGMA_MatrixIfEEE7getNameB5cxx11Ev
       4696 1257 006956F0 _ZN9StartTree7BuilderINS_12UPGMA_MatrixIfEEE8beSilentEv
       4697 1258 00695700 _ZN9StartTree7BuilderINS_12UPGMA_MatrixIfEEEC2EPKcS5_
       4698 1259 00695860 _ZN9StartTree7BuilderINS_12UPGMA_MatrixIfEEED0Ev
       4699 125A 006958B0 _ZN9StartTree7BuilderINS_12UPGMA_MatrixIfEEED2Ev
       4700 125B 00695900 _ZN9StartTree7BuilderINS_14BoundingMatrixIdNS_11BIONJMatrixIdEEEEE13constructTreeERKNSt7__cxx1112basic_stringIcSt11char_traitsIcESaIcEEESD_
       4701 125C 00695AE0 _ZN9StartTree7BuilderINS_14BoundingMatrixIdNS_11BIONJMatrixIdEEEEE14constructTree2ERSiRSo
       4702 125D 00695C60 _ZN9StartTree7BuilderINS_14BoundingMatrixIdNS_11BIONJMatrixIdEEEEE14getDescriptionB5cxx11Ev
       4703 125E 00695C70 _ZN9StartTree7BuilderINS_14BoundingMatrixIdNS_11BIONJMatrixIdEEEEE15setZippedOutputEb
       4704 125F 00695C80 _ZN9StartTree7BuilderINS_14BoundingMatrixIdNS_11BIONJMatrixIdEEEEE17constructTreeWithERS4_
       4705 1260 00695ED0 _ZN9StartTree7BuilderINS_14BoundingMatrixIdNS_11BIONJMatrixIdEEEEE21constructTreeInMemoryERKSt6vectorINSt7__cxx1112basic_stringIcSt11char_traitsIcESaIcEEESaISC_EEPdRKSC_
       4706 1261 006960B0 _ZN9StartTree7BuilderINS_14BoundingMatrixIdNS_11BIONJMatrixIdEEEEE22constructTreeInMemory2ERKSt6vectorINSt7__cxx1112basic_stringIcSt11char_traitsIcESaIcEEESaISC_EEPdRSo
       4707 1262 00696280 _ZN9StartTree7BuilderINS_14BoundingMatrixIdNS_11BIONJMatrixIdEEEEE7getNameB5cxx11Ev
       4708 1263 00696290 _ZN9StartTree7BuilderINS_14BoundingMatrixIdNS_11BIONJMatrixIdEEEEE8beSilentEv
       4709 1264 006962A0 _ZN9StartTree7BuilderINS_14BoundingMatrixIdNS_11BIONJMatrixIdEEEEEC2EPKcS7_
       4710 1265 00696400 _ZN9StartTree7BuilderINS_14BoundingMatrixIdNS_11BIONJMatrixIdEEEEED0Ev
       4711 1266 00696450 _ZN9StartTree7BuilderINS_14BoundingMatrixIdNS_11BIONJMatrixIdEEEEED2Ev
       4712 1267 006964A0 _ZN9StartTree7BuilderINS_14BoundingMatrixIfNS_11BIONJMatrixIfEEEEE13constructTreeERKNSt7__cxx1112basic_stringIcSt11char_traitsIcESaIcEEESD_
       4713 1268 00696680 _ZN9StartTree7BuilderINS_14BoundingMatrixIfNS_11BIONJMatrixIfEEEEE14constructTree2ERSiRSo
       4714 1269 00696800 _ZN9StartTree7BuilderINS_14BoundingMatrixIfNS_11BIONJMatrixIfEEEEE14getDescriptionB5cxx11Ev
       4715 126A 00696810 _ZN9StartTree7BuilderINS_14BoundingMatrixIfNS_11BIONJMatrixIfEEEEE15setZippedOutputEb
       4716 126B 00696820 _ZN9StartTree7BuilderINS_14BoundingMatrixIfNS_11BIONJMatrixIfEEEEE17constructTreeWithERS4_
       4717 126C 00696A70 _ZN9StartTree7BuilderINS_14BoundingMatrixIfNS_11BIONJMatrixIfEEEEE21constructTreeInMemoryERKSt6vectorINSt7__cxx1112basic_stringIcSt11char_traitsIcESaIcEEESaISC_EEPdRKSC_
       4718 126D 00696C50 _ZN9StartTree7BuilderINS_14BoundingMatrixIfNS_11BIONJMatrixIfEEEEE22constructTreeInMemory2ERKSt6vectorINSt7__cxx1112basic_stringIcSt11char_traitsIcESaIcEEESaISC_EEPdRSo
       4719 126E 00696E20 _ZN9StartTree7BuilderINS_14BoundingMatrixIfNS_11BIONJMatrixIfEEEEE7getNameB5cxx11Ev
       4720 126F 00696E30 _ZN9StartTree7BuilderINS_14BoundingMatrixIfNS_11BIONJMatrixIfEEEEE8beSilentEv
       4721 1270 00696E40 _ZN9StartTree7BuilderINS_14BoundingMatrixIfNS_11BIONJMatrixIfEEEEEC2EPKcS7_
       4722 1271 00696FA0 _ZN9StartTree7BuilderINS_14BoundingMatrixIfNS_11BIONJMatrixIfEEEEED0Ev
       4723 1272 00696FF0 _ZN9StartTree7BuilderINS_14BoundingMatrixIfNS_11BIONJMatrixIfEEEEED2Ev
       4724 1273 00697040 _ZN9StartTree7BuilderINS_14BoundingMatrixIfNS_8NJMatrixIfEEEEE13constructTreeERKNSt7__cxx1112basic_stringIcSt11char_traitsIcESaIcEEESD_
       4725 1274 006971C0 _ZN9StartTree7BuilderINS_14BoundingMatrixIfNS_8NJMatrixIfEEEEE14constructTree2ERSiRSo
       4726 1275 00697330 _ZN9StartTree7BuilderINS_14BoundingMatrixIfNS_8NJMatrixIfEEEEE14getDescriptionB5cxx11Ev
       4727 1276 00697340 _ZN9StartTree7BuilderINS_14BoundingMatrixIfNS_8NJMatrixIfEEEEE15setZippedOutputEb
       4728 1277 00697350 _ZN9StartTree7BuilderINS_14BoundingMatrixIfNS_8NJMatrixIfEEEEE17constructTreeWithERS4_
       4729 1278 006975A0 _ZN9StartTree7BuilderINS_14BoundingMatrixIfNS_8NJMatrixIfEEEEE21constructTreeInMemoryERKSt6vectorINSt7__cxx1112basic_stringIcSt11char_traitsIcESaIcEEESaISC_EEPdRKSC_
       4730 1279 00697720 _ZN9StartTree7BuilderINS_14BoundingMatrixIfNS_8NJMatrixIfEEEEE22constructTreeInMemory2ERKSt6vectorINSt7__cxx1112basic_stringIcSt11char_traitsIcESaIcEEESaISC_EEPdRSo
       4731 127A 00697890 _ZN9StartTree7BuilderINS_14BoundingMatrixIfNS_8NJMatrixIfEEEEE7getNameB5cxx11Ev
       4732 127B 006978A0 _ZN9StartTree7BuilderINS_14BoundingMatrixIfNS_8NJMatrixIfEEEEE8beSilentEv
       4733 127C 006978B0 _ZN9StartTree7BuilderINS_14BoundingMatrixIfNS_8NJMatrixIfEEEEEC2EPKcS7_
       4734 127D 00697A10 _ZN9StartTree7BuilderINS_14BoundingMatrixIfNS_8NJMatrixIfEEEEED0Ev
       4735 127E 00697A60 _ZN9StartTree7BuilderINS_14BoundingMatrixIfNS_8NJMatrixIfEEEEED2Ev
       4736 127F 00697AB0 _ZN9StartTree7BuilderINS_16VectorizedMatrixIfNS_11BIONJMatrixIfEE5Vec8f6Vec8fbEEE13constructTreeERKNSt7__cxx1112basic_stringIcSt11char_traitsIcESaIcEEESF_
       4737 1280 00697C10 _ZN9StartTree7BuilderINS_16VectorizedMatrixIfNS_11BIONJMatrixIfEE5Vec8f6Vec8fbEEE14constructTree2ERSiRSo
       4738 1281 00697D10 _ZN9StartTree7BuilderINS_16VectorizedMatrixIfNS_11BIONJMatrixIfEE5Vec8f6Vec8fbEEE14getDescriptionB5cxx11Ev
       4739 1282 00697D20 _ZN9StartTree7BuilderINS_16VectorizedMatrixIfNS_11BIONJMatrixIfEE5Vec8f6Vec8fbEEE15setZippedOutputEb
       4740 1283 00697D30 _ZN9StartTree7BuilderINS_16VectorizedMatrixIfNS_11BIONJMatrixIfEE5Vec8f6Vec8fbEEE17constructTreeWithERS6_
       4741 1284 00697F80 _ZN9StartTree7BuilderINS_16VectorizedMatrixIfNS_11BIONJMatrixIfEE5Vec8f6Vec8fbEEE21constructTreeInMemoryERKSt6vectorINSt7__cxx1112basic_stringIcSt11char_traitsIcESaIcEEESaISE_EEPdRKSE_
       4742 1285 006980E0 _ZN9StartTree7BuilderINS_16VectorizedMatrixIfNS_11BIONJMatrixIfEE5Vec8f6Vec8fbEEE22constructTreeInMemory2ERKSt6vectorINSt7__cxx1112basic_stringIcSt11char_traitsIcESaIcEEESaISE_EEPdRSo
       4743 1286 00698230 _ZN9StartTree7BuilderINS_16VectorizedMatrixIfNS_11BIONJMatrixIfEE5Vec8f6Vec8fbEEE7getNameB5cxx11Ev
       4744 1287 00698240 _ZN9StartTree7BuilderINS_16VectorizedMatrixIfNS_11BIONJMatrixIfEE5Vec8f6Vec8fbEEE8beSilentEv
       4745 1288 00698250 _ZN9StartTree7BuilderINS_16VectorizedMatrixIfNS_11BIONJMatrixIfEE5Vec8f6Vec8fbEEEC2EPKcS9_
       4746 1289 006983B0 _ZN9StartTree7BuilderINS_16VectorizedMatrixIfNS_11BIONJMatrixIfEE5Vec8f6Vec8fbEEED0Ev
       4747 128A 00698400 _ZN9StartTree7BuilderINS_16VectorizedMatrixIfNS_11BIONJMatrixIfEE5Vec8f6Vec8fbEEED2Ev
       4748 128B 00698450 _ZN9StartTree7BuilderINS_16VectorizedMatrixIfNS_8NJMatrixIfEE5Vec8f6Vec8fbEEE13constructTreeERKNSt7__cxx1112basic_stringIcSt11char_traitsIcESaIcEEESF_
       4749 128C 006985A0 _ZN9StartTree7BuilderINS_16VectorizedMatrixIfNS_8NJMatrixIfEE5Vec8f6Vec8fbEEE14constructTree2ERSiRSo
       4750 128D 006986C0 _ZN9StartTree7BuilderINS_16VectorizedMatrixIfNS_8NJMatrixIfEE5Vec8f6Vec8fbEEE14getDescriptionB5cxx11Ev
       4751 128E 006986D0 _ZN9StartTree7BuilderINS_16VectorizedMatrixIfNS_8NJMatrixIfEE5Vec8f6Vec8fbEEE15setZippedOutputEb
       4752 128F 006986E0 _ZN9StartTree7BuilderINS_16VectorizedMatrixIfNS_8NJMatrixIfEE5Vec8f6Vec8fbEEE17constructTreeWithERS6_
       4753 1290 00698930 _ZN9StartTree7BuilderINS_16VectorizedMatrixIfNS_8NJMatrixIfEE5Vec8f6Vec8fbEEE21constructTreeInMemoryERKSt6vectorINSt7__cxx1112basic_stringIcSt11char_traitsIcESaIcEEESaISE_EEPdRKSE_
       4754 1291 00698A80 _ZN9StartTree7BuilderINS_16VectorizedMatrixIfNS_8NJMatrixIfEE5Vec8f6Vec8fbEEE22constructTreeInMemory2ERKSt6vectorINSt7__cxx1112basic_stringIcSt11char_traitsIcESaIcEEESaISE_EEPdRSo
       4755 1292 00698BB0 _ZN9StartTree7BuilderINS_16VectorizedMatrixIfNS_8NJMatrixIfEE5Vec8f6Vec8fbEEE7getNameB5cxx11Ev
       4756 1293 00698BC0 _ZN9StartTree7BuilderINS_16VectorizedMatrixIfNS_8NJMatrixIfEE5Vec8f6Vec8fbEEE8beSilentEv
       4757 1294 00698BD0 _ZN9StartTree7BuilderINS_16VectorizedMatrixIfNS_8NJMatrixIfEE5Vec8f6Vec8fbEEEC2EPKcS9_
       4758 1295 00698D30 _ZN9StartTree7BuilderINS_16VectorizedMatrixIfNS_8NJMatrixIfEE5Vec8f6Vec8fbEEED0Ev
       4759 1296 00698D80 _ZN9StartTree7BuilderINS_16VectorizedMatrixIfNS_8NJMatrixIfEE5Vec8f6Vec8fbEEED2Ev
       4760 1297 00698DD0 _ZN9StartTree7BuilderINS_22VectorizedUPGMA_MatrixIf5Vec8f6Vec8fbEEE13constructTreeERKNSt7__cxx1112basic_stringIcSt11char_traitsIcESaIcEEESD_
       4761 1298 00698ED0 _ZN9StartTree7BuilderINS_22VectorizedUPGMA_MatrixIf5Vec8f6Vec8fbEEE14constructTree2ERSiRSo
       4762 1299 00698FB0 _ZN9StartTree7BuilderINS_22VectorizedUPGMA_MatrixIf5Vec8f6Vec8fbEEE14getDescriptionB5cxx11Ev
       4763 129A 00698FC0 _ZN9StartTree7BuilderINS_22VectorizedUPGMA_MatrixIf5Vec8f6Vec8fbEEE15setZippedOutputEb
       4764 129B 00698FD0 _ZN9StartTree7BuilderINS_22VectorizedUPGMA_MatrixIf5Vec8f6Vec8fbEEE17constructTreeWithERS4_
       4765 129C 00699220 _ZN9StartTree7BuilderINS_22VectorizedUPGMA_MatrixIf5Vec8f6Vec8fbEEE21constructTreeInMemoryERKSt6vectorINSt7__cxx1112basic_stringIcSt11char_traitsIcESaIcEEESaISC_EEPdRKSC_
       4766 129D 00699320 _ZN9StartTree7BuilderINS_22VectorizedUPGMA_MatrixIf5Vec8f6Vec8fbEEE22constructTreeInMemory2ERKSt6vectorINSt7__cxx1112basic_stringIcSt11char_traitsIcESaIcEEESaISC_EEPdRSo
       4767 129E 00699410 _ZN9StartTree7BuilderINS_22VectorizedUPGMA_MatrixIf5Vec8f6Vec8fbEEE7getNameB5cxx11Ev
       4768 129F 00699420 _ZN9StartTree7BuilderINS_22VectorizedUPGMA_MatrixIf5Vec8f6Vec8fbEEE8beSilentEv
       4769 12A0 00699430 _ZN9StartTree7BuilderINS_22VectorizedUPGMA_MatrixIf5Vec8f6Vec8fbEEEC2EPKcS7_
       4770 12A1 00699590 _ZN9StartTree7BuilderINS_22VectorizedUPGMA_MatrixIf5Vec8f6Vec8fbEEED0Ev
       4771 12A2 006995E0 _ZN9StartTree7BuilderINS_22VectorizedUPGMA_MatrixIf5Vec8f6Vec8fbEEED2Ev
       4772 12A3 00699630 _ZN9StartTree7BuilderINS_8NJMatrixIfEEE13constructTreeERKNSt7__cxx1112basic_stringIcSt11char_traitsIcESaIcEEESB_
       4773 12A4 00699730 _ZN9StartTree7BuilderINS_8NJMatrixIfEEE14constructTree2ERSiRSo
       4774 12A5 00699800 _ZN9StartTree7BuilderINS_8NJMatrixIfEEE14getDescriptionB5cxx11Ev
       4775 12A6 00699810 _ZN9StartTree7BuilderINS_8NJMatrixIfEEE15setZippedOutputEb
       4776 12A7 00699820 _ZN9StartTree7BuilderINS_8NJMatrixIfEEE17constructTreeWithERS2_
       4777 12A8 00699A70 _ZN9StartTree7BuilderINS_8NJMatrixIfEEE21constructTreeInMemoryERKSt6vectorINSt7__cxx1112basic_stringIcSt11char_traitsIcESaIcEEESaISA_EEPdRKSA_
       4778 12A9 00699B70 _ZN9StartTree7BuilderINS_8NJMatrixIfEEE22constructTreeInMemory2ERKSt6vectorINSt7__cxx1112basic_stringIcSt11char_traitsIcESaIcEEESaISA_EEPdRSo
       4779 12AA 00699C50 _ZN9StartTree7BuilderINS_8NJMatrixIfEEE7getNameB5cxx11Ev
       4780 12AB 00699C60 _ZN9StartTree7BuilderINS_8NJMatrixIfEEE8beSilentEv
       4781 12AC 00699C70 _ZN9StartTree7BuilderINS_8NJMatrixIfEEEC2EPKcS5_
       4782 12AD 00699DD0 _ZN9StartTree7BuilderINS_8NJMatrixIfEEED0Ev
       4783 12AE 00699E20 _ZN9StartTree7BuilderINS_8NJMatrixIfEEED2Ev
       4784 12AF 00699E70 _ZN9StartTree7ClusterIdED2Ev
       4785 12B0 00699EB0 _ZN9StartTree7ClusterIfED2Ev
       4786 12B1 00699EF0 _ZN9StartTree7Factory10addBuilderERKNSt7__cxx1112basic_stringIcSt11char_traitsIcESaIcEEEPNS_16BuilderInterfaceE
       4787 12B2 00699F10 _ZN9StartTree7Factory10getBuilderEPKc
       4788 12B3 0069A0E0 _ZN9StartTree7Factory10getBuilderERKNSt7__cxx1112basic_stringIcSt11char_traitsIcESaIcEEE
       4789 12B4 0069A110 _ZN9StartTree7Factory11getInstanceEv
       4790 12B5 0069A230 _ZN9StartTree7Factory15getBuilderCountEv
       4791 12B6 0069A240 _ZN9StartTree7Factory20advertiseTreeBuilderEPNS_16BuilderInterfaceE
       4792 12B7 0069A320 _ZN9StartTree7Factory20getTreeBuilderByNameERKNSt7__cxx1112basic_stringIcSt11char_traitsIcESaIcEEE
       4793 12B8 0069A360 _ZN9StartTree7Factory27getNameOfDefaultTreeBuilderB5cxx11Ev
       4794 12B9 0069A380 _ZN9StartTree7Factory27setNameOfDefaultTreeBuilderEPKc
       4795 12BA 0069A3C0 _ZN9StartTree7FactoryC1Ev
       4796 12BB 0069A3C0 _ZN9StartTree7FactoryC2Ev
       4797 12BC 0069A400 _ZN9StartTree7FactoryD1Ev
       4798 12BD 0069A400 _ZN9StartTree7FactoryD2Ev
       4799 12BE 0069A4B0 _ZN9StartTree8NJMatrixIdE7clusterEyy
       4800 12BF 0069A830 _ZN9StartTree8NJMatrixIdED0Ev
       4801 12C0 0069A870 _ZN9StartTree8NJMatrixIdED2Ev
       4802 12C1 0069A8A0 _ZN9StartTree8NJMatrixIfE7clusterEyy
       4803 12C2 0069AC10 _ZN9StartTree8NJMatrixIfED0Ev
       4804 12C3 0069AC50 _ZN9StartTree8NJMatrixIfED2Ev
       4805 12C4 0069AC80 _ZN9SuperNode11addNeighborEP4Nodedi
       4806 12C5 0069AE00 _ZN9SuperNode4initEv
       4807 12C6 0069AE10 _ZN9SuperNodeC1Ei
       4808 12C7 0069AE30 _ZN9SuperNodeC1EiPKc
       4809 12C8 0069AE50 _ZN9SuperNodeC1Eii
       4810 12C9 0069AE70 _ZN9SuperNodeC1Ev
       4811 12CA 0069AE10 _ZN9SuperNodeC2Ei
       4812 12CB 0069AE30 _ZN9SuperNodeC2EiPKc
       4813 12CC 0069AE50 _ZN9SuperNodeC2Eii
       4814 12CD 0069AE70 _ZN9SuperNodeC2Ev
       4815 12CE 0069AE90 _ZN9SuperNodeD0Ev
       4816 12CF 0069AEB0 _ZN9SuperNodeD1Ev
       4817 12D0 0069AEB0 _ZN9SuperNodeD2Ev
       4818 12D1 0069AEC0 _ZN9TerraceTP10printTreesERSo
       4819 12D2 0069AEE0 _ZN9TerraceTP20printTreesCompressedERSo
       4820 12D3 0069AF00 _ZN9TerraceTP4initEv
       4821 12D4 0069AF10 _ZN9TerraceTP7getSizeEv
       4822 12D5 0069AF20 _ZN9TerraceTPC1ER9PhyloTreeP14SuperAlignment
       4823 12D6 0069AF20 _ZN9TerraceTPC2ER9PhyloTreeP14SuperAlignment
       4824 12D7 0069B570 _ZN9TerraceTPD1Ev
       4825 12D8 0069B570 _ZN9TerraceTPD2Ev
       4826 12D9 0069B690 _ZN9igzstreamC1Ev
       4827 12DA 0069B810 _ZN9igzstreamD0Ev
       4828 12DB 0069B870 _ZN9igzstreamD1Ev
       4829 12DC 0069B8C0 _ZN9ogzstreamC1Ev
       4830 12DD 0069BA30 _ZN9ogzstreamD0Ev
       4831 12DE 0069BA60 _ZN9ogzstreamD1Ev
       4832 12DF 0069BA90 _ZNK10ModelSubst14getEigenvaluesEv
       4833 12E0 0069BAA0 _ZNK10ModelSubst15getEigenvectorsEv
       4834 12E1 0069BAB0 _ZNK10ModelSubst22getInverseEigenvectorsEv
       4835 12E2 0069BAC0 _ZNK10ModelSubst32getInverseEigenvectorsTransposedEv
       4836 12E3 0069BAD0 _ZNK11ModelMarkov14getEigenvaluesEv
       4837 12E4 0069BAE0 _ZNK11ModelMarkov15getEigenvectorsEv
       4838 12E5 0069BAF0 _ZNK11ModelMarkov22getInverseEigenvectorsEv
       4839 12E6 0069BB00 _ZNK11ModelMarkov32getInverseEigenvectorsTransposedEv
       4840 12E7 0069BB10 _ZNK14RateGammaInvar8isGammaiEv
       4841 12E8 0069BB20 _ZNK17RateHeterogeneity10isFreeRateEv
       4842 12E9 0069BB30 _ZNK17RateHeterogeneity11isFixPInvarEv
       4843 12EA 0069BB40 _ZNK17RateHeterogeneity15isFixGammaShapeEv
       4844 12EB 0069BB50 _ZNK17RateHeterogeneity8isGammaiEv
       4845 12EC 0069BB60 _ZNK4YAML10Directives18TranslateTagHandleERKNSt7__cxx1112basic_stringIcSt11char_traitsIcESaIcEEE
       4846 12ED 0069BCB0 _ZNK4YAML15SingleDocParser12LookupAnchorERKNS_4MarkERKNSt7__cxx1112basic_stringIcSt11char_traitsIcESaIcEEE
       4847 12EE 0069BD80 _ZNK4YAML4Node16EnsureNodeExistsEv
       4848 12EF 0069BE80 _ZNK4YAML4Node4MarkEv
       4849 12F0 0069BF00 _ZNK4YAML5RegEx10MatchOpAndINS_16StreamCharSourceEEEiRKT_
       4850 12F1 0069BF80 _ZNK4YAML5RegEx10MatchOpAndINS_16StringCharSourceEEEiRKT_
       4851 12F2 0069C000 _ZNK4YAML5RegEx10MatchOpNotINS_16StreamCharSourceEEEiRKT_
       4852 12F3 0069C030 _ZNK4YAML5RegEx10MatchOpNotINS_16StringCharSourceEEEiRKT_
       4853 12F4 0069C060 _ZNK4YAML5RegEx10MatchOpSeqINS_16StreamCharSourceEEEiRKT_
       4854 12F5 0069C100 _ZNK4YAML5RegEx10MatchOpSeqINS_16StringCharSourceEEEiRKT_
       4855 12F6 0069C290 _ZNK4YAML5RegEx14MatchUncheckedINS_16StreamCharSourceEEEiRKT_
       4856 12F7 0069C5D0 _ZNK4YAML5RegEx14MatchUncheckedINS_16StringCharSourceEEEiRKT_
       4857 12F8 0069C7F0 _ZNK4YAML5RegEx5MatchERKNSt7__cxx1112basic_stringIcSt11char_traitsIcESaIcEEE
       4858 12F9 0069C990 _ZNK4YAML5RegEx5MatchINS_16StreamCharSourceEEEiRKT_
       4859 12FA 0069CBF0 _ZNK4YAML5RegEx5MatchINS_16StringCharSourceEEEiRKT_
       4860 12FB 0069CCA0 _ZNK4YAML5RegEx9MatchOpOrINS_16StreamCharSourceEEEiRKT_
       4861 12FC 0069CD10 _ZNK4YAML5RegEx9MatchOpOrINS_16StringCharSourceEEEiRKT_
       4862 12FD 0069CD80 _ZNK4YAML6ParsercvbEv
       4863 12FE 0069CDA0 _ZNK4YAML6Stream11GetNextByteEv
       4864 12FF 0069CE30 _ZNK4YAML6Stream12StreamInUtf8Ev
       4865 1300 0069CF10 _ZNK4YAML6Stream12_ReadAheadToEy
       4866 1301 0069D050 _ZNK4YAML6Stream13StreamInUtf16Ev
       4867 1302 0069D3A0 _ZNK4YAML6Stream13StreamInUtf32Ev
       4868 1303 0069D630 _ZNK4YAML6Stream4peekEv
       4869 1304 0069D690 _ZNK4YAML6StreamcvbEv
       4870 1305 0069D700 _ZNK4YAML6detail13iterator_baseIKNS0_14iterator_valueEEdeEv
       4871 1306 0069DA60 _ZNK4YAML6detail13iterator_baseIKNS0_14iterator_valueEEptEv
       4872 1307 0069DB10 _ZNK4YAML6detail13iterator_baseINS0_14iterator_valueEEdeEv
       4873 1308 0069DE70 _ZNK4YAML6detail9node_data16compute_map_sizeEv
       4874 1309 0069DEF0 _ZNK4YAML6detail9node_data16compute_seq_sizeEv
       4875 130A 0069DF40 _ZNK4YAML6detail9node_data3endEv
       4876 130B 0069DFA0 _ZNK4YAML6detail9node_data3getERNS0_4nodeESt10shared_ptrINS0_13memory_holderEE
       4877 130C 0069DFE0 _ZNK4YAML6detail9node_data4sizeEv
       4878 130D 0069E0D0 _ZNK4YAML6detail9node_data5beginEv
       4879 130E 0069E190 _ZNK4YAML7Scanner12GetTopIndentEv
       4880 130F 0069E1D0 _ZNK4YAML7Scanner13GetValueRegexEv
       4881 1310 0069E270 _ZNK4YAML7Scanner16GetStartTokenForENS0_12IndentMarker11INDENT_TYPEE
       4882 1311 0069E2D0 _ZNK4YAML7Scanner20ThrowParserExceptionERKNSt7__cxx1112basic_stringIcSt11char_traitsIcESaIcEEE
       4883 1312 0069E360 _ZNK4YAML7Scanner21ExistsActiveSimpleKeyEv
       4884 1313 0069E3E0 _ZNK4YAML7Scanner27CanInsertPotentialSimpleKeyEv
       4885 1314 0069E470 _ZNK4YAML7Scanner4markEv
       4886 1315 0069E490 _ZNK5Eigen10MatrixBaseINS_5BlockINS1_INS_6MatrixIdLi4ELi4ELi0ELi4ELi4EEELi4ELi1ELb1EEELin1ELi1ELb0EEEE15makeHouseholderINS_11VectorBlockIS5_Lin1EEEEEvRT_RdSC_
       4887 1316 0069EA10 _ZNK5Eigen10MatrixBaseINS_5BlockINS1_INS_6MatrixIdLin1ELin1ELi0ELin1ELin1EEELin1ELi1ELb1EEELin1ELi1ELb0EEEE15makeHouseholderINS_11VectorBlockIS5_Lin1EEEEEvRT_RdSC_
       4888 1317 0069EF90 _ZNK5Eigen11EigenSolverINS_6MatrixIdLi4ELi4ELi0ELi4ELi4EEEE12eigenvectorsEv
       4889 1318 0069F570 _ZNK5Eigen11EigenSolverINS_6MatrixIdLin1ELin1ELi0ELin1ELin1EEEE12eigenvectorsEv
       4890 1319 006A0260 _ZNK5Eigen12PartialPivLUINS_6MatrixIdLin1ELin1ELi0ELin1ELin1EEEE11_solve_implIS2_S2_EEvRKT_RT0_
       4891 131A 006A03D0 _ZNK5Eigen12PartialPivLUINS_6MatrixIdLin1ELin1ELi1ELin1ELin1EEEE11_solve_implIS2_S2_EEvRKT_RT0_
       4892 131B 006A0540 _ZNK5Eigen19ColPivHouseholderQRINS_6MatrixIdLin1ELin1ELi0ELin1ELin1EEEE11_solve_implINS1_IdLin1ELi1ELi0ELin1ELi1EEENS_3MapIS5_Li0ENS_6StrideILi0ELi0EEEEEEEvRKT_RT0_
       4893 131C 006A08E0 _ZNK5Eigen19HouseholderSequenceINS_6MatrixIdLi4ELi4ELi0ELi4ELi4EEENS1_IdLi3ELi1ELi0ELi3ELi1EEELi1EE18applyThisOnTheLeftIS2_NS1_IdLi4ELi1ELi0ELi4ELi1EEEEEvRT_RT0_b
       4894 131D 006A0D50 _ZNK5Eigen19HouseholderSequenceINS_6MatrixIdLi4ELi4ELi0ELi4ELi4EEENS1_IdLi3ELi1ELi0ELi3ELi1EEELi1EE6evalToIS2_NS1_IdLi4ELi1ELi0ELi4ELi1EEEEEvRT_RT0_
       4895 131E 006A1620 _ZNK5Eigen19HouseholderSequenceINS_6MatrixIdLin1ELin1ELi0ELin1ELin1EEENS1_IdLin1ELi1ELi0ELin1ELi1EEELi1EE18applyThisOnTheLeftIS2_S3_EEvRT_RT0_b
       4896 131F 006A1AE0 _ZNK5Eigen19HouseholderSequenceINS_6MatrixIdLin1ELin1ELi0ELin1ELin1EEENS1_IdLin1ELi1ELi0ELin1ELi1EEELi1EE18applyThisOnTheLeftIS3_NS1_IdLi1ELi1ELi1ELi1ELi1EEEEEvRT_RT0_b
       4897 1320 006A1D00 _ZNK5Eigen19HouseholderSequenceINS_6MatrixIdLin1ELin1ELi0ELin1ELin1EEENS1_IdLin1ELi1ELi0ELin1ELi1EEELi1EE6evalToIS2_EEvRT_
       4898 1321 006A1E00 _ZNK5Eigen19HouseholderSequenceINS_6MatrixIdLin1ELin1ELi0ELin1ELin1EEENS1_IdLin1ELi1ELi0ELin1ELi1EEELi1EE6evalToIS2_S3_EEvRT_RT0_
       4899 1322 006A29A0 _ZNK5Eigen22SelfAdjointEigenSolverINS_6MatrixIdLin1ELin1ELi0ELin1ELin1EEEE12eigenvectorsEv
       4900 1323 006A29F0 _ZNK5Eigen8internal17product_evaluatorINS_7ProductINS_5BlockINS3_INS_6MatrixIdLi4ELi4ELi0ELi4ELi4EEELin1ELin1ELb0EEELin1ELin1ELb0EEENS3_IKS5_Lin1ELi1ELb0EEELi1EEELi3ENS_10DenseShapeESB_ddE5coeffEx
       4901 1324 006A2BB0 _ZNK5Eigen9DenseBaseINS_12CwiseUnaryOpINS_8internal21scalar_score_coeff_opISt7complexIdEEEKNS_5BlockINS_6MatrixIS5_Lin1ELin1ELi0ELin1ELin1EEELin1ELin1ELb0EEEEEE8maxCoeffILi0ExEEdPT0_SG_
       4902 1325 006A2D60 _ZNK5Eigen9EigenBaseINS_6MatrixIdLin1ELin1ELi0ELin1ELin1EEEE19applyThisOnTheRightIS2_EEvRT_
       4903 1326 006A2E80 _ZNK5Eigen9EigenBaseINS_6MatrixIdLin1ELin1ELi1ELin1ELin1EEEE19applyThisOnTheRightIS2_EEvRT_
       4904 1327 006A2FA0 _ZNK5Eigen9FullPivLUINS_6MatrixISt7complexIdELin1ELin1ELi0ELin1ELin1EEEE11_solve_implINS_14CwiseNullaryOpINS_8internal18scalar_identity_opIS3_EES4_EENS_3MapIS4_Li16ENS_6StrideILi0ELi0EEEEEEEvRKT_RT0_
       4905 1328 006A3B00 _ZNK5Eigen9FullPivLUINS_6MatrixISt7complexIdELin1ELin1ELi0ELin1ELin1EEEE11_solve_implINS_14CwiseNullaryOpINS_8internal18scalar_identity_opIS3_EES4_EES4_EEvRKT_RT0_
       4906 1329 006A4670 _ZNK5Eigen9FullPivLUINS_6MatrixIdLin1ELin1ELi0ELin1ELin1EEEE11_solve_implINS_14CwiseNullaryOpINS_8internal18scalar_identity_opIdEES2_EES2_EEvRKT_RT0_
       4907 132A 006A56D0 _ZNK5Split9countTaxaEv
       4908 132B 006A59F0 _ZNK5SpliteqERKS_
       4909 132C 006A5A40 _ZNK5SplitltERKS_
       4910 132D 006A5A70 _ZNK5boost10wrapexceptINS_4math14rounding_errorEE5cloneEv
       4911 132E 006A5B50 _ZNK5boost10wrapexceptINS_4math14rounding_errorEE7rethrowEv
       4912 132F 006A5BA0 _ZNK5boost10wrapexceptINS_4math16evaluation_errorEE5cloneEv
       4913 1330 006A5C80 _ZNK5boost10wrapexceptINS_4math16evaluation_errorEE7rethrowEv
       4914 1331 006A5CD0 _ZNK5boost10wrapexceptISt12domain_errorE5cloneEv
       4915 1332 006A5DB0 _ZNK5boost10wrapexceptISt12domain_errorE7rethrowEv
       4916 1333 006A5E00 _ZNK5boost10wrapexceptISt14overflow_errorE5cloneEv
       4917 1334 006A5EE0 _ZNK5boost10wrapexceptISt14overflow_errorE7rethrowEv
       4918 1335 006A5F30 _ZNK6IQTree9getDeleteEv
       4919 1336 006A5F40 _ZNK7Pattern14computeGapCharEii
       4920 1337 006A6110 _ZNK8RateFree10isFreeRateEv
       4921 1338 006A6120 _ZNK8terraces12bipartitions13find_set_repsEv
       4922 1339 006A6390 _ZNK8terraces12bipartitions13get_both_setsEyNS_5utils15stack_allocatorIyEE
       4923 133A 006A6870 _ZNK8terraces12bipartitions13get_first_setEyNS_5utils15stack_allocatorIyEE
       4924 133B 006A6BA0 _ZNK8terraces12bipartitions17in_left_partitionEyy
       4925 133C 006A6BB0 _ZNK8terraces12bipartitions20get_both_sets_unsafeEy
       4926 133D 006A6BE0 _ZNK8terraces12bipartitions8flip_setERNS_22basic_ranked_bitvectorINS_5utils15stack_allocatorIyEEEE
       4927 133E 006A6D70 _ZNK8terraces12checked_uintILb0EE10is_clampedEv
       4928 133F 006A6D80 _ZNK8terraces12checked_uintILb0EE5valueEv
       4929 1340 006A6D90 _ZNK8terraces12checked_uintILb1EE10is_clampedEv
       4930 1341 006A6DA0 _ZNK8terraces12checked_uintILb1EE5valueEv
       4931 1342 006A6DB0 _ZNK8terraces9bitmatrix3getEyy
       4932 1343 006A6E30 _ZNK8terraces9bitmatrix4colsEv
       4933 1344 006A6E40 _ZNK8terraces9bitmatrix4rowsEv
       4934 1345 006A6E50 _ZNK8terraces9bitmatrix8get_colsERKSt6vectorIySaIyEE
       4935 1346 006A7150 _ZNK8terraces9bitmatrixeqERKS0_
       4936 1347 006A7210 _ZNK8terraces9bitmatrixneERKS0_
       4937 1348 006A72D0 _ZNK9Alignment10adjustHashEbRy
       4938 1349 006A7300 _ZNK9Alignment10adjustHashEjRy
       4939 134A 006A7330 _ZNK9Alignment37computeJCDistanceFromObservedDistanceEd
       4940 134B 006A73A0 _ZNK9NxsString10IsInVectorERKSt6vectorIS_SaIS_EENS_7CmpEnumE
       4941 134C 006A74D0 _ZNK9NxsString12ConvertToIntEv
       4942 134D 006A7500 _ZNK9NxsString12QuotesNeededEv
       4943 134E 006A75B0 _ZNK9NxsString13ConvertToLongEv
       4944 134F 006A7610 _ZNK9NxsString15ConvertToDoubleEv
       4945 1350 006A76D0 _ZNK9NxsString15UpperCasePrefixEv
       4946 1351 006A7760 _ZNK9NxsString17ConvertToUnsignedEv
       4947 1352 006A7780 _ZNK9NxsString17IsCapAbbreviationERKS_
       4948 1353 006A78A0 _ZNK9NxsString17IsStdAbbreviationERKS_b
       4949 1354 006A7950 _ZNK9NxsString21EqualsCaseInsensitiveERKS_
       4950 1355 006A79C0 _ZNK9NxsString7IsALongEv
       4951 1356 006A7A20 _ZNK9NxsString9IsADoubleEv
       4952 1357 006A7B10 _ZNK9PhyloTree15hasModelFactoryEv
       4953 1358 006A7B20 _ZNK9PhyloTree20hasRateHeterogeneityEv
       4954 1359 006A7B30 _ZNK9PhyloTree22getDistanceFileWrittenB5cxx11Ev
       4955 135A 006A7B40 _ZNK9PhyloTree26getConvertedSequenceLengthEv
       4956 135B 006A7B60 _ZNK9PhyloTree28getConvertedSequenceByNumberEi
       4957 135C 006A7B90 _ZNK9PhyloTree29hasMatrixOfConvertedSequencesEv
       4958 135D 006A7BB0 _ZNK9PhyloTree31getConvertedSequenceFrequenciesEv
       4959 135E 006A7BD0 _ZNK9PhyloTree39getConvertedSequenceNonConstFrequenciesEv
       4960 135F 006A7BF0 _ZNK9PhyloTree44getSumOfFrequenciesForSitesWithConstantStateEi
       4961 1360 006A7C20 _ZNK9RateGamma15isFixGammaShapeEv
       4962 1361 006A7C30 _ZNK9RateInvar11isFixPInvarEv
       4963 1362 006A7C40 _ZNK9StartTree11BIONJMatrixIdE16getAlgorithmNameB5cxx11Ev
       4964 1363 006A7C60 _ZNK9StartTree11BIONJMatrixIfE16getAlgorithmNameB5cxx11Ev
       4965 1364 006A7C80 _ZNK9StartTree11ClusterTreeIdE13writeTreeFileEbRKNSt7__cxx1112basic_stringIcSt11char_traitsIcESaIcEEE
       4966 1365 006A7D90 _ZNK9StartTree11ClusterTreeIdE15writeTreeToFileI9ogzstreamEEbRKNSt7__cxx1112basic_stringIcSt11char_traitsIcESaIcEEERT_
       4967 1366 006A7F20 _ZNK9StartTree11ClusterTreeIdE15writeTreeToFileISt13basic_fstreamIcSt11char_traitsIcEEEEbRKNSt7__cxx1112basic_stringIcS5_SaIcEEERT_
       4968 1367 006A80F0 _ZNK9StartTree11ClusterTreeIdE17writeTreeToStreamERSo
       4969 1368 006A8720 _ZNK9StartTree11ClusterTreeIfE13writeTreeFileEbRKNSt7__cxx1112basic_stringIcSt11char_traitsIcESaIcEEE
       4970 1369 006A8830 _ZNK9StartTree11ClusterTreeIfE15writeTreeToFileI9ogzstreamEEbRKNSt7__cxx1112basic_stringIcSt11char_traitsIcESaIcEEERT_
       4971 136A 006A89C0 _ZNK9StartTree11ClusterTreeIfE15writeTreeToFileISt13basic_fstreamIcSt11char_traitsIcEEEEbRKNSt7__cxx1112basic_stringIcS5_SaIcEEERT_
       4972 136B 006A8B90 _ZNK9StartTree11ClusterTreeIfE17writeTreeToStreamERSo
       4973 136C 006A91D0 _ZNK9StartTree12UPGMA_MatrixIdE12getRowMinimaEv
       4974 136D 006A9250 _ZNK9StartTree12UPGMA_MatrixIdE16getAlgorithmNameB5cxx11Ev
       4975 136E 006A9270 _ZNK9StartTree12UPGMA_MatrixIfE12getRowMinimaEv
       4976 136F 006A92F0 _ZNK9StartTree12UPGMA_MatrixIfE16getAlgorithmNameB5cxx11Ev
       4977 1370 006A9310 _ZNK9StartTree14BoundingMatrixIdNS_11BIONJMatrixIdEEE12getRowMinimaEv
       4978 1371 006A9470 _ZNK9StartTree14BoundingMatrixIdNS_11BIONJMatrixIdEEE16getAlgorithmNameB5cxx11Ev
       4979 1372 006A9540 _ZNK9StartTree14BoundingMatrixIdNS_11BIONJMatrixIdEEE24decideOnRowScanningOrderEv
       4980 1373 006A9830 _ZNK9StartTree14BoundingMatrixIfNS_11BIONJMatrixIfEEE12getRowMinimaEv
       4981 1374 006A9970 _ZNK9StartTree14BoundingMatrixIfNS_11BIONJMatrixIfEEE16getAlgorithmNameB5cxx11Ev
       4982 1375 006A9A40 _ZNK9StartTree14BoundingMatrixIfNS_11BIONJMatrixIfEEE24decideOnRowScanningOrderEv
       4983 1376 006A9D20 _ZNK9StartTree14BoundingMatrixIfNS_8NJMatrixIfEEE12getRowMinimaEv
       4984 1377 006A9E60 _ZNK9StartTree14BoundingMatrixIfNS_8NJMatrixIfEEE16getAlgorithmNameB5cxx11Ev
       4985 1378 006A9F30 _ZNK9StartTree14BoundingMatrixIfNS_8NJMatrixIfEEE24decideOnRowScanningOrderEv
       4986 1379 006AA210 _ZNK9StartTree16VectorizedMatrixIfNS_11BIONJMatrixIfEE5Vec8f6Vec8fbE12getRowMinimaEv
       4987 137A 006AA910 _ZNK9StartTree16VectorizedMatrixIfNS_11BIONJMatrixIfEE5Vec8f6Vec8fbE16getAlgorithmNameB5cxx11Ev
       4988 137B 006AA9E0 _ZNK9StartTree16VectorizedMatrixIfNS_11BIONJMatrixIfEE5Vec8f6Vec8fbE18calculateRowTotalsEv
       4989 137C 006AAAD0 _ZNK9StartTree16VectorizedMatrixIfNS_8NJMatrixIfEE5Vec8f6Vec8fbE12getRowMinimaEv
       4990 137D 006AB1D0 _ZNK9StartTree16VectorizedMatrixIfNS_8NJMatrixIfEE5Vec8f6Vec8fbE16getAlgorithmNameB5cxx11Ev
       4991 137E 006AB2A0 _ZNK9StartTree16VectorizedMatrixIfNS_8NJMatrixIfEE5Vec8f6Vec8fbE18calculateRowTotalsEv
       4992 137F 006AB390 _ZNK9StartTree22VectorizedUPGMA_MatrixIf5Vec8f6Vec8fbE12getRowMinimaEv
       4993 1380 006AB440 _ZNK9StartTree22VectorizedUPGMA_MatrixIf5Vec8f6Vec8fbE16getAlgorithmNameB5cxx11Ev
       4994 1381 006AB510 _ZNK9StartTree22VectorizedUPGMA_MatrixIf5Vec8f6Vec8fbE18calculateRowTotalsEv
       4995 1382 006AB580 _ZNK9StartTree6MatrixIdE18calculateRowTotalsEv
       4996 1383 006AB5B0 _ZNK9StartTree6MatrixIfE18calculateRowTotalsEv
       4997 1384 006AB5E0 _ZNK9StartTree6MatrixIiE18calculateRowTotalsEv
       4998 1385 006AB610 _ZNK9StartTree7Factory21getListOfTreeBuildersB5cxx11Ev
       4999 1386 006AB800 _ZNK9StartTree8NJMatrixIdE12getRowMinimaEv
       5000 1387 006ABA70 _ZNK9StartTree8NJMatrixIdE16getAlgorithmNameB5cxx11Ev
       5001 1388 006ABA90 _ZNK9StartTree8NJMatrixIdE18calculateRowTotalsEv
       5002 1389 006ABAD0 _ZNK9StartTree8NJMatrixIdE24calculateScaledRowTotalsEv
       5003 138A 006ABB90 _ZNK9StartTree8NJMatrixIfE12getRowMinimaEv
       5004 138B 006ABDE0 _ZNK9StartTree8NJMatrixIfE16getAlgorithmNameB5cxx11Ev
       5005 138C 006ABE00 _ZNK9StartTree8NJMatrixIfE18calculateRowTotalsEv
       5006 138D 006ABE40 _ZNK9StartTree8NJMatrixIfE24calculateScaledRowTotalsEv
       5007 138E 006ABF00 _ZNKSt10_HashtableINSt7__cxx1112basic_stringIcSt11char_traitsIcESaIcEEESt4pairIKS5_yESaIS8_ENSt8__detail10_Select1stESt8equal_toIS5_ESt4hashIS5_ENSA_18_Mod_range_hashingENSA_20_Default_ranged_hashENSA_20_Prime_rehash_policyENSA_17_Hashtable_traitsILb1ELb0ELb1EEEE4findERS7_
       5008 138F 006AC090 _ZNKSt8_Rb_treeINSt7__cxx1112basic_stringIcSt11char_traitsIcESaIcEEESt4pairIKS5_S5_ESt10_Select1stIS8_ESt4lessIS5_ESaIS8_EE4findERS7_
       5009 1390 006AC1A0 _ZNKSt8_Rb_treeINSt7__cxx1112basic_stringIcSt11char_traitsIcESaIcEEESt4pairIKS5_yESt10_Select1stIS8_ESt4lessIS5_ESaIS8_EE4findERS7_
       5010 1391 006AC2B0 _ZNKSt8__detail17_ReuseOrAllocNodeISaINS_10_Hash_nodeISt4pairIKNSt7__cxx1112basic_stringIcSt11char_traitsIcESaIcEEEdELb1EEEEEclIJRKSA_EEEPSB_DpOT_
       5011 1392 006AC3A0 _ZNSi6sentryC2ERSib
       5012 1393 006AC560 _ZNSt10_HashtableINSt7__cxx1112basic_stringIcSt11char_traitsIcESaIcEEES5_SaIS5_ENSt8__detail9_IdentityESt8equal_toIS5_ESt4hashIS5_ENS7_18_Mod_range_hashingENS7_20_Default_ranged_hashENS7_20_Prime_rehash_policyENS7_17_Hashtable_traitsILb1ELb1ELb1EEEE12_Scoped_nodeD2Ev
       5013 1394 006AC5A0 _ZNSt10_HashtableINSt7__cxx1112basic_stringIcSt11char_traitsIcESaIcEEES5_SaIS5_ENSt8__detail9_IdentityESt8equal_toIS5_ESt4hashIS5_ENS7_18_Mod_range_hashingENS7_20_Default_ranged_hashENS7_20_Prime_rehash_policyENS7_17_Hashtable_traitsILb1ELb1ELb1EEEE16_M_insert_uniqueIRKS5_SL_NS7_10_AllocNodeISaINS7_10_Hash_nodeIS5_Lb1EEEEEEEESt4pairINS7_14_Node_iteratorIS5_Lb1ELb1EEEbEOT_OT0_RKT1_
       5014 1395 006AC8C0 _ZNSt10_HashtableINSt7__cxx1112basic_stringIcSt11char_traitsIcESaIcEEES5_SaIS5_ENSt8__detail9_IdentityESt8equal_toIS5_ESt4hashIS5_ENS7_18_Mod_range_hashingENS7_20_Default_ranged_hashENS7_20_Prime_rehash_policyENS7_17_Hashtable_traitsILb1ELb1ELb1EEEE16_M_insert_uniqueIRS5_SK_NS7_10_AllocNodeISaINS7_10_Hash_nodeIS5_Lb1EEEEEEEESt4pairINS7_14_Node_iteratorIS5_Lb1ELb1EEEbEOT_OT0_RKT1_
       5015 1396 006ACBE0 _ZNSt10_HashtableINSt7__cxx1112basic_stringIcSt11char_traitsIcESaIcEEES5_SaIS5_ENSt8__detail9_IdentityESt8equal_toIS5_ESt4hashIS5_ENS7_18_Mod_range_hashingENS7_20_Default_ranged_hashENS7_20_Prime_rehash_policyENS7_17_Hashtable_traitsILb1ELb1ELb1EEEE16_M_insert_uniqueIS5_S5_NS7_10_AllocNodeISaINS7_10_Hash_nodeIS5_Lb1EEEEEEEESt4pairINS7_14_Node_iteratorIS5_Lb1ELb1EEEbEOT_OT0_RKT1_
       5016 1397 006ACF50 _ZNSt10_HashtableINSt7__cxx1112basic_stringIcSt11char_traitsIcESaIcEEES5_SaIS5_ENSt8__detail9_IdentityESt8equal_toIS5_ESt4hashIS5_ENS7_18_Mod_range_hashingENS7_20_Default_ranged_hashENS7_20_Prime_rehash_policyENS7_17_Hashtable_traitsILb1ELb1ELb1EEEE4findERKS5_
       5017 1398 006AD140 _ZNSt10_HashtableINSt7__cxx1112basic_stringIcSt11char_traitsIcESaIcEEES5_SaIS5_ENSt8__detail9_IdentityESt8equal_toIS5_ESt4hashIS5_ENS7_18_Mod_range_hashingENS7_20_Default_ranged_hashENS7_20_Prime_rehash_policyENS7_17_Hashtable_traitsILb1ELb1ELb1EEEE9_M_rehashEySt17integral_constantIbLb1EE
       5018 1399 006AD270 _ZNSt10_HashtableINSt7__cxx1112basic_stringIcSt11char_traitsIcESaIcEEESt4pairIKS5_8NxsModelESaIS9_ENSt8__detail10_Select1stESt8equal_toIS5_ESt4hashIS5_ENSB_18_Mod_range_hashingENSB_20_Default_ranged_hashENSB_20_Prime_rehash_policyENSB_17_Hashtable_traitsILb1ELb0ELb1EEEE10_M_emplaceIJS9_EEES6_INSB_14_Node_iteratorIS9_Lb0ELb1EEEbESt17integral_constantIbLb1EEDpOT_
       5019 139A 006AD5D0 _ZNSt10_HashtableINSt7__cxx1112basic_stringIcSt11char_traitsIcESaIcEEESt4pairIKS5_8NxsModelESaIS9_ENSt8__detail10_Select1stESt8equal_toIS5_ESt4hashIS5_ENSB_18_Mod_range_hashingENSB_20_Default_ranged_hashENSB_20_Prime_rehash_policyENSB_17_Hashtable_traitsILb1ELb0ELb1EEEE12_Scoped_nodeD2Ev
       5020 139B 006AD640 _ZNSt10_HashtableINSt7__cxx1112basic_stringIcSt11char_traitsIcESaIcEEESt4pairIKS5_8NxsModelESaIS9_ENSt8__detail10_Select1stESt8equal_toIS5_ESt4hashIS5_ENSB_18_Mod_range_hashingENSB_20_Default_ranged_hashENSB_20_Prime_rehash_policyENSB_17_Hashtable_traitsILb1ELb0ELb1EEEE4findERS7_
       5021 139C 006AD830 _ZNSt10_HashtableINSt7__cxx1112basic_stringIcSt11char_traitsIcESaIcEEESt4pairIKS5_8NxsModelESaIS9_ENSt8__detail10_Select1stESt8equal_toIS5_ESt4hashIS5_ENSB_18_Mod_range_hashingENSB_20_Default_ranged_hashENSB_20_Prime_rehash_policyENSB_17_Hashtable_traitsILb1ELb0ELb1EEEE9_M_rehashEySt17integral_constantIbLb1EE
       5022 139D 006AD960 _ZNSt10_HashtableINSt7__cxx1112basic_stringIcSt11char_traitsIcESaIcEEESt4pairIKS5_8NxsModelESaIS9_ENSt8__detail10_Select1stESt8equal_toIS5_ESt4hashIS5_ENSB_18_Mod_range_hashingENSB_20_Default_ranged_hashENSB_20_Prime_rehash_policyENSB_17_Hashtable_traitsILb1ELb0ELb1EEEED2Ev
       5023 139E 006ADA30 _ZNSt10_HashtableINSt7__cxx1112basic_stringIcSt11char_traitsIcESaIcEEESt4pairIKS5_P10ModelSubstESaISA_ENSt8__detail10_Select1stESt8equal_toIS5_ESt4hashIS5_ENSC_18_Mod_range_hashingENSC_20_Default_ranged_hashENSC_20_Prime_rehash_policyENSC_17_Hashtable_traitsILb1ELb0ELb1EEEE12_Scoped_nodeD2Ev
       5024 139F 006ADA70 _ZNSt10_HashtableINSt7__cxx1112basic_stringIcSt11char_traitsIcESaIcEEESt4pairIKS5_P10ModelSubstESaISA_ENSt8__detail10_Select1stESt8equal_toIS5_ESt4hashIS5_ENSC_18_Mod_range_hashingENSC_20_Default_ranged_hashENSC_20_Prime_rehash_policyENSC_17_Hashtable_traitsILb1ELb0ELb1EEEE4findERS7_
       5025 13A0 006ADC60 _ZNSt10_HashtableINSt7__cxx1112basic_stringIcSt11char_traitsIcESaIcEEESt4pairIKS5_P10ModelSubstESaISA_ENSt8__detail10_Select1stESt8equal_toIS5_ESt4hashIS5_ENSC_18_Mod_range_hashingENSC_20_Default_ranged_hashENSC_20_Prime_rehash_policyENSC_17_Hashtable_traitsILb1ELb0ELb1EEEE9_M_rehashEySt17integral_constantIbLb1EE
       5026 13A1 006ADD90 _ZNSt10_HashtableINSt7__cxx1112basic_stringIcSt11char_traitsIcESaIcEEESt4pairIKS5_S5_ESaIS8_ENSt8__detail10_Select1stESt8equal_toIS5_ESt4hashIS5_ENSA_18_Mod_range_hashingENSA_20_Default_ranged_hashENSA_20_Prime_rehash_policyENSA_17_Hashtable_traitsILb1ELb0ELb1EEEE12_Scoped_nodeD2Ev
       5027 13A2 006ADDE0 _ZNSt10_HashtableINSt7__cxx1112basic_stringIcSt11char_traitsIcESaIcEEESt4pairIKS5_S5_ESaIS8_ENSt8__detail10_Select1stESt8equal_toIS5_ESt4hashIS5_ENSA_18_Mod_range_hashingENSA_20_Default_ranged_hashENSA_20_Prime_rehash_policyENSA_17_Hashtable_traitsILb1ELb0ELb1EEEE4findERS7_
       5028 13A3 006ADFD0 _ZNSt10_HashtableINSt7__cxx1112basic_stringIcSt11char_traitsIcESaIcEEESt4pairIKS5_S5_ESaIS8_ENSt8__detail10_Select1stESt8equal_toIS5_ESt4hashIS5_ENSA_18_Mod_range_hashingENSA_20_Default_ranged_hashENSA_20_Prime_rehash_policyENSA_17_Hashtable_traitsILb1ELb0ELb1EEEE8_M_eraseESt17integral_constantIbLb1EERS7_
       5029 13A4 006AE300 _ZNSt10_HashtableINSt7__cxx1112basic_stringIcSt11char_traitsIcESaIcEEESt4pairIKS5_S5_ESaIS8_ENSt8__detail10_Select1stESt8equal_toIS5_ESt4hashIS5_ENSA_18_Mod_range_hashingENSA_20_Default_ranged_hashENSA_20_Prime_rehash_policyENSA_17_Hashtable_traitsILb1ELb0ELb1EEEE9_M_rehashEySt17integral_constantIbLb1EE
       5030 13A5 006AE430 _ZNSt10_HashtableINSt7__cxx1112basic_stringIcSt11char_traitsIcESaIcEEESt4pairIKS5_dESaIS8_ENSt8__detail10_Select1stESt8equal_toIS5_ESt4hashIS5_ENSA_18_Mod_range_hashingENSA_20_Default_ranged_hashENSA_20_Prime_rehash_policyENSA_17_Hashtable_traitsILb1ELb0ELb1EEEE12_Scoped_nodeD2Ev
       5031 13A6 006AE470 _ZNSt10_HashtableINSt7__cxx1112basic_stringIcSt11char_traitsIcESaIcEEESt4pairIKS5_dESaIS8_ENSt8__detail10_Select1stESt8equal_toIS5_ESt4hashIS5_ENSA_18_Mod_range_hashingENSA_20_Default_ranged_hashENSA_20_Prime_rehash_policyENSA_17_Hashtable_traitsILb1ELb0ELb1EEEE18_M_assign_elementsIRKSL_EEvOT_
       5032 13A7 006AE620 _ZNSt10_HashtableINSt7__cxx1112basic_stringIcSt11char_traitsIcESaIcEEESt4pairIKS5_dESaIS8_ENSt8__detail10_Select1stESt8equal_toIS5_ESt4hashIS5_ENSA_18_Mod_range_hashingENSA_20_Default_ranged_hashENSA_20_Prime_rehash_policyENSA_17_Hashtable_traitsILb1ELb0ELb1EEEE4findERS7_
       5033 13A8 006AE810 _ZNSt10_HashtableINSt7__cxx1112basic_stringIcSt11char_traitsIcESaIcEEESt4pairIKS5_dESaIS8_ENSt8__detail10_Select1stESt8equal_toIS5_ESt4hashIS5_ENSA_18_Mod_range_hashingENSA_20_Default_ranged_hashENSA_20_Prime_rehash_policyENSA_17_Hashtable_traitsILb1ELb0ELb1EEEE5clearEv
       5034 13A9 006AE880 _ZNSt10_HashtableINSt7__cxx1112basic_stringIcSt11char_traitsIcESaIcEEESt4pairIKS5_dESaIS8_ENSt8__detail10_Select1stESt8equal_toIS5_ESt4hashIS5_ENSA_18_Mod_range_hashingENSA_20_Default_ranged_hashENSA_20_Prime_rehash_policyENSA_17_Hashtable_traitsILb1ELb0ELb1EEEE8_M_eraseESt17integral_constantIbLb1EERS7_
       5035 13AA 006AEBA0 _ZNSt10_HashtableINSt7__cxx1112basic_stringIcSt11char_traitsIcESaIcEEESt4pairIKS5_dESaIS8_ENSt8__detail10_Select1stESt8equal_toIS5_ESt4hashIS5_ENSA_18_Mod_range_hashingENSA_20_Default_ranged_hashENSA_20_Prime_rehash_policyENSA_17_Hashtable_traitsILb1ELb0ELb1EEEE9_M_assignIRKSL_NSA_17_ReuseOrAllocNodeISaINSA_10_Hash_nodeIS8_Lb1EEEEEEEEvOT_RKT0_
       5036 13AB 006AED40 _ZNSt10_HashtableINSt7__cxx1112basic_stringIcSt11char_traitsIcESaIcEEESt4pairIKS5_dESaIS8_ENSt8__detail10_Select1stESt8equal_toIS5_ESt4hashIS5_ENSA_18_Mod_range_hashingENSA_20_Default_ranged_hashENSA_20_Prime_rehash_policyENSA_17_Hashtable_traitsILb1ELb0ELb1EEEE9_M_rehashEySt17integral_constantIbLb1EE
       5037 13AC 006AEE70 _ZNSt10_HashtableINSt7__cxx1112basic_stringIcSt11char_traitsIcESaIcEEESt4pairIKS5_iESaIS8_ENSt8__detail10_Select1stESt8equal_toIS5_ESt4hashIS5_ENSA_18_Mod_range_hashingENSA_20_Default_ranged_hashENSA_20_Prime_rehash_policyENSA_17_Hashtable_traitsILb1ELb0ELb1EEEE12_Scoped_nodeD2Ev
       5038 13AD 006AEEB0 _ZNSt10_HashtableINSt7__cxx1112basic_stringIcSt11char_traitsIcESaIcEEESt4pairIKS5_iESaIS8_ENSt8__detail10_Select1stESt8equal_toIS5_ESt4hashIS5_ENSA_18_Mod_range_hashingENSA_20_Default_ranged_hashENSA_20_Prime_rehash_policyENSA_17_Hashtable_traitsILb1ELb0ELb1EEEE4findERS7_
       5039 13AE 006AF0A0 _ZNSt10_HashtableINSt7__cxx1112basic_stringIcSt11char_traitsIcESaIcEEESt4pairIKS5_iESaIS8_ENSt8__detail10_Select1stESt8equal_toIS5_ESt4hashIS5_ENSA_18_Mod_range_hashingENSA_20_Default_ranged_hashENSA_20_Prime_rehash_policyENSA_17_Hashtable_traitsILb1ELb0ELb1EEEE9_M_rehashEySt17integral_constantIbLb1EE
       5040 13AF 006AF1D0 _ZNSt10_HashtableINSt7__cxx1112basic_stringIcSt11char_traitsIcESaIcEEESt4pairIKS5_jESaIS8_ENSt8__detail10_Select1stESt8equal_toIS5_ESt4hashIS5_ENSA_18_Mod_range_hashingENSA_20_Default_ranged_hashENSA_20_Prime_rehash_policyENSA_17_Hashtable_traitsILb1ELb0ELb1EEEE12_Scoped_nodeD2Ev
       5041 13B0 006AF210 _ZNSt10_HashtableINSt7__cxx1112basic_stringIcSt11char_traitsIcESaIcEEESt4pairIKS5_jESaIS8_ENSt8__detail10_Select1stESt8equal_toIS5_ESt4hashIS5_ENSA_18_Mod_range_hashingENSA_20_Default_ranged_hashENSA_20_Prime_rehash_policyENSA_17_Hashtable_traitsILb1ELb0ELb1EEEE4findERS7_
       5042 13B1 006AF400 _ZNSt10_HashtableINSt7__cxx1112basic_stringIcSt11char_traitsIcESaIcEEESt4pairIKS5_jESaIS8_ENSt8__detail10_Select1stESt8equal_toIS5_ESt4hashIS5_ENSA_18_Mod_range_hashingENSA_20_Default_ranged_hashENSA_20_Prime_rehash_policyENSA_17_Hashtable_traitsILb1ELb0ELb1EEEE5clearEv
       5043 13B2 006AF470 _ZNSt10_HashtableINSt7__cxx1112basic_stringIcSt11char_traitsIcESaIcEEESt4pairIKS5_jESaIS8_ENSt8__detail10_Select1stESt8equal_toIS5_ESt4hashIS5_ENSA_18_Mod_range_hashingENSA_20_Default_ranged_hashENSA_20_Prime_rehash_policyENSA_17_Hashtable_traitsILb1ELb0ELb1EEEE9_M_assignIRKSL_NSA_10_AllocNodeISaINSA_10_Hash_nodeIS8_Lb1EEEEEEEEvOT_RKT0_
       5044 13B3 006AF610 _ZNSt10_HashtableINSt7__cxx1112basic_stringIcSt11char_traitsIcESaIcEEESt4pairIKS5_jESaIS8_ENSt8__detail10_Select1stESt8equal_toIS5_ESt4hashIS5_ENSA_18_Mod_range_hashingENSA_20_Default_ranged_hashENSA_20_Prime_rehash_policyENSA_17_Hashtable_traitsILb1ELb0ELb1EEEE9_M_rehashEySt17integral_constantIbLb1EE
       5045 13B4 006AF740 _ZNSt10_HashtableINSt7__cxx1112basic_stringIcSt11char_traitsIcESaIcEEESt4pairIKS5_yESaIS8_ENSt8__detail10_Select1stESt8equal_toIS5_ESt4hashIS5_ENSA_18_Mod_range_hashingENSA_20_Default_ranged_hashENSA_20_Prime_rehash_policyENSA_17_Hashtable_traitsILb1ELb0ELb1EEEE10_M_emplaceIJS8_EEES6_INSA_14_Node_iteratorIS8_Lb0ELb1EEEbESt17integral_constantIbLb1EEDpOT_
       5046 13B5 006AF9F0 _ZNSt10_HashtableINSt7__cxx1112basic_stringIcSt11char_traitsIcESaIcEEESt4pairIKS5_yESaIS8_ENSt8__detail10_Select1stESt8equal_toIS5_ESt4hashIS5_ENSA_18_Mod_range_hashingENSA_20_Default_ranged_hashENSA_20_Prime_rehash_policyENSA_17_Hashtable_traitsILb1ELb0ELb1EEEE12_Scoped_nodeD2Ev
       5047 13B6 006AFA30 _ZNSt10_HashtableINSt7__cxx1112basic_stringIcSt11char_traitsIcESaIcEEESt4pairIKS5_yESaIS8_ENSt8__detail10_Select1stESt8equal_toIS5_ESt4hashIS5_ENSA_18_Mod_range_hashingENSA_20_Default_ranged_hashENSA_20_Prime_rehash_policyENSA_17_Hashtable_traitsILb1ELb0ELb1EEEE5clearEv
       5048 13B7 006AFAA0 _ZNSt10_HashtableINSt7__cxx1112basic_stringIcSt11char_traitsIcESaIcEEESt4pairIKS5_yESaIS8_ENSt8__detail10_Select1stESt8equal_toIS5_ESt4hashIS5_ENSA_18_Mod_range_hashingENSA_20_Default_ranged_hashENSA_20_Prime_rehash_policyENSA_17_Hashtable_traitsILb1ELb0ELb1EEEE9_M_assignIRKSL_NSA_10_AllocNodeISaINSA_10_Hash_nodeIS8_Lb1EEEEEEEEvOT_RKT0_
       5049 13B8 006AFC00 _ZNSt10_HashtableINSt7__cxx1112basic_stringIcSt11char_traitsIcESaIcEEESt4pairIKS5_yESaIS8_ENSt8__detail10_Select1stESt8equal_toIS5_ESt4hashIS5_ENSA_18_Mod_range_hashingENSA_20_Default_ranged_hashENSA_20_Prime_rehash_policyENSA_17_Hashtable_traitsILb1ELb0ELb1EEEE9_M_rehashEySt17integral_constantIbLb1EE
       5050 13B9 006AFD30 _ZNSt10_HashtableIP13PhyloNeighborSt4pairIKS1_iESaIS4_ENSt8__detail10_Select1stESt8equal_toIS1_ESt4hashIS1_ENS6_18_Mod_range_hashingENS6_20_Default_ranged_hashENS6_20_Prime_rehash_policyENS6_17_Hashtable_traitsILb0ELb0ELb1EEEE8_M_eraseESt17integral_constantIbLb1EERS3_
       5051 13BA 006AFF50 _ZNSt10_HashtableIP13PhyloNeighborSt4pairIKS1_iESaIS4_ENSt8__detail10_Select1stESt8equal_toIS1_ESt4hashIS1_ENS6_18_Mod_range_hashingENS6_20_Default_ranged_hashENS6_20_Prime_rehash_policyENS6_17_Hashtable_traitsILb0ELb0ELb1EEEE9_M_rehashEySt17integral_constantIbLb1EE
       5052 13BB 006B0080 _ZNSt10_HashtableIP5SplitSt4pairIKS1_S2_IP4NodeS5_EESaIS7_ENSt8__detail10_Select1stESt8equal_toIS1_E14hashfunc_SplitNS9_18_Mod_range_hashingENS9_20_Default_ranged_hashENS9_20_Prime_rehash_policyENS9_17_Hashtable_traitsILb1ELb0ELb1EEEE10_M_emplaceIJS2_IS1_S6_EEEES2_INS9_14_Node_iteratorIS7_Lb0ELb1EEEbESt17integral_constantIbLb1EEDpOT_
       5053 13BC 006B0300 _ZNSt10_HashtableIP5SplitSt4pairIKS1_S2_IP4NodeS5_EESaIS7_ENSt8__detail10_Select1stESt8equal_toIS1_E14hashfunc_SplitNS9_18_Mod_range_hashingENS9_20_Default_ranged_hashENS9_20_Prime_rehash_policyENS9_17_Hashtable_traitsILb1ELb0ELb1EEEE9_M_rehashEySt17integral_constantIbLb1EE
       5054 13BD 006B0430 _ZNSt10_HashtableIP5SplitSt4pairIKS1_iESaIS4_ENSt8__detail10_Select1stESt8equal_toIS1_E14hashfunc_SplitNS6_18_Mod_range_hashingENS6_20_Default_ranged_hashENS6_20_Prime_rehash_policyENS6_17_Hashtable_traitsILb1ELb0ELb1EEEE18_M_assign_elementsIRKSG_EEvOT_
       5055 13BE 006B05F0 _ZNSt10_HashtableIP5SplitSt4pairIKS1_iESaIS4_ENSt8__detail10_Select1stESt8equal_toIS1_E14hashfunc_SplitNS6_18_Mod_range_hashingENS6_20_Default_ranged_hashENS6_20_Prime_rehash_policyENS6_17_Hashtable_traitsILb1ELb0ELb1EEEE4findERS3_
       5056 13BF 006B0740 _ZNSt10_HashtableIP5SplitSt4pairIKS1_iESaIS4_ENSt8__detail10_Select1stESt8equal_toIS1_E14hashfunc_SplitNS6_18_Mod_range_hashingENS6_20_Default_ranged_hashENS6_20_Prime_rehash_policyENS6_17_Hashtable_traitsILb1ELb0ELb1EEEE5clearEv
       5057 13C0 006B0790 _ZNSt10_HashtableIP5SplitSt4pairIKS1_iESaIS4_ENSt8__detail10_Select1stESt8equal_toIS1_E14hashfunc_SplitNS6_18_Mod_range_hashingENS6_20_Default_ranged_hashENS6_20_Prime_rehash_policyENS6_17_Hashtable_traitsILb1ELb0ELb1EEEE8_M_eraseESt17integral_constantIbLb1EERS3_
       5058 13C1 006B09F0 _ZNSt10_HashtableIP5SplitSt4pairIKS1_iESaIS4_ENSt8__detail10_Select1stESt8equal_toIS1_E14hashfunc_SplitNS6_18_Mod_range_hashingENS6_20_Default_ranged_hashENS6_20_Prime_rehash_policyENS6_17_Hashtable_traitsILb1ELb0ELb1EEEE9_M_assignIRKSG_NS6_10_AllocNodeISaINS6_10_Hash_nodeIS4_Lb1EEEEEEEEvOT_RKT0_
       5059 13C2 006B0BB0 _ZNSt10_HashtableIP5SplitSt4pairIKS1_iESaIS4_ENSt8__detail10_Select1stESt8equal_toIS1_E14hashfunc_SplitNS6_18_Mod_range_hashingENS6_20_Default_ranged_hashENS6_20_Prime_rehash_policyENS6_17_Hashtable_traitsILb1ELb0ELb1EEEE9_M_assignIRKSG_NS6_17_ReuseOrAllocNodeISaINS6_10_Hash_nodeIS4_Lb1EEEEEEEEvOT_RKT0_
       5060 13C3 006B0DC0 _ZNSt10_HashtableIP5SplitSt4pairIKS1_iESaIS4_ENSt8__detail10_Select1stESt8equal_toIS1_E14hashfunc_SplitNS6_18_Mod_range_hashingENS6_20_Default_ranged_hashENS6_20_Prime_rehash_policyENS6_17_Hashtable_traitsILb1ELb0ELb1EEEE9_M_rehashEySt17integral_constantIbLb1EE
       5061 13C4 006B0EF0 _ZNSt10_HashtableISt6vectorIjSaIjEESt4pairIKS2_iESaIS5_ENSt8__detail10_Select1stESt8equal_toIS2_E11hashPatternNS7_18_Mod_range_hashingENS7_20_Default_ranged_hashENS7_20_Prime_rehash_policyENS7_17_Hashtable_traitsILb1ELb0ELb1EEEE12_Scoped_nodeD2Ev
       5062 13C5 006B0F20 _ZNSt10_HashtableISt6vectorIjSaIjEESt4pairIKS2_iESaIS5_ENSt8__detail10_Select1stESt8equal_toIS2_E11hashPatternNS7_18_Mod_range_hashingENS7_20_Default_ranged_hashENS7_20_Prime_rehash_policyENS7_17_Hashtable_traitsILb1ELb0ELb1EEEE4findERS4_
       5063 13C6 006B1130 _ZNSt10_HashtableISt6vectorIjSaIjEESt4pairIKS2_iESaIS5_ENSt8__detail10_Select1stESt8equal_toIS2_E11hashPatternNS7_18_Mod_range_hashingENS7_20_Default_ranged_hashENS7_20_Prime_rehash_policyENS7_17_Hashtable_traitsILb1ELb0ELb1EEEE5clearEv
       5064 13C7 006B11A0 _ZNSt10_HashtableISt6vectorIjSaIjEESt4pairIKS2_iESaIS5_ENSt8__detail10_Select1stESt8equal_toIS2_E11hashPatternNS7_18_Mod_range_hashingENS7_20_Default_ranged_hashENS7_20_Prime_rehash_policyENS7_17_Hashtable_traitsILb1ELb0ELb1EEEE9_M_assignIRKSH_NS7_10_AllocNodeISaINS7_10_Hash_nodeIS5_Lb1EEEEEEEEvOT_RKT0_
       5065 13C8 006B1340 _ZNSt10_HashtableISt6vectorIjSaIjEESt4pairIKS2_iESaIS5_ENSt8__detail10_Select1stESt8equal_toIS2_E11hashPatternNS7_18_Mod_range_hashingENS7_20_Default_ranged_hashENS7_20_Prime_rehash_policyENS7_17_Hashtable_traitsILb1ELb0ELb1EEEE9_M_rehashEySt17integral_constantIbLb1EE
       5066 13C9 006B1470 _ZNSt10_HashtableIiSt4pairIKiPdESaIS3_ENSt8__detail10_Select1stESt8equal_toIiESt4hashIiENS5_18_Mod_range_hashingENS5_20_Default_ranged_hashENS5_20_Prime_rehash_policyENS5_17_Hashtable_traitsILb0ELb0ELb1EEEE10_M_emplaceIJS3_EEES0_INS5_14_Node_iteratorIS3_Lb0ELb0EEEbESt17integral_constantIbLb1EEDpOT_
       5067 13CA 006B1690 _ZNSt10_HashtableIiSt4pairIKiPdESaIS3_ENSt8__detail10_Select1stESt8equal_toIiESt4hashIiENS5_18_Mod_range_hashingENS5_20_Default_ranged_hashENS5_20_Prime_rehash_policyENS5_17_Hashtable_traitsILb0ELb0ELb1EEEE9_M_rehashEySt17integral_constantIbLb1EE
       5068 13CB 006B17C0 _ZNSt10_HashtableIiiSaIiENSt8__detail9_IdentityESt8equal_toIiESt4hashIiENS1_18_Mod_range_hashingENS1_20_Default_ranged_hashENS1_20_Prime_rehash_policyENS1_17_Hashtable_traitsILb0ELb1ELb1EEEE16_M_insert_uniqueIRKiSF_NS1_10_AllocNodeISaINS1_10_Hash_nodeIiLb0EEEEEEEESt4pairINS1_14_Node_iteratorIiLb1ELb0EEEbEOT_OT0_RKT1_
       5069 13CC 006B19F0 _ZNSt10_HashtableIiiSaIiENSt8__detail9_IdentityESt8equal_toIiESt4hashIiENS1_18_Mod_range_hashingENS1_20_Default_ranged_hashENS1_20_Prime_rehash_policyENS1_17_Hashtable_traitsILb0ELb1ELb1EEEE9_M_rehashEySt17integral_constantIbLb1EE
       5070 13CD 006B1B20 _ZNSt10_HashtableIjSt4pairIKjNSt7__cxx1112basic_stringIcSt11char_traitsIcESaIcEEEESaIS8_ENSt8__detail10_Select1stESt8equal_toIjESt4hashIjENSA_18_Mod_range_hashingENSA_20_Default_ranged_hashENSA_20_Prime_rehash_policyENSA_17_Hashtable_traitsILb0ELb0ELb1EEEE12_Scoped_nodeD2Ev
       5071 13CE 006B1B60 _ZNSt10_HashtableIjSt4pairIKjNSt7__cxx1112basic_stringIcSt11char_traitsIcESaIcEEEESaIS8_ENSt8__detail10_Select1stESt8equal_toIjESt4hashIjENSA_18_Mod_range_hashingENSA_20_Default_ranged_hashENSA_20_Prime_rehash_policyENSA_17_Hashtable_traitsILb0ELb0ELb1EEEE5clearEv
       5072 13CF 006B1BD0 _ZNSt10_HashtableIjSt4pairIKjNSt7__cxx1112basic_stringIcSt11char_traitsIcESaIcEEEESaIS8_ENSt8__detail10_Select1stESt8equal_toIjESt4hashIjENSA_18_Mod_range_hashingENSA_20_Default_ranged_hashENSA_20_Prime_rehash_policyENSA_17_Hashtable_traitsILb0ELb0ELb1EEEE9_M_assignIRKSL_NSA_10_AllocNodeISaINSA_10_Hash_nodeIS8_Lb0EEEEEEEEvOT_RKT0_
       5073 13D0 006B1D50 _ZNSt10_HashtableIjSt4pairIKjNSt7__cxx1112basic_stringIcSt11char_traitsIcESaIcEEEESaIS8_ENSt8__detail10_Select1stESt8equal_toIjESt4hashIjENSA_18_Mod_range_hashingENSA_20_Default_ranged_hashENSA_20_Prime_rehash_policyENSA_17_Hashtable_traitsILb0ELb0ELb1EEEE9_M_rehashEySt17integral_constantIbLb1EE
       5074 13D1 006B1E70 _ZNSt10_HashtableIjSt4pairIKjSt6vectorIjSaIjEEESaIS5_ENSt8__detail10_Select1stESt8equal_toIjESt4hashIjENS7_18_Mod_range_hashingENS7_20_Default_ranged_hashENS7_20_Prime_rehash_policyENS7_17_Hashtable_traitsILb0ELb0ELb1EEEE12_Scoped_nodeD2Ev
       5075 13D2 006B1EA0 _ZNSt10_HashtableIjSt4pairIKjSt6vectorIjSaIjEEESaIS5_ENSt8__detail10_Select1stESt8equal_toIjESt4hashIjENS7_18_Mod_range_hashingENS7_20_Default_ranged_hashENS7_20_Prime_rehash_policyENS7_17_Hashtable_traitsILb0ELb0ELb1EEEE5clearEv
       5076 13D3 006B1F10 _ZNSt10_HashtableIjSt4pairIKjSt6vectorIjSaIjEEESaIS5_ENSt8__detail10_Select1stESt8equal_toIjESt4hashIjENS7_18_Mod_range_hashingENS7_20_Default_ranged_hashENS7_20_Prime_rehash_policyENS7_17_Hashtable_traitsILb0ELb0ELb1EEEE8_M_eraseESt17integral_constantIbLb1EERS1_
       5077 13D4 006B2080 _ZNSt10_HashtableIjSt4pairIKjSt6vectorIjSaIjEEESaIS5_ENSt8__detail10_Select1stESt8equal_toIjESt4hashIjENS7_18_Mod_range_hashingENS7_20_Default_ranged_hashENS7_20_Prime_rehash_policyENS7_17_Hashtable_traitsILb0ELb0ELb1EEEE9_M_assignIRKSI_NS7_10_AllocNodeISaINS7_10_Hash_nodeIS5_Lb0EEEEEEEEvOT_RKT0_
       5078 13D5 006B2200 _ZNSt10_HashtableIjSt4pairIKjSt6vectorIjSaIjEEESaIS5_ENSt8__detail10_Select1stESt8equal_toIjESt4hashIjENS7_18_Mod_range_hashingENS7_20_Default_ranged_hashENS7_20_Prime_rehash_policyENS7_17_Hashtable_traitsILb0ELb0ELb1EEEE9_M_rehashEySt17integral_constantIbLb1EE
       5079 13D6 006B2320 _ZNSt10_HashtableIjSt4pairIKjjESaIS2_ENSt8__detail10_Select1stESt8equal_toIjESt4hashIjENS4_18_Mod_range_hashingENS4_20_Default_ranged_hashENS4_20_Prime_rehash_policyENS4_17_Hashtable_traitsILb0ELb0ELb1EEEE18_M_assign_elementsIRKSF_EEvOT_
       5080 13D7 006B24E0 _ZNSt10_HashtableIjSt4pairIKjjESaIS2_ENSt8__detail10_Select1stESt8equal_toIjESt4hashIjENS4_18_Mod_range_hashingENS4_20_Default_ranged_hashENS4_20_Prime_rehash_policyENS4_17_Hashtable_traitsILb0ELb0ELb1EEEE5clearEv
       5081 13D8 006B2530 _ZNSt10_HashtableIjSt4pairIKjjESaIS2_ENSt8__detail10_Select1stESt8equal_toIjESt4hashIjENS4_18_Mod_range_hashingENS4_20_Default_ranged_hashENS4_20_Prime_rehash_policyENS4_17_Hashtable_traitsILb0ELb0ELb1EEEE9_M_assignIRKSF_NS4_10_AllocNodeISaINS4_10_Hash_nodeIS2_Lb0EEEEEEEEvOT_RKT0_
       5082 13D9 006B26A0 _ZNSt10_HashtableIjSt4pairIKjjESaIS2_ENSt8__detail10_Select1stESt8equal_toIjESt4hashIjENS4_18_Mod_range_hashingENS4_20_Default_ranged_hashENS4_20_Prime_rehash_policyENS4_17_Hashtable_traitsILb0ELb0ELb1EEEE9_M_assignIRKSF_NS4_17_ReuseOrAllocNodeISaINS4_10_Hash_nodeIS2_Lb0EEEEEEEEvOT_RKT0_
       5083 13DA 006B2870 _ZNSt10_HashtableIjSt4pairIKjjESaIS2_ENSt8__detail10_Select1stESt8equal_toIjESt4hashIjENS4_18_Mod_range_hashingENS4_20_Default_ranged_hashENS4_20_Prime_rehash_policyENS4_17_Hashtable_traitsILb0ELb0ELb1EEEE9_M_rehashEySt17integral_constantIbLb1EE
       5084 13DB 006B2990 _ZNSt11_Deque_baseIN4YAML14CollectionType5valueESaIS2_EE17_M_initialize_mapEy
       5085 13DC 006B2AC0 _ZNSt11_Deque_baseIN4YAML5TokenESaIS1_EE17_M_initialize_mapEy
       5086 13DD 006B2C30 _ZNSt11_Deque_baseIN4YAML5TokenESaIS1_EED2Ev
       5087 13DE 006B2C90 _ZNSt11_Deque_baseIN4YAML7Scanner11FLOW_MARKERESaIS2_EE17_M_initialize_mapEy
       5088 13DF 006B2DC0 _ZNSt11_Deque_baseIN4YAML7Scanner9SimpleKeyESaIS2_EE17_M_initialize_mapEy
       5089 13E0 006B2F30 _ZNSt11_Deque_baseINSt7__cxx1112basic_stringIcSt11char_traitsIcESaIcEEESaIS5_EE17_M_initialize_mapEy
       5090 13E1 006B3080 _ZNSt11_Deque_baseINSt7__cxx1112basic_stringIcSt11char_traitsIcESaIcEEESaIS5_EED2Ev
       5091 13E2 006B30E0 _ZNSt11_Deque_baseIPN4YAML7Scanner12IndentMarkerESaIS3_EE17_M_initialize_mapEy
       5092 13E3 006B3210 _ZNSt11_Deque_baseIcSaIcEE17_M_initialize_mapEy
       5093 13E4 006B3350 _ZNSt11_Deque_baseIiSaIiEE17_M_initialize_mapEy
       5094 13E5 006B3480 _ZNSt11_Deque_baseIiSaIiEED2Ev
       5095 13E6 006B34E0 _ZNSt11_Deque_baseIySaIyEE17_M_initialize_mapEy
       5096 13E7 006B3610 _ZNSt12_Destroy_auxILb0EE9__destroyIP14CandidateModelEEvT_S4_
       5097 13E8 006B36C0 _ZNSt12_Vector_baseI14CandidateModelSaIS0_EED2Ev
       5098 13E9 006B36D0 _ZNSt12__shared_ptrIN4YAML6detail13memory_holderELN9__gnu_cxx12_Lock_policyE2EE5resetIS2_EENSt9enable_ifIXsr21__sp_is_constructibleIS2_T_EE5valueEvE4typeEPS8_
       5099 13EA 006B37E0 _ZNSt12__shared_ptrIN4YAML6detail13memory_holderELN9__gnu_cxx12_Lock_policyE2EED2Ev
       5100 13EB 006B3840 _ZNSt12__shared_ptrIN4YAML6detail4nodeELN9__gnu_cxx12_Lock_policyE2EED2Ev
       5101 13EC 006B38A0 _ZNSt13_Bvector_baseISaIbEED2Ev
       5102 13ED 006B38E0 _ZNSt13unordered_mapINSt7__cxx1112basic_stringIcSt11char_traitsIcESaIcEEEP10ModelSubstSt4hashIS5_ESt8equal_toIS5_ESaISt4pairIKS5_S7_EEED2Ev
       5103 13EE 006B3970 _ZNSt13unordered_mapINSt7__cxx1112basic_stringIcSt11char_traitsIcESaIcEEES5_St4hashIS5_ESt8equal_toIS5_ESaISt4pairIKS5_S5_EEED2Ev
       5104 13EF 006B3A10 _ZNSt13unordered_mapINSt7__cxx1112basic_stringIcSt11char_traitsIcESaIcEEEbSt4hashIS5_ESt8equal_toIS5_ESaISt4pairIKS5_bEEED2Ev
       5105 13F0 006B3AA0 _ZNSt13unordered_mapINSt7__cxx1112basic_stringIcSt11char_traitsIcESaIcEEEdSt4hashIS5_ESt8equal_toIS5_ESaISt4pairIKS5_dEEED2Ev
       5106 13F1 006B3B30 _ZNSt13unordered_mapINSt7__cxx1112basic_stringIcSt11char_traitsIcESaIcEEEiSt4hashIS5_ESt8equal_toIS5_ESaISt4pairIKS5_iEEED2Ev
       5107 13F2 006B3BC0 _ZNSt13unordered_mapINSt7__cxx1112basic_stringIcSt11char_traitsIcESaIcEEEjSt4hashIS5_ESt8equal_toIS5_ESaISt4pairIKS5_jEEED2Ev
       5108 13F3 006B3C50 _ZNSt13unordered_mapINSt7__cxx1112basic_stringIcSt11char_traitsIcESaIcEEEySt4hashIS5_ESt8equal_toIS5_ESaISt4pairIKS5_yEEED2Ev
       5109 13F4 006B3CE0 _ZNSt13unordered_mapIP5SplitSt4pairIP4NodeS4_E14hashfunc_SplitSt8equal_toIS1_ESaIS2_IKS1_S5_EEED2Ev
       5110 13F5 006B3D50 _ZNSt13unordered_mapIP5Spliti14hashfunc_SplitSt8equal_toIS1_ESaISt4pairIKS1_iEEED2Ev
       5111 13F6 006B3DC0 _ZNSt13unordered_mapISt6vectorIjSaIjEEi11hashPatternSt8equal_toIS2_ESaISt4pairIKS2_iEEED2Ev
       5112 13F7 006B3E40 _ZNSt13unordered_mapIiPdSt4hashIiESt8equal_toIiESaISt4pairIKiS0_EEED2Ev
       5113 13F8 006B3EB0 _ZNSt13unordered_mapIjNSt7__cxx1112basic_stringIcSt11char_traitsIcESaIcEEESt4hashIjESt8equal_toIjESaISt4pairIKjS5_EEED2Ev
       5114 13F9 006B3F40 _ZNSt13unordered_mapIjSt6vectorIjSaIjEESt4hashIjESt8equal_toIjESaISt4pairIKjS2_EEED2Ev
       5115 13FA 006B3FC0 _ZNSt13unordered_mapIjjSt4hashIjESt8equal_toIjESaISt4pairIKjjEEED2Ev
       5116 13FB 006B4030 _ZNSt13unordered_setINSt7__cxx1112basic_stringIcSt11char_traitsIcESaIcEEESt4hashIS5_ESt8equal_toIS5_ESaIS5_EED2Ev
       5117 13FC 006B40C0 _ZNSt13unordered_setIiSt4hashIiESt8equal_toIiESaIiEED2Ev
       5118 13FD 006B4130 _ZNSt14__shared_countILN9__gnu_cxx12_Lock_policyE2EEC2IPN4YAML6detail13memory_holderEEET_
       5119 13FE 006B41B0 _ZNSt14__shared_countILN9__gnu_cxx12_Lock_policyE2EEC2IPN4YAML6detail6memoryEEET_
       5120 13FF 006B4230 _ZNSt14__shared_countILN9__gnu_cxx12_Lock_policyE2EEC2IPN4YAML6detail8node_refEEET_
       5121 1400 006B42B0 _ZNSt15_Sp_counted_ptrIPN4YAML6detail13memory_holderELN9__gnu_cxx12_Lock_policyE2EE10_M_destroyEv
       5122 1401 006B42C0 _ZNSt15_Sp_counted_ptrIPN4YAML6detail13memory_holderELN9__gnu_cxx12_Lock_policyE2EE10_M_disposeEv
       5123 1402 006B4330 _ZNSt15_Sp_counted_ptrIPN4YAML6detail13memory_holderELN9__gnu_cxx12_Lock_policyE2EE14_M_get_deleterERKSt9type_info
       5124 1403 006B4340 _ZNSt15_Sp_counted_ptrIPN4YAML6detail13memory_holderELN9__gnu_cxx12_Lock_policyE2EED0Ev
       5125 1404 006B4350 _ZNSt15_Sp_counted_ptrIPN4YAML6detail4nodeELN9__gnu_cxx12_Lock_policyE2EE10_M_destroyEv
       5126 1405 006B4360 _ZNSt15_Sp_counted_ptrIPN4YAML6detail4nodeELN9__gnu_cxx12_Lock_policyE2EE10_M_disposeEv
       5127 1406 006B43F0 _ZNSt15_Sp_counted_ptrIPN4YAML6detail4nodeELN9__gnu_cxx12_Lock_policyE2EE14_M_get_deleterERKSt9type_info
       5128 1407 006B4400 _ZNSt15_Sp_counted_ptrIPN4YAML6detail4nodeELN9__gnu_cxx12_Lock_policyE2EED0Ev
       5129 1408 006B4410 _ZNSt15_Sp_counted_ptrIPN4YAML6detail6memoryELN9__gnu_cxx12_Lock_policyE2EE10_M_destroyEv
       5130 1409 006B4420 _ZNSt15_Sp_counted_ptrIPN4YAML6detail6memoryELN9__gnu_cxx12_Lock_policyE2EE10_M_disposeEv
       5131 140A 006B4460 _ZNSt15_Sp_counted_ptrIPN4YAML6detail6memoryELN9__gnu_cxx12_Lock_policyE2EE14_M_get_deleterERKSt9type_info
       5132 140B 006B4470 _ZNSt15_Sp_counted_ptrIPN4YAML6detail6memoryELN9__gnu_cxx12_Lock_policyE2EED0Ev
       5133 140C 006B4480 _ZNSt15_Sp_counted_ptrIPN4YAML6detail8node_refELN9__gnu_cxx12_Lock_policyE2EE10_M_destroyEv
       5134 140D 006B4490 _ZNSt15_Sp_counted_ptrIPN4YAML6detail8node_refELN9__gnu_cxx12_Lock_policyE2EE10_M_disposeEv
       5135 140E 006B4500 _ZNSt15_Sp_counted_ptrIPN4YAML6detail8node_refELN9__gnu_cxx12_Lock_policyE2EE14_M_get_deleterERKSt9type_info
       5136 140F 006B4510 _ZNSt15_Sp_counted_ptrIPN4YAML6detail8node_refELN9__gnu_cxx12_Lock_policyE2EED0Ev
       5137 1410 006B4520 _ZNSt15_Sp_counted_ptrIPN4YAML6detail9node_dataELN9__gnu_cxx12_Lock_policyE2EE10_M_destroyEv
       5138 1411 006B4530 _ZNSt15_Sp_counted_ptrIPN4YAML6detail9node_dataELN9__gnu_cxx12_Lock_policyE2EE10_M_disposeEv
       5139 1412 006B45D0 _ZNSt15_Sp_counted_ptrIPN4YAML6detail9node_dataELN9__gnu_cxx12_Lock_policyE2EE14_M_get_deleterERKSt9type_info
       5140 1413 006B45E0 _ZNSt15_Sp_counted_ptrIPN4YAML6detail9node_dataELN9__gnu_cxx12_Lock_policyE2EED0Ev
       5141 1414 006B45F0 _ZNSt16_Sp_counted_baseILN9__gnu_cxx12_Lock_policyE2EE24_M_release_last_use_coldEv
       5142 1415 006B4620 _ZNSt16_Sp_counted_baseILN9__gnu_cxx12_Lock_policyE2EED2Ev
       5143 1416 006B4630 _ZNSt20poisson_distributionIiE10param_type13_M_initializeEv
       5144 1417 006B47E0 _ZNSt20poisson_distributionIiEclISt26linear_congruential_engineIjLj16807ELj0ELj2147483647EEEEiRT_RKNS0_10param_typeE
       5145 1418 006B5070 _ZNSt3mapI7Patterni9classcompSaISt4pairIKS0_iEEE6insertIS2_IS0_iEEENSt9enable_ifIXsr16is_constructibleIS4_T_EE5valueES2_ISt17_Rb_tree_iteratorIS4_EbEE4typeEOSA_
       5146 1419 006B51A0 _ZNSt3mapI7Patterni9classcompSaISt4pairIKS0_iEEED2Ev
       5147 141A 006B51C0 _ZNSt3mapI9NxsStringS0_St4lessIS0_ESaISt4pairIKS0_S0_EEED2Ev
       5148 141B 006B51E0 _ZNSt3mapI9NxsStringS0_St4lessIS0_ESaISt4pairIKS0_S0_EEEixEOS0_
       5149 141C 006B5320 _ZNSt3mapI9NxsStringS0_St4lessIS0_ESaISt4pairIKS0_S0_EEEixERS4_
       5150 141D 006B5460 _ZNSt3mapI9NxsStringSt3setIjSt4lessIjESaIjEES2_IS0_ESaISt4pairIKS0_S5_EEED2Ev
       5151 141E 006B5480 _ZNSt3mapI9NxsStringSt3setIjSt4lessIjESaIjEES2_IS0_ESaISt4pairIKS0_S5_EEEixERS8_
       5152 141F 006B55C0 _ZNSt3mapINSt7__cxx1112basic_stringIcSt11char_traitsIcESaIcEEE12DistributionSt4lessIS5_ESaISt4pairIKS5_S6_EEE6insertIS9_IS5_S6_EEENSt9enable_ifIXsr16is_constructibleISB_T_EE5valueES9_ISt17_Rb_tree_iteratorISB_EbEE4typeEOSH_
       5153 1420 006B5700 _ZNSt3mapINSt7__cxx1112basic_stringIcSt11char_traitsIcESaIcEEE12DistributionSt4lessIS5_ESaISt4pairIKS5_S6_EEED2Ev
       5154 1421 006B5720 _ZNSt3mapINSt7__cxx1112basic_stringIcSt11char_traitsIcESaIcEEE12DistributionSt4lessIS5_ESaISt4pairIKS5_S6_EEEixERSA_
       5155 1422 006B5860 _ZNSt3mapINSt7__cxx1112basic_stringIcSt11char_traitsIcESaIcEEEP4NodeSt4lessIS5_ESaISt4pairIKS5_S7_EEED2Ev
       5156 1423 006B5880 _ZNSt3mapINSt7__cxx1112basic_stringIcSt11char_traitsIcESaIcEEEP4NodeSt4lessIS5_ESaISt4pairIKS5_S7_EEEixERSB_
       5157 1424 006B59C0 _ZNSt3mapINSt7__cxx1112basic_stringIcSt11char_traitsIcESaIcEEEPN9StartTree16BuilderInterfaceESt4lessIS5_ESaISt4pairIKS5_S8_EEEixERSC_
       5158 1425 006B5B00 _ZNSt3mapINSt7__cxx1112basic_stringIcSt11char_traitsIcESaIcEEES5_St4lessIS5_ESaISt4pairIKS5_S5_EEED2Ev
       5159 1426 006B5B20 _ZNSt3mapINSt7__cxx1112basic_stringIcSt11char_traitsIcESaIcEEES5_St4lessIS5_ESaISt4pairIKS5_S5_EEEixEOS5_
       5160 1427 006B5C60 _ZNSt3mapINSt7__cxx1112basic_stringIcSt11char_traitsIcESaIcEEES5_St4lessIS5_ESaISt4pairIKS5_S5_EEEixERS9_
       5161 1428 006B5DA0 _ZNSt3mapINSt7__cxx1112basic_stringIcSt11char_traitsIcESaIcEEEdSt4lessIS5_ESaISt4pairIKS5_dEEED2Ev
       5162 1429 006B5DC0 _ZNSt3mapINSt7__cxx1112basic_stringIcSt11char_traitsIcESaIcEEEdSt4lessIS5_ESaISt4pairIKS5_dEEEixERS9_
       5163 142A 006B5F00 _ZNSt3mapINSt7__cxx1112basic_stringIcSt11char_traitsIcESaIcEEEiSt4lessIS5_ESaISt4pairIKS5_iEEE6insertIS8_IS5_iEEENSt9enable_ifIXsr16is_constructibleISA_T_EE5valueES8_ISt17_Rb_tree_iteratorISA_EbEE4typeEOSG_
       5164 142B 006B6040 _ZNSt3mapINSt7__cxx1112basic_stringIcSt11char_traitsIcESaIcEEEiSt4lessIS5_ESaISt4pairIKS5_iEEED2Ev
       5165 142C 006B6060 _ZNSt3mapINSt7__cxx1112basic_stringIcSt11char_traitsIcESaIcEEEiSt4lessIS5_ESaISt4pairIKS5_iEEEixERS9_
       5166 142D 006B61A0 _ZNSt3mapINSt7__cxx1112basic_stringIcSt11char_traitsIcESaIcEEEySt4lessIS5_ESaISt4pairIKS5_yEEEixERS9_
       5167 142E 006B62E0 _ZNSt3mapISt6vectorIiSaIiEEiSt4lessIS2_ESaISt4pairIKS2_iEEE6insertIS5_IS2_iEEENSt9enable_ifIXsr16is_constructibleIS7_T_EE5valueES5_ISt17_Rb_tree_iteratorIS7_EbEE4typeEOSD_
       5168 142F 006B6420 _ZNSt3mapISt6vectorIiSaIiEEiSt4lessIS2_ESaISt4pairIKS2_iEEED2Ev
       5169 1430 006B6440 _ZNSt3mapIccSt4lessIcESaISt4pairIKccEEED2Ev
       5170 1431 006B6460 _ZNSt3mapIciSt4lessIcESaISt4pairIKciEEED2Ev
       5171 1432 006B6480 _ZNSt3mapIiP8NeighborSt4lessIiESaISt4pairIKiS1_EEED2Ev
       5172 1433 006B64A0 _ZNSt3mapIiP9PhyloNodeSt4lessIiESaISt4pairIKiS1_EEED2Ev
       5173 1434 006B64C0 _ZNSt3mapIiSt4pairIP4NodeS2_ESt4lessIiESaIS0_IKiS3_EEED2Ev
       5174 1435 006B64E0 _ZNSt3mapIiiSt4lessIiESaISt4pairIKiiEEED2Ev
       5175 1436 006B6500 _ZNSt3mapIjSt6vectorI9NxsStringSaIS1_EESt4lessIjESaISt4pairIKjS3_EEED2Ev
       5176 1437 006B6520 _ZNSt3setI7SPRMove11SPR_compareSaIS0_EED2Ev
       5177 1438 006B6540 _ZNSt3setINSt7__cxx1112basic_stringIcSt11char_traitsIcESaIcEEESt4lessIS5_ESaIS5_EED2Ev
       5178 1439 006B6560 _ZNSt3setIP9IntString12IntStringCmpSaIS1_EED2Ev
       5179 143A 006B6580 _ZNSt3setIiSt4lessIiESaIiEED2Ev
       5180 143B 006B65A0 _ZNSt3setIjSt4lessIjESaIjEED2Ev
       5181 143C 006B65C0 _ZNSt4pairIKNSt7__cxx1112basic_stringIcSt11char_traitsIcESaIcEEE12DistributionEC2ERKS8_
       5182 143D 006B66E0 _ZNSt4pairIKNSt7__cxx1112basic_stringIcSt11char_traitsIcESaIcEEE8NxsModelED2Ev
       5183 143E 006B6740 _ZNSt4pairIKNSt7__cxx1112basic_stringIcSt11char_traitsIcESaIcEEES5_EC2ERKS7_
       5184 143F 006B6850 _ZNSt4pairIKNSt7__cxx1112basic_stringIcSt11char_traitsIcESaIcEEES5_EC2IRA3_KcRA40_S9_Lb1EEEOT_OT0_
       5185 1440 006B6970 _ZNSt4pairIKNSt7__cxx1112basic_stringIcSt11char_traitsIcESaIcEEES5_EC2IRA4_KcRA38_S9_Lb1EEEOT_OT0_
       5186 1441 006B6A90 _ZNSt4pairIKNSt7__cxx1112basic_stringIcSt11char_traitsIcESaIcEEES5_EC2IRA5_KcRA56_S9_Lb1EEEOT_OT0_
       5187 1442 006B6BB0 _ZNSt4pairIKNSt7__cxx1112basic_stringIcSt11char_traitsIcESaIcEEES5_EC2IRA5_KcRA65_S9_Lb1EEEOT_OT0_
       5188 1443 006B6CD0 _ZNSt4pairIKNSt7__cxx1112basic_stringIcSt11char_traitsIcESaIcEEES5_EC2IRA6_KcRA32_S9_Lb1EEEOT_OT0_
       5189 1444 006B6DF0 _ZNSt4pairIKNSt7__cxx1112basic_stringIcSt11char_traitsIcESaIcEEES5_EC2IRA6_KcRA43_S9_Lb1EEEOT_OT0_
       5190 1445 006B6F10 _ZNSt4pairIKNSt7__cxx1112basic_stringIcSt11char_traitsIcESaIcEEES5_EC2IRA7_KcRA33_S9_Lb1EEEOT_OT0_
       5191 1446 006B7030 _ZNSt4pairIKNSt7__cxx1112basic_stringIcSt11char_traitsIcESaIcEEES5_EC2IRA7_KcRA45_S9_Lb1EEEOT_OT0_
       5192 1447 006B7150 _ZNSt4pairIKNSt7__cxx1112basic_stringIcSt11char_traitsIcESaIcEEES5_EC2IRA7_KcRA57_S9_Lb1EEEOT_OT0_
       5193 1448 006B7270 _ZNSt4pairIKNSt7__cxx1112basic_stringIcSt11char_traitsIcESaIcEEES5_EC2IRA7_KcRA66_S9_Lb1EEEOT_OT0_
       5194 1449 006B7390 _ZNSt4pairIKNSt7__cxx1112basic_stringIcSt11char_traitsIcESaIcEEES5_EC2IRA8_KcRA21_S9_Lb1EEEOT_OT0_
       5195 144A 006B74B0 _ZNSt4pairIKNSt7__cxx1112basic_stringIcSt11char_traitsIcESaIcEEES5_ED2Ev
       5196 144B 006B74F0 _ZNSt4pairIKd13CandidateTreeED2Ev
       5197 144C 006B7530 _ZNSt4pairIKd9ModelPairED2Ev
       5198 144D 006B7590 _ZNSt4pairIN8terraces9bitmatrixESt6vectorIySaIyEEED2Ev
       5199 144E 006B75E0 _ZNSt4pairINSt7__cxx1112basic_stringIcSt11char_traitsIcESaIcEEE12DistributionEC2IRS5_RS6_Lb1EEEOT_OT0_
       5200 144F 006B7700 _ZNSt4pairINSt7__cxx1112basic_stringIcSt11char_traitsIcESaIcEEE12DistributionED2Ev
       5201 1450 006B7740 _ZNSt5dequeIN4YAML14CollectionType5valueESaIS2_EE16_M_push_back_auxIJRKS2_EEEvDpOT_
       5202 1451 006B7810 _ZNSt5dequeIN4YAML14CollectionType5valueESaIS2_EE17_M_reallocate_mapEyb
       5203 1452 006B79A0 _ZNSt5dequeIN4YAML5TokenESaIS1_EE16_M_push_back_auxIJRKS1_EEEvDpOT_
       5204 1453 006B7AC0 _ZNSt5dequeIN4YAML5TokenESaIS1_EE16_M_push_back_auxIJS1_EEEvDpOT_
       5205 1454 006B7C20 _ZNSt5dequeIN4YAML5TokenESaIS1_EE17_M_reallocate_mapEyb
       5206 1455 006B7DB0 _ZNSt5dequeIN4YAML5TokenESaIS1_EE19_M_destroy_data_auxESt15_Deque_iteratorIS1_RS1_PS1_ES7_
       5207 1456 006B81F0 _ZNSt5dequeIN4YAML5TokenESaIS1_EE9pop_frontEv
       5208 1457 006B8310 _ZNSt5dequeIN4YAML5TokenESaIS1_EED2Ev
       5209 1458 006B83B0 _ZNSt5dequeIN4YAML7Scanner11FLOW_MARKERESaIS2_EE16_M_push_back_auxIJRKS2_EEEvDpOT_
       5210 1459 006B8480 _ZNSt5dequeIN4YAML7Scanner11FLOW_MARKERESaIS2_EE17_M_reallocate_mapEyb
       5211 145A 006B8610 _ZNSt5dequeIN4YAML7Scanner9SimpleKeyESaIS2_EE16_M_push_back_auxIJRKS2_EEEvDpOT_
       5212 145B 006B8700 _ZNSt5dequeIN4YAML7Scanner9SimpleKeyESaIS2_EE17_M_reallocate_mapEyb
       5213 145C 006B8890 _ZNSt5dequeINSt7__cxx1112basic_stringIcSt11char_traitsIcESaIcEEESaIS5_EE13_M_insert_auxISt15_Deque_iteratorIS5_RKS5_PSA_EEEvS9_IS5_RS5_PS5_ET_SH_y
       5214 145D 006B9890 _ZNSt5dequeINSt7__cxx1112basic_stringIcSt11char_traitsIcESaIcEEESaIS5_EE16_M_push_back_auxIJRKS5_EEEvDpOT_
       5215 145E 006B9A00 _ZNSt5dequeINSt7__cxx1112basic_stringIcSt11char_traitsIcESaIcEEESaIS5_EE17_M_reallocate_mapEyb
       5216 145F 006B9B90 _ZNSt5dequeINSt7__cxx1112basic_stringIcSt11char_traitsIcESaIcEEESaIS5_EE19_M_destroy_data_auxESt15_Deque_iteratorIS5_RS5_PS5_ESB_
       5217 1460 006B9E00 _ZNSt5dequeINSt7__cxx1112basic_stringIcSt11char_traitsIcESaIcEEESaIS5_EE19_M_range_insert_auxISt15_Deque_iteratorIS5_RKS5_PSA_EEEvS9_IS5_RS5_PS5_ET_SH_St20forward_iterator_tag
       5218 1461 006BA1C0 _ZNSt5dequeINSt7__cxx1112basic_stringIcSt11char_traitsIcESaIcEEESaIS5_EE23_M_new_elements_at_backEy
       5219 1462 006BA2F0 _ZNSt5dequeINSt7__cxx1112basic_stringIcSt11char_traitsIcESaIcEEESaIS5_EE24_M_new_elements_at_frontEy
       5220 1463 006BA430 _ZNSt5dequeINSt7__cxx1112basic_stringIcSt11char_traitsIcESaIcEEESaIS5_EED2Ev
       5221 1464 006BA4D0 _ZNSt5dequeINSt7__cxx1112basic_stringIcSt11char_traitsIcESaIcEEESaIS5_EEaSERKS7_
       5222 1465 006BA800 _ZNSt5dequeIPN4YAML7Scanner12IndentMarkerESaIS3_EE16_M_push_back_auxIJS3_EEEvDpOT_
       5223 1466 006BA8D0 _ZNSt5dequeIPN4YAML7Scanner12IndentMarkerESaIS3_EE17_M_reallocate_mapEyb
       5224 1467 006BAA60 _ZNSt5dequeIcSaIcEE16_M_push_back_auxIJcEEEvDpOT_
       5225 1468 006BAB20 _ZNSt5dequeIcSaIcEE17_M_reallocate_mapEyb
       5226 1469 006BACB0 _ZNSt5dequeIcSaIcEED2Ev
       5227 146A 006BAD10 _ZNSt5dequeIiSaIiEE16_M_push_back_auxIJRKiEEEvDpOT_
       5228 146B 006BADE0 _ZNSt5dequeIiSaIiEE16_M_push_back_auxIJiEEEvDpOT_
       5229 146C 006BAEB0 _ZNSt5dequeIiSaIiEE17_M_reallocate_mapEyb
       5230 146D 006BB040 _ZNSt5dequeIiSaIiEEC2ERKS1_
       5231 146E 006BB120 _ZNSt5dequeIySaIyEE16_M_push_back_auxIJRKyEEEvDpOT_
       5232 146F 006BB1F0 _ZNSt5dequeIySaIyEE16_M_push_back_auxIJyEEEvDpOT_
       5233 1470 006BB2C0 _ZNSt5dequeIySaIyEE17_M_reallocate_mapEyb
       5234 1471 006BB450 _ZNSt5stackIN4YAML7Scanner9SimpleKeyESt5dequeIS2_SaIS2_EEED2Ev
       5235 1472 006BB4B0 _ZNSt5stackIPN4YAML7Scanner12IndentMarkerESt5dequeIS3_SaIS3_EEED2Ev
       5236 1473 006BCEE0 _ZNSt5stackIiSt5dequeIiSaIiEEED2Ev
       5237 1474 006BCF40 _ZNSt5stackIySt5dequeIySaIyEEED2Ev
       5238 1475 006BCFA0 _ZNSt6vectorI10pllNNIMoveSaIS0_EED2Ev
       5239 1476 006BCFB0 _ZNSt6vectorI11QuartetInfoSaIS0_EE17_M_default_appendEy
       5240 1477 006BD1D0 _ZNSt6vectorI11QuartetInfoSaIS0_EED2Ev
       5241 1478 006BD1E0 _ZNSt6vectorI11SplitIntMapSaIS0_EE17_M_default_appendEy
       5242 1479 006BD500 _ZNSt6vectorI11SplitIntMapSaIS0_EED2Ev
       5243 147A 006BD5C0 _ZNSt6vectorI11SymTestStatSaIS0_EE15_M_range_insertIN9__gnu_cxx17__normal_iteratorIPS0_S2_EEEEvS7_T_S8_St20forward_iterator_tag
       5244 147B 006BD940 _ZNSt6vectorI13PartitionInfoSaIS0_EE17_M_realloc_appendIJRKS0_EEEvDpOT_
       5245 147C 006BDA70 _ZNSt6vectorI13PartitionInfoSaIS0_EE20_M_allocate_and_copyIN9__gnu_cxx17__normal_iteratorIPKS0_S2_EEEEPS0_yT_SA_
       5246 147D 006BDB80 _ZNSt6vectorI13PartitionInfoSaIS0_EED2Ev
       5247 147E 006BDBE0 _ZNSt6vectorI13PartitionInfoSaIS0_EEaSERKS2_
       5248 147F 006BDE60 _ZNSt6vectorI13SymTestResultSaIS0_EE17_M_default_appendEy
       5249 1480 006BE180 _ZNSt6vectorI13TraversalInfoSaIS0_EED2Ev
       5250 1481 006BE190 _ZNSt6vectorI14CandidateModelSaIS0_EE11_S_relocateEPS0_S3_S3_RS1_
       5251 1482 006BE260 _ZNSt6vectorI14CandidateModelSaIS0_EE17_M_realloc_appendIJRKS0_EEEvDpOT_
       5252 1483 006BE370 _ZNSt6vectorI14CandidateModelSaIS0_EE17_M_realloc_appendIJS0_EEEvDpOT_
       5253 1484 006BE470 _ZNSt6vectorI14CandidateModelSaIS0_EED2Ev
       5254 1485 006BE4C0 _ZNSt6vectorI14SeqQuartetInfoSaIS0_EE17_M_default_appendEy
       5255 1486 006BE6E0 _ZNSt6vectorI14SeqQuartetInfoSaIS0_EED2Ev
       5256 1487 006BE6F0 _ZNSt6vectorI17AlignmentPairwiseSaIS0_EE17_M_realloc_appendIJS0_EEEvDpOT_
       5257 1488 006BE9E0 _ZNSt6vectorI17AlignmentPairwiseSaIS0_EE20_M_allocate_and_copyIPKS0_EEPS0_yT_S7_
       5258 1489 006BEBA0 _ZNSt6vectorI17AlignmentPairwiseSaIS0_EED2Ev
       5259 148A 006BEC00 _ZNSt6vectorI7MemSlotSaIS0_EE17_M_default_appendEy
       5260 148B 006BEDE0 _ZNSt6vectorI7NNIInfoSaIS0_EED2Ev
       5261 148C 006BEDF0 _ZNSt6vectorI7NNIMoveSaIS0_EE17_M_default_appendEy
       5262 148D 006BF030 _ZNSt6vectorI7NNIMoveSaIS0_EE17_M_realloc_appendIJRKS0_EEEvDpOT_
       5263 148E 006BF220 _ZNSt6vectorI7NNIMoveSaIS0_EE5clearEv
       5264 148F 006BF2B0 _ZNSt6vectorI7NNIMoveSaIS0_EE6resizeEy
       5265 1490 006BF380 _ZNSt6vectorI7NNIMoveSaIS0_EED2Ev
       5266 1491 006BF420 _ZNSt6vectorI7NNITypeSaIS0_EE14_M_fill_insertEN9__gnu_cxx17__normal_iteratorIPS0_S2_EEyRKS0_
       5267 1492 006BFB60 _ZNSt6vectorI7PatternSaIS0_EE14_M_fill_insertEN9__gnu_cxx17__normal_iteratorIPS0_S2_EEyRKS0_
       5268 1493 006C0170 _ZNSt6vectorI7PatternSaIS0_EE17_M_realloc_appendIJRKS0_EEEvDpOT_
       5269 1494 006C0320 _ZNSt6vectorI7PatternSaIS0_EE20_M_allocate_and_copyIPKS0_EEPS0_yT_S7_
       5270 1495 006C0430 _ZNSt6vectorI7PatternSaIS0_EEC2ERKS2_
       5271 1496 006C0550 _ZNSt6vectorI7PatternSaIS0_EED2Ev
       5272 1497 006C05B0 _ZNSt6vectorI8TreeInfoSaIS0_EE17_M_default_appendEy
       5273 1498 006C07D0 _ZNSt6vectorI9NxsStringSaIS0_EE17_M_realloc_appendIJRKS0_EEEvDpOT_
       5274 1499 006C0920 _ZNSt6vectorI9NxsStringSaIS0_EE17_M_realloc_appendIJS0_EEEvDpOT_
       5275 149A 006C0A70 _ZNSt6vectorI9NxsStringSaIS0_EED2Ev
